ARM GAS  /var/folders/0z/_3zh0q697778kwks4bv8s9bh0000gn/T//ccPzatuz.s 			page 1


   1              		.syntax unified
   2              		.cpu cortex-m4
   3              		.eabi_attribute 27, 1
   4              		.eabi_attribute 28, 1
   5              		.fpu fpv4-sp-d16
   6              		.eabi_attribute 20, 1
   7              		.eabi_attribute 21, 1
   8              		.eabi_attribute 23, 3
   9              		.eabi_attribute 24, 1
  10              		.eabi_attribute 25, 1
  11              		.eabi_attribute 26, 1
  12              		.eabi_attribute 30, 6
  13              		.eabi_attribute 34, 1
  14              		.eabi_attribute 18, 4
  15              		.thumb
  16              		.file	"stm32f3xx_hal_uart.c"
  17              		.text
  18              	.Ltext0:
  19              		.cfi_sections	.debug_frame
  20              		.section	.text.HAL_UART_Init,"ax",%progbits
  21              		.align	2
  22              		.global	HAL_UART_Init
  23              		.thumb
  24              		.thumb_func
  26              	HAL_UART_Init:
  27              	.LFB123:
  28              		.file 1 "Drivers/STM32F3xx_HAL_Driver/Src/stm32f3xx_hal_uart.c"
   1:Drivers/STM32F3xx_HAL_Driver/Src/stm32f3xx_hal_uart.c **** /**
   2:Drivers/STM32F3xx_HAL_Driver/Src/stm32f3xx_hal_uart.c ****   ******************************************************************************
   3:Drivers/STM32F3xx_HAL_Driver/Src/stm32f3xx_hal_uart.c ****   * @file    stm32f3xx_hal_uart.c
   4:Drivers/STM32F3xx_HAL_Driver/Src/stm32f3xx_hal_uart.c ****   * @author  MCD Application Team
   5:Drivers/STM32F3xx_HAL_Driver/Src/stm32f3xx_hal_uart.c ****   * @version V1.3.0
   6:Drivers/STM32F3xx_HAL_Driver/Src/stm32f3xx_hal_uart.c ****   * @date    01-July-2016
   7:Drivers/STM32F3xx_HAL_Driver/Src/stm32f3xx_hal_uart.c ****   * @brief   UART HAL module driver.
   8:Drivers/STM32F3xx_HAL_Driver/Src/stm32f3xx_hal_uart.c ****   *          This file provides firmware functions to manage the following 
   9:Drivers/STM32F3xx_HAL_Driver/Src/stm32f3xx_hal_uart.c ****   *          functionalities of the Universal Asynchronous Receiver Transmitter (UART) peripheral:
  10:Drivers/STM32F3xx_HAL_Driver/Src/stm32f3xx_hal_uart.c ****   *           + Initialization and de-initialization functions
  11:Drivers/STM32F3xx_HAL_Driver/Src/stm32f3xx_hal_uart.c ****   *           + IO operation functions
  12:Drivers/STM32F3xx_HAL_Driver/Src/stm32f3xx_hal_uart.c ****   *           + Peripheral Control functions
  13:Drivers/STM32F3xx_HAL_Driver/Src/stm32f3xx_hal_uart.c ****   *           + Peripheral State and Errors functions
  14:Drivers/STM32F3xx_HAL_Driver/Src/stm32f3xx_hal_uart.c ****   *
  15:Drivers/STM32F3xx_HAL_Driver/Src/stm32f3xx_hal_uart.c ****   @verbatim
  16:Drivers/STM32F3xx_HAL_Driver/Src/stm32f3xx_hal_uart.c ****  ===============================================================================
  17:Drivers/STM32F3xx_HAL_Driver/Src/stm32f3xx_hal_uart.c ****                         ##### How to use this driver #####
  18:Drivers/STM32F3xx_HAL_Driver/Src/stm32f3xx_hal_uart.c ****  ===============================================================================
  19:Drivers/STM32F3xx_HAL_Driver/Src/stm32f3xx_hal_uart.c ****   [..]
  20:Drivers/STM32F3xx_HAL_Driver/Src/stm32f3xx_hal_uart.c ****     The UART HAL driver can be used as follows:
  21:Drivers/STM32F3xx_HAL_Driver/Src/stm32f3xx_hal_uart.c **** 
  22:Drivers/STM32F3xx_HAL_Driver/Src/stm32f3xx_hal_uart.c ****     (#) Declare a UART_HandleTypeDef handle structure (eg. UART_HandleTypeDef huart).
  23:Drivers/STM32F3xx_HAL_Driver/Src/stm32f3xx_hal_uart.c ****     (#) Initialize the UART low level resources by implementing the HAL_UART_MspInit() API:
  24:Drivers/STM32F3xx_HAL_Driver/Src/stm32f3xx_hal_uart.c ****         (++) Enable the USARTx interface clock.
  25:Drivers/STM32F3xx_HAL_Driver/Src/stm32f3xx_hal_uart.c ****         (++) UART pins configuration:
  26:Drivers/STM32F3xx_HAL_Driver/Src/stm32f3xx_hal_uart.c ****             (+++) Enable the clock for the UART GPIOs.
  27:Drivers/STM32F3xx_HAL_Driver/Src/stm32f3xx_hal_uart.c ****             (+++) Configure these UART pins as alternate function pull-up.
  28:Drivers/STM32F3xx_HAL_Driver/Src/stm32f3xx_hal_uart.c ****         (++) NVIC configuration if you need to use interrupt process (HAL_UART_Transmit_IT()
  29:Drivers/STM32F3xx_HAL_Driver/Src/stm32f3xx_hal_uart.c ****              and HAL_UART_Receive_IT() APIs):
  30:Drivers/STM32F3xx_HAL_Driver/Src/stm32f3xx_hal_uart.c ****             (+++) Configure the USARTx interrupt priority.
ARM GAS  /var/folders/0z/_3zh0q697778kwks4bv8s9bh0000gn/T//ccPzatuz.s 			page 2


  31:Drivers/STM32F3xx_HAL_Driver/Src/stm32f3xx_hal_uart.c ****             (+++) Enable the NVIC USART IRQ handle.
  32:Drivers/STM32F3xx_HAL_Driver/Src/stm32f3xx_hal_uart.c ****         (++) UART interrupts handling:
  33:Drivers/STM32F3xx_HAL_Driver/Src/stm32f3xx_hal_uart.c ****               -@@-  The specific UART interrupts (Transmission complete interrupt,
  34:Drivers/STM32F3xx_HAL_Driver/Src/stm32f3xx_hal_uart.c ****                 RXNE interrupt and Error Interrupts) are managed using the macros
  35:Drivers/STM32F3xx_HAL_Driver/Src/stm32f3xx_hal_uart.c ****                 __HAL_UART_ENABLE_IT() and __HAL_UART_DISABLE_IT() inside the transmit and receive 
  36:Drivers/STM32F3xx_HAL_Driver/Src/stm32f3xx_hal_uart.c ****         (++) DMA Configuration if you need to use DMA process (HAL_UART_Transmit_DMA()
  37:Drivers/STM32F3xx_HAL_Driver/Src/stm32f3xx_hal_uart.c ****              and HAL_UART_Receive_DMA() APIs):
  38:Drivers/STM32F3xx_HAL_Driver/Src/stm32f3xx_hal_uart.c ****             (+++) Declare a DMA handle structure for the Tx/Rx channel.
  39:Drivers/STM32F3xx_HAL_Driver/Src/stm32f3xx_hal_uart.c ****             (+++) Enable the DMAx interface clock.
  40:Drivers/STM32F3xx_HAL_Driver/Src/stm32f3xx_hal_uart.c ****             (+++) Configure the declared DMA handle structure with the required Tx/Rx parameters.
  41:Drivers/STM32F3xx_HAL_Driver/Src/stm32f3xx_hal_uart.c ****             (+++) Configure the DMA Tx/Rx channel.
  42:Drivers/STM32F3xx_HAL_Driver/Src/stm32f3xx_hal_uart.c ****             (+++) Associate the initialized DMA handle to the UART DMA Tx/Rx handle.
  43:Drivers/STM32F3xx_HAL_Driver/Src/stm32f3xx_hal_uart.c ****             (+++) Configure the priority and enable the NVIC for the transfer complete interrupt on
  44:Drivers/STM32F3xx_HAL_Driver/Src/stm32f3xx_hal_uart.c **** 
  45:Drivers/STM32F3xx_HAL_Driver/Src/stm32f3xx_hal_uart.c ****     (#) Program the Baud Rate, Word Length, Stop Bit, Parity, Hardware
  46:Drivers/STM32F3xx_HAL_Driver/Src/stm32f3xx_hal_uart.c ****         flow control and Mode (Receiver/Transmitter) in the huart handle Init structure.
  47:Drivers/STM32F3xx_HAL_Driver/Src/stm32f3xx_hal_uart.c **** 
  48:Drivers/STM32F3xx_HAL_Driver/Src/stm32f3xx_hal_uart.c ****     (#) If required, program UART advanced features (TX/RX pins swap, auto Baud rate detection,...)
  49:Drivers/STM32F3xx_HAL_Driver/Src/stm32f3xx_hal_uart.c ****         in the huart handle AdvancedInit structure.
  50:Drivers/STM32F3xx_HAL_Driver/Src/stm32f3xx_hal_uart.c **** 
  51:Drivers/STM32F3xx_HAL_Driver/Src/stm32f3xx_hal_uart.c ****     (#) For the UART asynchronous mode, initialize the UART registers by calling
  52:Drivers/STM32F3xx_HAL_Driver/Src/stm32f3xx_hal_uart.c ****         the HAL_UART_Init() API.
  53:Drivers/STM32F3xx_HAL_Driver/Src/stm32f3xx_hal_uart.c **** 
  54:Drivers/STM32F3xx_HAL_Driver/Src/stm32f3xx_hal_uart.c ****     (#) For the UART Half duplex mode, initialize the UART registers by calling
  55:Drivers/STM32F3xx_HAL_Driver/Src/stm32f3xx_hal_uart.c ****         the HAL_HalfDuplex_Init() API.
  56:Drivers/STM32F3xx_HAL_Driver/Src/stm32f3xx_hal_uart.c **** 
  57:Drivers/STM32F3xx_HAL_Driver/Src/stm32f3xx_hal_uart.c ****     (#) For the UART LIN (Local Interconnection Network) mode, initialize the UART registers
  58:Drivers/STM32F3xx_HAL_Driver/Src/stm32f3xx_hal_uart.c ****         by calling the HAL_LIN_Init() API.
  59:Drivers/STM32F3xx_HAL_Driver/Src/stm32f3xx_hal_uart.c **** 
  60:Drivers/STM32F3xx_HAL_Driver/Src/stm32f3xx_hal_uart.c ****     (#) For the UART Multiprocessor mode, initialize the UART registers
  61:Drivers/STM32F3xx_HAL_Driver/Src/stm32f3xx_hal_uart.c ****         by calling the HAL_MultiProcessor_Init() API.
  62:Drivers/STM32F3xx_HAL_Driver/Src/stm32f3xx_hal_uart.c **** 
  63:Drivers/STM32F3xx_HAL_Driver/Src/stm32f3xx_hal_uart.c ****     (#) For the UART RS485 Driver Enabled mode, initialize the UART registers
  64:Drivers/STM32F3xx_HAL_Driver/Src/stm32f3xx_hal_uart.c ****         by calling the HAL_RS485Ex_Init() API.
  65:Drivers/STM32F3xx_HAL_Driver/Src/stm32f3xx_hal_uart.c **** 
  66:Drivers/STM32F3xx_HAL_Driver/Src/stm32f3xx_hal_uart.c ****    [..]
  67:Drivers/STM32F3xx_HAL_Driver/Src/stm32f3xx_hal_uart.c ****     (@) These APIs(HAL_UART_Init(), HAL_HalfDuplex_Init(), HAL_MultiProcessor_Init(),
  68:Drivers/STM32F3xx_HAL_Driver/Src/stm32f3xx_hal_uart.c ****         also configure the low level Hardware GPIO, CLOCK, CORTEX...etc) by
  69:Drivers/STM32F3xx_HAL_Driver/Src/stm32f3xx_hal_uart.c ****         calling the customized HAL_UART_MspInit() API.
  70:Drivers/STM32F3xx_HAL_Driver/Src/stm32f3xx_hal_uart.c **** 
  71:Drivers/STM32F3xx_HAL_Driver/Src/stm32f3xx_hal_uart.c ****         Three operation modes are available within this driver :
  72:Drivers/STM32F3xx_HAL_Driver/Src/stm32f3xx_hal_uart.c **** 
  73:Drivers/STM32F3xx_HAL_Driver/Src/stm32f3xx_hal_uart.c ****      *** Polling mode IO operation ***
  74:Drivers/STM32F3xx_HAL_Driver/Src/stm32f3xx_hal_uart.c ****      =================================
  75:Drivers/STM32F3xx_HAL_Driver/Src/stm32f3xx_hal_uart.c ****      [..]
  76:Drivers/STM32F3xx_HAL_Driver/Src/stm32f3xx_hal_uart.c ****        (+) Send an amount of data in blocking mode using HAL_UART_Transmit()
  77:Drivers/STM32F3xx_HAL_Driver/Src/stm32f3xx_hal_uart.c ****        (+) Receive an amount of data in blocking mode using HAL_UART_Receive()
  78:Drivers/STM32F3xx_HAL_Driver/Src/stm32f3xx_hal_uart.c **** 
  79:Drivers/STM32F3xx_HAL_Driver/Src/stm32f3xx_hal_uart.c ****      *** Interrupt mode IO operation ***
  80:Drivers/STM32F3xx_HAL_Driver/Src/stm32f3xx_hal_uart.c ****      ===================================
  81:Drivers/STM32F3xx_HAL_Driver/Src/stm32f3xx_hal_uart.c ****      [..]
  82:Drivers/STM32F3xx_HAL_Driver/Src/stm32f3xx_hal_uart.c ****        (+) Send an amount of data in non blocking mode using HAL_UART_Transmit_IT()
  83:Drivers/STM32F3xx_HAL_Driver/Src/stm32f3xx_hal_uart.c ****        (+) At transmission end of half transfer HAL_UART_TxHalfCpltCallback is executed and user ca
  84:Drivers/STM32F3xx_HAL_Driver/Src/stm32f3xx_hal_uart.c ****             add his own code by customization of function pointer HAL_UART_TxHalfCpltCallback
  85:Drivers/STM32F3xx_HAL_Driver/Src/stm32f3xx_hal_uart.c ****        (+) At transmission end of transfer HAL_UART_TxCpltCallback is executed and user can
  86:Drivers/STM32F3xx_HAL_Driver/Src/stm32f3xx_hal_uart.c ****             add his own code by customization of function pointer HAL_UART_TxCpltCallback
  87:Drivers/STM32F3xx_HAL_Driver/Src/stm32f3xx_hal_uart.c ****        (+) Receive an amount of data in non blocking mode using HAL_UART_Receive_IT()
ARM GAS  /var/folders/0z/_3zh0q697778kwks4bv8s9bh0000gn/T//ccPzatuz.s 			page 3


  88:Drivers/STM32F3xx_HAL_Driver/Src/stm32f3xx_hal_uart.c ****        (+) At reception end of half transfer HAL_UART_RxHalfCpltCallback is executed and user can
  89:Drivers/STM32F3xx_HAL_Driver/Src/stm32f3xx_hal_uart.c ****             add his own code by customization of function pointer HAL_UART_RxHalfCpltCallback
  90:Drivers/STM32F3xx_HAL_Driver/Src/stm32f3xx_hal_uart.c ****        (+) At reception end of transfer HAL_UART_RxCpltCallback is executed and user can
  91:Drivers/STM32F3xx_HAL_Driver/Src/stm32f3xx_hal_uart.c ****             add his own code by customization of function pointer HAL_UART_RxCpltCallback
  92:Drivers/STM32F3xx_HAL_Driver/Src/stm32f3xx_hal_uart.c ****        (+) In case of transfer Error, HAL_UART_ErrorCallback() function is executed and user can
  93:Drivers/STM32F3xx_HAL_Driver/Src/stm32f3xx_hal_uart.c ****             add his own code by customization of function pointer HAL_UART_ErrorCallback
  94:Drivers/STM32F3xx_HAL_Driver/Src/stm32f3xx_hal_uart.c **** 
  95:Drivers/STM32F3xx_HAL_Driver/Src/stm32f3xx_hal_uart.c ****      *** DMA mode IO operation ***
  96:Drivers/STM32F3xx_HAL_Driver/Src/stm32f3xx_hal_uart.c ****      ==============================
  97:Drivers/STM32F3xx_HAL_Driver/Src/stm32f3xx_hal_uart.c ****      [..]
  98:Drivers/STM32F3xx_HAL_Driver/Src/stm32f3xx_hal_uart.c ****        (+) Send an amount of data in non blocking mode (DMA) using HAL_UART_Transmit_DMA()
  99:Drivers/STM32F3xx_HAL_Driver/Src/stm32f3xx_hal_uart.c ****        (+) At transmission end of half transfer HAL_UART_TxHalfCpltCallback is executed and user ca
 100:Drivers/STM32F3xx_HAL_Driver/Src/stm32f3xx_hal_uart.c ****             add his own code by customization of function pointer HAL_UART_TxHalfCpltCallback
 101:Drivers/STM32F3xx_HAL_Driver/Src/stm32f3xx_hal_uart.c ****        (+) At transmission end of transfer HAL_UART_TxCpltCallback is executed and user can
 102:Drivers/STM32F3xx_HAL_Driver/Src/stm32f3xx_hal_uart.c ****             add his own code by customization of function pointer HAL_UART_TxCpltCallback
 103:Drivers/STM32F3xx_HAL_Driver/Src/stm32f3xx_hal_uart.c ****        (+) Receive an amount of data in non blocking mode (DMA) using HAL_UART_Receive_DMA()
 104:Drivers/STM32F3xx_HAL_Driver/Src/stm32f3xx_hal_uart.c ****        (+) At reception end of half transfer HAL_UART_RxHalfCpltCallback is executed and user can
 105:Drivers/STM32F3xx_HAL_Driver/Src/stm32f3xx_hal_uart.c ****             add his own code by customization of function pointer HAL_UART_RxHalfCpltCallback
 106:Drivers/STM32F3xx_HAL_Driver/Src/stm32f3xx_hal_uart.c ****        (+) At reception end of transfer HAL_UART_RxCpltCallback is executed and user can
 107:Drivers/STM32F3xx_HAL_Driver/Src/stm32f3xx_hal_uart.c ****             add his own code by customization of function pointer HAL_UART_RxCpltCallback
 108:Drivers/STM32F3xx_HAL_Driver/Src/stm32f3xx_hal_uart.c ****        (+) In case of transfer Error, HAL_UART_ErrorCallback() function is executed and user can
 109:Drivers/STM32F3xx_HAL_Driver/Src/stm32f3xx_hal_uart.c ****             add his own code by customization of function pointer HAL_UART_ErrorCallback
 110:Drivers/STM32F3xx_HAL_Driver/Src/stm32f3xx_hal_uart.c ****        (+) Pause the DMA Transfer using HAL_UART_DMAPause()
 111:Drivers/STM32F3xx_HAL_Driver/Src/stm32f3xx_hal_uart.c ****        (+) Resume the DMA Transfer using HAL_UART_DMAResume()
 112:Drivers/STM32F3xx_HAL_Driver/Src/stm32f3xx_hal_uart.c ****        (+) Stop the DMA Transfer using HAL_UART_DMAStop()
 113:Drivers/STM32F3xx_HAL_Driver/Src/stm32f3xx_hal_uart.c **** 
 114:Drivers/STM32F3xx_HAL_Driver/Src/stm32f3xx_hal_uart.c ****      *** UART HAL driver macros list ***
 115:Drivers/STM32F3xx_HAL_Driver/Src/stm32f3xx_hal_uart.c ****      =============================================
 116:Drivers/STM32F3xx_HAL_Driver/Src/stm32f3xx_hal_uart.c ****      [..]
 117:Drivers/STM32F3xx_HAL_Driver/Src/stm32f3xx_hal_uart.c ****        Below the list of most used macros in UART HAL driver.
 118:Drivers/STM32F3xx_HAL_Driver/Src/stm32f3xx_hal_uart.c **** 
 119:Drivers/STM32F3xx_HAL_Driver/Src/stm32f3xx_hal_uart.c ****       (+) __HAL_UART_ENABLE: Enable the UART peripheral
 120:Drivers/STM32F3xx_HAL_Driver/Src/stm32f3xx_hal_uart.c ****       (+) __HAL_UART_DISABLE: Disable the UART peripheral
 121:Drivers/STM32F3xx_HAL_Driver/Src/stm32f3xx_hal_uart.c ****       (+) __HAL_UART_GET_FLAG : Check whether the specified UART flag is set or not
 122:Drivers/STM32F3xx_HAL_Driver/Src/stm32f3xx_hal_uart.c ****       (+) __HAL_UART_CLEAR_FLAG : Clear the specified UART pending flag
 123:Drivers/STM32F3xx_HAL_Driver/Src/stm32f3xx_hal_uart.c ****       (+) __HAL_UART_ENABLE_IT: Enable the specified UART interrupt
 124:Drivers/STM32F3xx_HAL_Driver/Src/stm32f3xx_hal_uart.c ****       (+) __HAL_UART_DISABLE_IT: Disable the specified UART interrupt
 125:Drivers/STM32F3xx_HAL_Driver/Src/stm32f3xx_hal_uart.c **** 
 126:Drivers/STM32F3xx_HAL_Driver/Src/stm32f3xx_hal_uart.c ****      [..]
 127:Drivers/STM32F3xx_HAL_Driver/Src/stm32f3xx_hal_uart.c ****        (@) You can refer to the UART HAL driver header file for more useful macros
 128:Drivers/STM32F3xx_HAL_Driver/Src/stm32f3xx_hal_uart.c **** 
 129:Drivers/STM32F3xx_HAL_Driver/Src/stm32f3xx_hal_uart.c ****   @endverbatim
 130:Drivers/STM32F3xx_HAL_Driver/Src/stm32f3xx_hal_uart.c ****   ******************************************************************************
 131:Drivers/STM32F3xx_HAL_Driver/Src/stm32f3xx_hal_uart.c ****   * @attention
 132:Drivers/STM32F3xx_HAL_Driver/Src/stm32f3xx_hal_uart.c ****   *
 133:Drivers/STM32F3xx_HAL_Driver/Src/stm32f3xx_hal_uart.c ****   * <h2><center>&copy; COPYRIGHT(c) 2016 STMicroelectronics</center></h2>
 134:Drivers/STM32F3xx_HAL_Driver/Src/stm32f3xx_hal_uart.c ****   *
 135:Drivers/STM32F3xx_HAL_Driver/Src/stm32f3xx_hal_uart.c ****   * Redistribution and use in source and binary forms, with or without modification,
 136:Drivers/STM32F3xx_HAL_Driver/Src/stm32f3xx_hal_uart.c ****   * are permitted provided that the following conditions are met:
 137:Drivers/STM32F3xx_HAL_Driver/Src/stm32f3xx_hal_uart.c ****   *   1. Redistributions of source code must retain the above copyright notice,
 138:Drivers/STM32F3xx_HAL_Driver/Src/stm32f3xx_hal_uart.c ****   *      this list of conditions and the following disclaimer.
 139:Drivers/STM32F3xx_HAL_Driver/Src/stm32f3xx_hal_uart.c ****   *   2. Redistributions in binary form must reproduce the above copyright notice,
 140:Drivers/STM32F3xx_HAL_Driver/Src/stm32f3xx_hal_uart.c ****   *      this list of conditions and the following disclaimer in the documentation
 141:Drivers/STM32F3xx_HAL_Driver/Src/stm32f3xx_hal_uart.c ****   *      and/or other materials provided with the distribution.
 142:Drivers/STM32F3xx_HAL_Driver/Src/stm32f3xx_hal_uart.c ****   *   3. Neither the name of STMicroelectronics nor the names of its contributors
 143:Drivers/STM32F3xx_HAL_Driver/Src/stm32f3xx_hal_uart.c ****   *      may be used to endorse or promote products derived from this software
 144:Drivers/STM32F3xx_HAL_Driver/Src/stm32f3xx_hal_uart.c ****   *      without specific prior written permission.
ARM GAS  /var/folders/0z/_3zh0q697778kwks4bv8s9bh0000gn/T//ccPzatuz.s 			page 4


 145:Drivers/STM32F3xx_HAL_Driver/Src/stm32f3xx_hal_uart.c ****   *
 146:Drivers/STM32F3xx_HAL_Driver/Src/stm32f3xx_hal_uart.c ****   * THIS SOFTWARE IS PROVIDED BY THE COPYRIGHT HOLDERS AND CONTRIBUTORS "AS IS"
 147:Drivers/STM32F3xx_HAL_Driver/Src/stm32f3xx_hal_uart.c ****   * AND ANY EXPRESS OR IMPLIED WARRANTIES, INCLUDING, BUT NOT LIMITED TO, THE
 148:Drivers/STM32F3xx_HAL_Driver/Src/stm32f3xx_hal_uart.c ****   * IMPLIED WARRANTIES OF MERCHANTABILITY AND FITNESS FOR A PARTICULAR PURPOSE ARE
 149:Drivers/STM32F3xx_HAL_Driver/Src/stm32f3xx_hal_uart.c ****   * DISCLAIMED. IN NO EVENT SHALL THE COPYRIGHT HOLDER OR CONTRIBUTORS BE LIABLE
 150:Drivers/STM32F3xx_HAL_Driver/Src/stm32f3xx_hal_uart.c ****   * FOR ANY DIRECT, INDIRECT, INCIDENTAL, SPECIAL, EXEMPLARY, OR CONSEQUENTIAL
 151:Drivers/STM32F3xx_HAL_Driver/Src/stm32f3xx_hal_uart.c ****   * DAMAGES (INCLUDING, BUT NOT LIMITED TO, PROCUREMENT OF SUBSTITUTE GOODS OR
 152:Drivers/STM32F3xx_HAL_Driver/Src/stm32f3xx_hal_uart.c ****   * SERVICES; LOSS OF USE, DATA, OR PROFITS; OR BUSINESS INTERRUPTION) HOWEVER
 153:Drivers/STM32F3xx_HAL_Driver/Src/stm32f3xx_hal_uart.c ****   * CAUSED AND ON ANY THEORY OF LIABILITY, WHETHER IN CONTRACT, STRICT LIABILITY,
 154:Drivers/STM32F3xx_HAL_Driver/Src/stm32f3xx_hal_uart.c ****   * OR TORT (INCLUDING NEGLIGENCE OR OTHERWISE) ARISING IN ANY WAY OUT OF THE USE
 155:Drivers/STM32F3xx_HAL_Driver/Src/stm32f3xx_hal_uart.c ****   * OF THIS SOFTWARE, EVEN IF ADVISED OF THE POSSIBILITY OF SUCH DAMAGE.
 156:Drivers/STM32F3xx_HAL_Driver/Src/stm32f3xx_hal_uart.c ****   *
 157:Drivers/STM32F3xx_HAL_Driver/Src/stm32f3xx_hal_uart.c ****   ******************************************************************************
 158:Drivers/STM32F3xx_HAL_Driver/Src/stm32f3xx_hal_uart.c ****   */
 159:Drivers/STM32F3xx_HAL_Driver/Src/stm32f3xx_hal_uart.c **** 
 160:Drivers/STM32F3xx_HAL_Driver/Src/stm32f3xx_hal_uart.c **** /* Includes ------------------------------------------------------------------*/
 161:Drivers/STM32F3xx_HAL_Driver/Src/stm32f3xx_hal_uart.c **** #include "stm32f3xx_hal.h"
 162:Drivers/STM32F3xx_HAL_Driver/Src/stm32f3xx_hal_uart.c **** 
 163:Drivers/STM32F3xx_HAL_Driver/Src/stm32f3xx_hal_uart.c **** /** @addtogroup STM32F3xx_HAL_Driver
 164:Drivers/STM32F3xx_HAL_Driver/Src/stm32f3xx_hal_uart.c ****   * @{
 165:Drivers/STM32F3xx_HAL_Driver/Src/stm32f3xx_hal_uart.c ****   */
 166:Drivers/STM32F3xx_HAL_Driver/Src/stm32f3xx_hal_uart.c **** 
 167:Drivers/STM32F3xx_HAL_Driver/Src/stm32f3xx_hal_uart.c **** /** @defgroup UART UART
 168:Drivers/STM32F3xx_HAL_Driver/Src/stm32f3xx_hal_uart.c ****   * @brief UART HAL module driver
 169:Drivers/STM32F3xx_HAL_Driver/Src/stm32f3xx_hal_uart.c ****   * @{
 170:Drivers/STM32F3xx_HAL_Driver/Src/stm32f3xx_hal_uart.c ****   */
 171:Drivers/STM32F3xx_HAL_Driver/Src/stm32f3xx_hal_uart.c **** 
 172:Drivers/STM32F3xx_HAL_Driver/Src/stm32f3xx_hal_uart.c **** #ifdef HAL_UART_MODULE_ENABLED
 173:Drivers/STM32F3xx_HAL_Driver/Src/stm32f3xx_hal_uart.c **** 
 174:Drivers/STM32F3xx_HAL_Driver/Src/stm32f3xx_hal_uart.c **** /* Private typedef -----------------------------------------------------------*/
 175:Drivers/STM32F3xx_HAL_Driver/Src/stm32f3xx_hal_uart.c **** /* Private define ------------------------------------------------------------*/
 176:Drivers/STM32F3xx_HAL_Driver/Src/stm32f3xx_hal_uart.c **** /** @defgroup UART_Private_Constants UART Private Constants
 177:Drivers/STM32F3xx_HAL_Driver/Src/stm32f3xx_hal_uart.c ****   * @{
 178:Drivers/STM32F3xx_HAL_Driver/Src/stm32f3xx_hal_uart.c ****   */
 179:Drivers/STM32F3xx_HAL_Driver/Src/stm32f3xx_hal_uart.c **** #define UART_TEACK_REACK_TIMEOUT ((uint32_t) 1000)              /*!< UART TX or RX enable acknowled
 180:Drivers/STM32F3xx_HAL_Driver/Src/stm32f3xx_hal_uart.c **** #define UART_CR1_FIELDS  ((uint32_t)(USART_CR1_M | USART_CR1_PCE | USART_CR1_PS | \
 181:Drivers/STM32F3xx_HAL_Driver/Src/stm32f3xx_hal_uart.c ****                                      USART_CR1_TE | USART_CR1_RE | USART_CR1_OVER8)) /*!< UART or U
 182:Drivers/STM32F3xx_HAL_Driver/Src/stm32f3xx_hal_uart.c **** /**
 183:Drivers/STM32F3xx_HAL_Driver/Src/stm32f3xx_hal_uart.c ****   * @}
 184:Drivers/STM32F3xx_HAL_Driver/Src/stm32f3xx_hal_uart.c ****   */
 185:Drivers/STM32F3xx_HAL_Driver/Src/stm32f3xx_hal_uart.c **** 
 186:Drivers/STM32F3xx_HAL_Driver/Src/stm32f3xx_hal_uart.c **** /* Private macros ------------------------------------------------------------*/
 187:Drivers/STM32F3xx_HAL_Driver/Src/stm32f3xx_hal_uart.c **** /* Private variables ---------------------------------------------------------*/
 188:Drivers/STM32F3xx_HAL_Driver/Src/stm32f3xx_hal_uart.c **** /* Private function prototypes -----------------------------------------------*/
 189:Drivers/STM32F3xx_HAL_Driver/Src/stm32f3xx_hal_uart.c **** /** @addtogroup UART_Private_Functions   UART Private Functions
 190:Drivers/STM32F3xx_HAL_Driver/Src/stm32f3xx_hal_uart.c ****   * @{
 191:Drivers/STM32F3xx_HAL_Driver/Src/stm32f3xx_hal_uart.c ****   */
 192:Drivers/STM32F3xx_HAL_Driver/Src/stm32f3xx_hal_uart.c **** static void UART_DMATransmitCplt(DMA_HandleTypeDef *hdma);
 193:Drivers/STM32F3xx_HAL_Driver/Src/stm32f3xx_hal_uart.c **** static void UART_DMATxHalfCplt(DMA_HandleTypeDef *hdma);
 194:Drivers/STM32F3xx_HAL_Driver/Src/stm32f3xx_hal_uart.c **** static void UART_DMAReceiveCplt(DMA_HandleTypeDef *hdma);
 195:Drivers/STM32F3xx_HAL_Driver/Src/stm32f3xx_hal_uart.c **** static void UART_DMARxHalfCplt(DMA_HandleTypeDef *hdma);
 196:Drivers/STM32F3xx_HAL_Driver/Src/stm32f3xx_hal_uart.c **** static void UART_DMAError(DMA_HandleTypeDef *hdma);
 197:Drivers/STM32F3xx_HAL_Driver/Src/stm32f3xx_hal_uart.c **** /**
 198:Drivers/STM32F3xx_HAL_Driver/Src/stm32f3xx_hal_uart.c ****   * @}
 199:Drivers/STM32F3xx_HAL_Driver/Src/stm32f3xx_hal_uart.c ****   */
 200:Drivers/STM32F3xx_HAL_Driver/Src/stm32f3xx_hal_uart.c **** 
 201:Drivers/STM32F3xx_HAL_Driver/Src/stm32f3xx_hal_uart.c **** /* Exported functions --------------------------------------------------------*/
ARM GAS  /var/folders/0z/_3zh0q697778kwks4bv8s9bh0000gn/T//ccPzatuz.s 			page 5


 202:Drivers/STM32F3xx_HAL_Driver/Src/stm32f3xx_hal_uart.c **** 
 203:Drivers/STM32F3xx_HAL_Driver/Src/stm32f3xx_hal_uart.c **** /** @defgroup UART_Exported_Functions UART Exported Functions
 204:Drivers/STM32F3xx_HAL_Driver/Src/stm32f3xx_hal_uart.c ****   * @{
 205:Drivers/STM32F3xx_HAL_Driver/Src/stm32f3xx_hal_uart.c ****   */
 206:Drivers/STM32F3xx_HAL_Driver/Src/stm32f3xx_hal_uart.c **** 
 207:Drivers/STM32F3xx_HAL_Driver/Src/stm32f3xx_hal_uart.c **** /** @defgroup UART_Exported_Functions_Group1 Initialization and de-initialization functions
 208:Drivers/STM32F3xx_HAL_Driver/Src/stm32f3xx_hal_uart.c ****   *  @brief    Initialization and Configuration functions
 209:Drivers/STM32F3xx_HAL_Driver/Src/stm32f3xx_hal_uart.c ****   *
 210:Drivers/STM32F3xx_HAL_Driver/Src/stm32f3xx_hal_uart.c **** @verbatim
 211:Drivers/STM32F3xx_HAL_Driver/Src/stm32f3xx_hal_uart.c **** ===============================================================================
 212:Drivers/STM32F3xx_HAL_Driver/Src/stm32f3xx_hal_uart.c ****             ##### Initialization and Configuration functions #####
 213:Drivers/STM32F3xx_HAL_Driver/Src/stm32f3xx_hal_uart.c ****  ===============================================================================
 214:Drivers/STM32F3xx_HAL_Driver/Src/stm32f3xx_hal_uart.c ****     [..]
 215:Drivers/STM32F3xx_HAL_Driver/Src/stm32f3xx_hal_uart.c ****     This subsection provides a set of functions allowing to initialize the USARTx or the UARTy
 216:Drivers/STM32F3xx_HAL_Driver/Src/stm32f3xx_hal_uart.c ****     in asynchronous mode.
 217:Drivers/STM32F3xx_HAL_Driver/Src/stm32f3xx_hal_uart.c ****       (+) For the asynchronous mode the parameters below can be configured:
 218:Drivers/STM32F3xx_HAL_Driver/Src/stm32f3xx_hal_uart.c ****         (++) Baud Rate
 219:Drivers/STM32F3xx_HAL_Driver/Src/stm32f3xx_hal_uart.c ****         (++) Word Length
 220:Drivers/STM32F3xx_HAL_Driver/Src/stm32f3xx_hal_uart.c ****         (++) Stop Bit
 221:Drivers/STM32F3xx_HAL_Driver/Src/stm32f3xx_hal_uart.c ****         (++) Parity
 222:Drivers/STM32F3xx_HAL_Driver/Src/stm32f3xx_hal_uart.c ****         (++) Hardware flow control
 223:Drivers/STM32F3xx_HAL_Driver/Src/stm32f3xx_hal_uart.c ****         (++) Receiver/transmitter modes
 224:Drivers/STM32F3xx_HAL_Driver/Src/stm32f3xx_hal_uart.c ****         (++) Over Sampling Method
 225:Drivers/STM32F3xx_HAL_Driver/Src/stm32f3xx_hal_uart.c ****         (++) One-Bit Sampling Method
 226:Drivers/STM32F3xx_HAL_Driver/Src/stm32f3xx_hal_uart.c ****       (+) For the asynchronous mode, the following advanced features can be configured as well:
 227:Drivers/STM32F3xx_HAL_Driver/Src/stm32f3xx_hal_uart.c ****         (++) TX and/or RX pin level inversion
 228:Drivers/STM32F3xx_HAL_Driver/Src/stm32f3xx_hal_uart.c ****         (++) data logical level inversion
 229:Drivers/STM32F3xx_HAL_Driver/Src/stm32f3xx_hal_uart.c ****         (++) RX and TX pins swap
 230:Drivers/STM32F3xx_HAL_Driver/Src/stm32f3xx_hal_uart.c ****         (++) RX overrun detection disabling
 231:Drivers/STM32F3xx_HAL_Driver/Src/stm32f3xx_hal_uart.c ****         (++) DMA disabling on RX error
 232:Drivers/STM32F3xx_HAL_Driver/Src/stm32f3xx_hal_uart.c ****         (++) MSB first on communication line
 233:Drivers/STM32F3xx_HAL_Driver/Src/stm32f3xx_hal_uart.c ****         (++) auto Baud rate detection
 234:Drivers/STM32F3xx_HAL_Driver/Src/stm32f3xx_hal_uart.c ****     [..]
 235:Drivers/STM32F3xx_HAL_Driver/Src/stm32f3xx_hal_uart.c ****     The HAL_UART_Init(), HAL_HalfDuplex_Init(), HAL_LIN_Init() and HAL_MultiProcessor_Init()
 236:Drivers/STM32F3xx_HAL_Driver/Src/stm32f3xx_hal_uart.c ****     API follow respectively the UART asynchronous, UART Half duplex, UART LIN mode and
 237:Drivers/STM32F3xx_HAL_Driver/Src/stm32f3xx_hal_uart.c ****     multiprocessor configuration procedures (details for the procedures are available in reference 
 238:Drivers/STM32F3xx_HAL_Driver/Src/stm32f3xx_hal_uart.c **** 
 239:Drivers/STM32F3xx_HAL_Driver/Src/stm32f3xx_hal_uart.c **** @endverbatim
 240:Drivers/STM32F3xx_HAL_Driver/Src/stm32f3xx_hal_uart.c ****   * @{
 241:Drivers/STM32F3xx_HAL_Driver/Src/stm32f3xx_hal_uart.c ****   */
 242:Drivers/STM32F3xx_HAL_Driver/Src/stm32f3xx_hal_uart.c **** 
 243:Drivers/STM32F3xx_HAL_Driver/Src/stm32f3xx_hal_uart.c **** /*
 244:Drivers/STM32F3xx_HAL_Driver/Src/stm32f3xx_hal_uart.c ****   Additional Table: If the parity is enabled, then the MSB bit of the data written
 245:Drivers/STM32F3xx_HAL_Driver/Src/stm32f3xx_hal_uart.c ****                     in the data register is transmitted but is changed by the parity bit.
 246:Drivers/STM32F3xx_HAL_Driver/Src/stm32f3xx_hal_uart.c ****                     According to device capability (support or not of 7-bit word length),
 247:Drivers/STM32F3xx_HAL_Driver/Src/stm32f3xx_hal_uart.c ****                     frame length is either defined by the M bit (8-bits or 9-bits)
 248:Drivers/STM32F3xx_HAL_Driver/Src/stm32f3xx_hal_uart.c ****                     or by the M1 and M0 bits (7-bit, 8-bit or 9-bit).
 249:Drivers/STM32F3xx_HAL_Driver/Src/stm32f3xx_hal_uart.c ****                     Possible UART frame formats are as listed in the following table:
 250:Drivers/STM32F3xx_HAL_Driver/Src/stm32f3xx_hal_uart.c **** 
 251:Drivers/STM32F3xx_HAL_Driver/Src/stm32f3xx_hal_uart.c ****       Table 1. UART frame format.             
 252:Drivers/STM32F3xx_HAL_Driver/Src/stm32f3xx_hal_uart.c ****       +-----------------------------------------------------------------------+
 253:Drivers/STM32F3xx_HAL_Driver/Src/stm32f3xx_hal_uart.c ****       |       M bit       |  PCE bit  |             UART frame                |
 254:Drivers/STM32F3xx_HAL_Driver/Src/stm32f3xx_hal_uart.c ****       |-------------------|-----------|---------------------------------------|
 255:Drivers/STM32F3xx_HAL_Driver/Src/stm32f3xx_hal_uart.c ****       |         0         |     0     |    | SB |    8-bit data   | STB |     |
 256:Drivers/STM32F3xx_HAL_Driver/Src/stm32f3xx_hal_uart.c ****       |-------------------|-----------|---------------------------------------|
 257:Drivers/STM32F3xx_HAL_Driver/Src/stm32f3xx_hal_uart.c ****       |         0         |     1     |    | SB | 7-bit data | PB | STB |     |
 258:Drivers/STM32F3xx_HAL_Driver/Src/stm32f3xx_hal_uart.c ****       |-------------------|-----------|---------------------------------------|
ARM GAS  /var/folders/0z/_3zh0q697778kwks4bv8s9bh0000gn/T//ccPzatuz.s 			page 6


 259:Drivers/STM32F3xx_HAL_Driver/Src/stm32f3xx_hal_uart.c ****       |         1         |     0     |    | SB |    9-bit data   | STB |     |
 260:Drivers/STM32F3xx_HAL_Driver/Src/stm32f3xx_hal_uart.c ****       |-------------------|-----------|---------------------------------------|
 261:Drivers/STM32F3xx_HAL_Driver/Src/stm32f3xx_hal_uart.c ****       |         1         |     1     |    | SB | 8-bit data | PB | STB |     |
 262:Drivers/STM32F3xx_HAL_Driver/Src/stm32f3xx_hal_uart.c ****       +-----------------------------------------------------------------------+
 263:Drivers/STM32F3xx_HAL_Driver/Src/stm32f3xx_hal_uart.c ****       |  M1 bit |  M0 bit |  PCE bit  |             UART frame                |
 264:Drivers/STM32F3xx_HAL_Driver/Src/stm32f3xx_hal_uart.c ****       |---------|---------|-----------|---------------------------------------|
 265:Drivers/STM32F3xx_HAL_Driver/Src/stm32f3xx_hal_uart.c ****       |    0    |    0    |     0     |    | SB |    8 bit data   | STB |     |
 266:Drivers/STM32F3xx_HAL_Driver/Src/stm32f3xx_hal_uart.c ****       |---------|---------|-----------|---------------------------------------|
 267:Drivers/STM32F3xx_HAL_Driver/Src/stm32f3xx_hal_uart.c ****       |    0    |    0    |     1     |    | SB | 7 bit data | PB | STB |     |
 268:Drivers/STM32F3xx_HAL_Driver/Src/stm32f3xx_hal_uart.c ****       |---------|---------|-----------|---------------------------------------|
 269:Drivers/STM32F3xx_HAL_Driver/Src/stm32f3xx_hal_uart.c ****       |    0    |    1    |     0     |    | SB |    9 bit data   | STB |     |
 270:Drivers/STM32F3xx_HAL_Driver/Src/stm32f3xx_hal_uart.c ****       |---------|---------|-----------|---------------------------------------|
 271:Drivers/STM32F3xx_HAL_Driver/Src/stm32f3xx_hal_uart.c ****       |    0    |    1    |     1     |    | SB | 8 bit data | PB | STB |     |
 272:Drivers/STM32F3xx_HAL_Driver/Src/stm32f3xx_hal_uart.c ****       |---------|---------|-----------|---------------------------------------|
 273:Drivers/STM32F3xx_HAL_Driver/Src/stm32f3xx_hal_uart.c ****       |    1    |    0    |     0     |    | SB |    7 bit data   | STB |     |
 274:Drivers/STM32F3xx_HAL_Driver/Src/stm32f3xx_hal_uart.c ****       |---------|---------|-----------|---------------------------------------|
 275:Drivers/STM32F3xx_HAL_Driver/Src/stm32f3xx_hal_uart.c ****       |    1    |    0    |     1     |    | SB | 6 bit data | PB | STB |     |
 276:Drivers/STM32F3xx_HAL_Driver/Src/stm32f3xx_hal_uart.c ****       +-----------------------------------------------------------------------+
 277:Drivers/STM32F3xx_HAL_Driver/Src/stm32f3xx_hal_uart.c **** 
 278:Drivers/STM32F3xx_HAL_Driver/Src/stm32f3xx_hal_uart.c **** */
 279:Drivers/STM32F3xx_HAL_Driver/Src/stm32f3xx_hal_uart.c **** 
 280:Drivers/STM32F3xx_HAL_Driver/Src/stm32f3xx_hal_uart.c **** /**
 281:Drivers/STM32F3xx_HAL_Driver/Src/stm32f3xx_hal_uart.c ****   * @brief Initialize the UART mode according to the specified
 282:Drivers/STM32F3xx_HAL_Driver/Src/stm32f3xx_hal_uart.c ****   *        parameters in the UART_InitTypeDef and initialize the associated handle.
 283:Drivers/STM32F3xx_HAL_Driver/Src/stm32f3xx_hal_uart.c ****   * @param huart: UART handle.
 284:Drivers/STM32F3xx_HAL_Driver/Src/stm32f3xx_hal_uart.c ****   * @retval HAL status
 285:Drivers/STM32F3xx_HAL_Driver/Src/stm32f3xx_hal_uart.c ****   */
 286:Drivers/STM32F3xx_HAL_Driver/Src/stm32f3xx_hal_uart.c **** HAL_StatusTypeDef HAL_UART_Init(UART_HandleTypeDef *huart)
 287:Drivers/STM32F3xx_HAL_Driver/Src/stm32f3xx_hal_uart.c **** {
  29              		.loc 1 287 0
  30              		.cfi_startproc
  31              		@ args = 0, pretend = 0, frame = 8
  32              		@ frame_needed = 1, uses_anonymous_args = 0
  33 0000 80B5     		push	{r7, lr}
  34              	.LCFI0:
  35              		.cfi_def_cfa_offset 8
  36              		.cfi_offset 7, -8
  37              		.cfi_offset 14, -4
  38 0002 82B0     		sub	sp, sp, #8
  39              	.LCFI1:
  40              		.cfi_def_cfa_offset 16
  41 0004 00AF     		add	r7, sp, #0
  42              	.LCFI2:
  43              		.cfi_def_cfa_register 7
  44 0006 7860     		str	r0, [r7, #4]
 288:Drivers/STM32F3xx_HAL_Driver/Src/stm32f3xx_hal_uart.c ****   /* Check the UART handle allocation */
 289:Drivers/STM32F3xx_HAL_Driver/Src/stm32f3xx_hal_uart.c ****   if(huart == NULL)
  45              		.loc 1 289 0
  46 0008 7B68     		ldr	r3, [r7, #4]
  47 000a 002B     		cmp	r3, #0
  48 000c 01D1     		bne	.L2
 290:Drivers/STM32F3xx_HAL_Driver/Src/stm32f3xx_hal_uart.c ****   {
 291:Drivers/STM32F3xx_HAL_Driver/Src/stm32f3xx_hal_uart.c ****     return HAL_ERROR;
  49              		.loc 1 291 0
  50 000e 0123     		movs	r3, #1
  51 0010 43E0     		b	.L3
  52              	.L2:
ARM GAS  /var/folders/0z/_3zh0q697778kwks4bv8s9bh0000gn/T//ccPzatuz.s 			page 7


 292:Drivers/STM32F3xx_HAL_Driver/Src/stm32f3xx_hal_uart.c ****   }
 293:Drivers/STM32F3xx_HAL_Driver/Src/stm32f3xx_hal_uart.c **** 
 294:Drivers/STM32F3xx_HAL_Driver/Src/stm32f3xx_hal_uart.c ****   if(huart->Init.HwFlowCtl != UART_HWCONTROL_NONE)
 295:Drivers/STM32F3xx_HAL_Driver/Src/stm32f3xx_hal_uart.c ****   {
 296:Drivers/STM32F3xx_HAL_Driver/Src/stm32f3xx_hal_uart.c ****     /* Check the parameters */
 297:Drivers/STM32F3xx_HAL_Driver/Src/stm32f3xx_hal_uart.c ****     assert_param(IS_UART_HWFLOW_INSTANCE(huart->Instance));
 298:Drivers/STM32F3xx_HAL_Driver/Src/stm32f3xx_hal_uart.c ****   }
 299:Drivers/STM32F3xx_HAL_Driver/Src/stm32f3xx_hal_uart.c ****   else
 300:Drivers/STM32F3xx_HAL_Driver/Src/stm32f3xx_hal_uart.c ****   {
 301:Drivers/STM32F3xx_HAL_Driver/Src/stm32f3xx_hal_uart.c ****     /* Check the parameters */
 302:Drivers/STM32F3xx_HAL_Driver/Src/stm32f3xx_hal_uart.c ****     assert_param(IS_UART_INSTANCE(huart->Instance));
 303:Drivers/STM32F3xx_HAL_Driver/Src/stm32f3xx_hal_uart.c ****   }
 304:Drivers/STM32F3xx_HAL_Driver/Src/stm32f3xx_hal_uart.c **** 
 305:Drivers/STM32F3xx_HAL_Driver/Src/stm32f3xx_hal_uart.c ****   if(huart->gState == HAL_UART_STATE_RESET)
  53              		.loc 1 305 0
  54 0012 7B68     		ldr	r3, [r7, #4]
  55 0014 93F86930 		ldrb	r3, [r3, #105]
  56 0018 DBB2     		uxtb	r3, r3
  57 001a 002B     		cmp	r3, #0
  58 001c 06D1     		bne	.L4
 306:Drivers/STM32F3xx_HAL_Driver/Src/stm32f3xx_hal_uart.c ****   {
 307:Drivers/STM32F3xx_HAL_Driver/Src/stm32f3xx_hal_uart.c ****     /* Allocate lock resource and initialize it */
 308:Drivers/STM32F3xx_HAL_Driver/Src/stm32f3xx_hal_uart.c ****     huart->Lock = HAL_UNLOCKED;
  59              		.loc 1 308 0
  60 001e 7B68     		ldr	r3, [r7, #4]
  61 0020 0022     		movs	r2, #0
  62 0022 83F86820 		strb	r2, [r3, #104]
 309:Drivers/STM32F3xx_HAL_Driver/Src/stm32f3xx_hal_uart.c **** 
 310:Drivers/STM32F3xx_HAL_Driver/Src/stm32f3xx_hal_uart.c ****     /* Init the low level hardware : GPIO, CLOCK */
 311:Drivers/STM32F3xx_HAL_Driver/Src/stm32f3xx_hal_uart.c ****     HAL_UART_MspInit(huart);
  63              		.loc 1 311 0
  64 0026 7868     		ldr	r0, [r7, #4]
  65 0028 FFF7FEFF 		bl	HAL_UART_MspInit
  66              	.L4:
 312:Drivers/STM32F3xx_HAL_Driver/Src/stm32f3xx_hal_uart.c ****   }
 313:Drivers/STM32F3xx_HAL_Driver/Src/stm32f3xx_hal_uart.c **** 
 314:Drivers/STM32F3xx_HAL_Driver/Src/stm32f3xx_hal_uart.c ****   huart->gState = HAL_UART_STATE_BUSY;
  67              		.loc 1 314 0
  68 002c 7B68     		ldr	r3, [r7, #4]
  69 002e 2422     		movs	r2, #36
  70 0030 83F86920 		strb	r2, [r3, #105]
 315:Drivers/STM32F3xx_HAL_Driver/Src/stm32f3xx_hal_uart.c **** 
 316:Drivers/STM32F3xx_HAL_Driver/Src/stm32f3xx_hal_uart.c ****   /* Disable the Peripheral */
 317:Drivers/STM32F3xx_HAL_Driver/Src/stm32f3xx_hal_uart.c ****   __HAL_UART_DISABLE(huart);
  71              		.loc 1 317 0
  72 0034 7B68     		ldr	r3, [r7, #4]
  73 0036 1B68     		ldr	r3, [r3]
  74 0038 7A68     		ldr	r2, [r7, #4]
  75 003a 1268     		ldr	r2, [r2]
  76 003c 1268     		ldr	r2, [r2]
  77 003e 22F00102 		bic	r2, r2, #1
  78 0042 1A60     		str	r2, [r3]
 318:Drivers/STM32F3xx_HAL_Driver/Src/stm32f3xx_hal_uart.c **** 
 319:Drivers/STM32F3xx_HAL_Driver/Src/stm32f3xx_hal_uart.c ****   /* Set the UART Communication parameters */
 320:Drivers/STM32F3xx_HAL_Driver/Src/stm32f3xx_hal_uart.c ****   if (UART_SetConfig(huart) == HAL_ERROR)
  79              		.loc 1 320 0
  80 0044 7868     		ldr	r0, [r7, #4]
ARM GAS  /var/folders/0z/_3zh0q697778kwks4bv8s9bh0000gn/T//ccPzatuz.s 			page 8


  81 0046 FFF7FEFF 		bl	UART_SetConfig
  82 004a 0346     		mov	r3, r0
  83 004c 012B     		cmp	r3, #1
  84 004e 01D1     		bne	.L5
 321:Drivers/STM32F3xx_HAL_Driver/Src/stm32f3xx_hal_uart.c ****   {
 322:Drivers/STM32F3xx_HAL_Driver/Src/stm32f3xx_hal_uart.c ****     return HAL_ERROR;
  85              		.loc 1 322 0
  86 0050 0123     		movs	r3, #1
  87 0052 22E0     		b	.L3
  88              	.L5:
 323:Drivers/STM32F3xx_HAL_Driver/Src/stm32f3xx_hal_uart.c ****   }
 324:Drivers/STM32F3xx_HAL_Driver/Src/stm32f3xx_hal_uart.c **** 
 325:Drivers/STM32F3xx_HAL_Driver/Src/stm32f3xx_hal_uart.c ****   if (huart->AdvancedInit.AdvFeatureInit != UART_ADVFEATURE_NO_INIT)
  89              		.loc 1 325 0
  90 0054 7B68     		ldr	r3, [r7, #4]
  91 0056 5B6A     		ldr	r3, [r3, #36]
  92 0058 002B     		cmp	r3, #0
  93 005a 02D0     		beq	.L6
 326:Drivers/STM32F3xx_HAL_Driver/Src/stm32f3xx_hal_uart.c ****   {
 327:Drivers/STM32F3xx_HAL_Driver/Src/stm32f3xx_hal_uart.c ****     UART_AdvFeatureConfig(huart);
  94              		.loc 1 327 0
  95 005c 7868     		ldr	r0, [r7, #4]
  96 005e FFF7FEFF 		bl	UART_AdvFeatureConfig
  97              	.L6:
 328:Drivers/STM32F3xx_HAL_Driver/Src/stm32f3xx_hal_uart.c ****   }
 329:Drivers/STM32F3xx_HAL_Driver/Src/stm32f3xx_hal_uart.c **** 
 330:Drivers/STM32F3xx_HAL_Driver/Src/stm32f3xx_hal_uart.c ****   /* In asynchronous mode, the following bits must be kept cleared:
 331:Drivers/STM32F3xx_HAL_Driver/Src/stm32f3xx_hal_uart.c ****   - LINEN and CLKEN bits in the USART_CR2 register,
 332:Drivers/STM32F3xx_HAL_Driver/Src/stm32f3xx_hal_uart.c ****   - SCEN, HDSEL and IREN  bits in the USART_CR3 register.*/
 333:Drivers/STM32F3xx_HAL_Driver/Src/stm32f3xx_hal_uart.c ****   huart->Instance->CR2 &= ~(USART_CR2_LINEN | USART_CR2_CLKEN);
  98              		.loc 1 333 0
  99 0062 7B68     		ldr	r3, [r7, #4]
 100 0064 1B68     		ldr	r3, [r3]
 101 0066 7A68     		ldr	r2, [r7, #4]
 102 0068 1268     		ldr	r2, [r2]
 103 006a 5268     		ldr	r2, [r2, #4]
 104 006c 22F49042 		bic	r2, r2, #18432
 105 0070 5A60     		str	r2, [r3, #4]
 334:Drivers/STM32F3xx_HAL_Driver/Src/stm32f3xx_hal_uart.c ****   huart->Instance->CR3 &= ~(USART_CR3_SCEN | USART_CR3_HDSEL | USART_CR3_IREN);
 106              		.loc 1 334 0
 107 0072 7B68     		ldr	r3, [r7, #4]
 108 0074 1B68     		ldr	r3, [r3]
 109 0076 7A68     		ldr	r2, [r7, #4]
 110 0078 1268     		ldr	r2, [r2]
 111 007a 9268     		ldr	r2, [r2, #8]
 112 007c 22F02A02 		bic	r2, r2, #42
 113 0080 9A60     		str	r2, [r3, #8]
 335:Drivers/STM32F3xx_HAL_Driver/Src/stm32f3xx_hal_uart.c **** 
 336:Drivers/STM32F3xx_HAL_Driver/Src/stm32f3xx_hal_uart.c ****   /* Enable the Peripheral */
 337:Drivers/STM32F3xx_HAL_Driver/Src/stm32f3xx_hal_uart.c ****   __HAL_UART_ENABLE(huart);
 114              		.loc 1 337 0
 115 0082 7B68     		ldr	r3, [r7, #4]
 116 0084 1B68     		ldr	r3, [r3]
 117 0086 7A68     		ldr	r2, [r7, #4]
 118 0088 1268     		ldr	r2, [r2]
 119 008a 1268     		ldr	r2, [r2]
 120 008c 42F00102 		orr	r2, r2, #1
ARM GAS  /var/folders/0z/_3zh0q697778kwks4bv8s9bh0000gn/T//ccPzatuz.s 			page 9


 121 0090 1A60     		str	r2, [r3]
 338:Drivers/STM32F3xx_HAL_Driver/Src/stm32f3xx_hal_uart.c **** 
 339:Drivers/STM32F3xx_HAL_Driver/Src/stm32f3xx_hal_uart.c ****   /* TEACK and/or REACK to check before moving huart->gState and huart->RxState to Ready */
 340:Drivers/STM32F3xx_HAL_Driver/Src/stm32f3xx_hal_uart.c ****   return (UART_CheckIdleState(huart));
 122              		.loc 1 340 0
 123 0092 7868     		ldr	r0, [r7, #4]
 124 0094 FFF7FEFF 		bl	UART_CheckIdleState
 125 0098 0346     		mov	r3, r0
 126              	.L3:
 341:Drivers/STM32F3xx_HAL_Driver/Src/stm32f3xx_hal_uart.c **** }
 127              		.loc 1 341 0
 128 009a 1846     		mov	r0, r3
 129 009c 0837     		adds	r7, r7, #8
 130              	.LCFI3:
 131              		.cfi_def_cfa_offset 8
 132 009e BD46     		mov	sp, r7
 133              	.LCFI4:
 134              		.cfi_def_cfa_register 13
 135              		@ sp needed
 136 00a0 80BD     		pop	{r7, pc}
 137              		.cfi_endproc
 138              	.LFE123:
 140 00a2 00BF     		.section	.text.HAL_HalfDuplex_Init,"ax",%progbits
 141              		.align	2
 142              		.global	HAL_HalfDuplex_Init
 143              		.thumb
 144              		.thumb_func
 146              	HAL_HalfDuplex_Init:
 147              	.LFB124:
 342:Drivers/STM32F3xx_HAL_Driver/Src/stm32f3xx_hal_uart.c **** 
 343:Drivers/STM32F3xx_HAL_Driver/Src/stm32f3xx_hal_uart.c **** /**
 344:Drivers/STM32F3xx_HAL_Driver/Src/stm32f3xx_hal_uart.c ****   * @brief Initialize the half-duplex mode according to the specified
 345:Drivers/STM32F3xx_HAL_Driver/Src/stm32f3xx_hal_uart.c ****   *        parameters in the UART_InitTypeDef and creates the associated handle.
 346:Drivers/STM32F3xx_HAL_Driver/Src/stm32f3xx_hal_uart.c ****   * @param huart: UART handle.
 347:Drivers/STM32F3xx_HAL_Driver/Src/stm32f3xx_hal_uart.c ****   * @retval HAL status
 348:Drivers/STM32F3xx_HAL_Driver/Src/stm32f3xx_hal_uart.c ****   */
 349:Drivers/STM32F3xx_HAL_Driver/Src/stm32f3xx_hal_uart.c **** HAL_StatusTypeDef HAL_HalfDuplex_Init(UART_HandleTypeDef *huart)
 350:Drivers/STM32F3xx_HAL_Driver/Src/stm32f3xx_hal_uart.c **** {
 148              		.loc 1 350 0
 149              		.cfi_startproc
 150              		@ args = 0, pretend = 0, frame = 8
 151              		@ frame_needed = 1, uses_anonymous_args = 0
 152 0000 80B5     		push	{r7, lr}
 153              	.LCFI5:
 154              		.cfi_def_cfa_offset 8
 155              		.cfi_offset 7, -8
 156              		.cfi_offset 14, -4
 157 0002 82B0     		sub	sp, sp, #8
 158              	.LCFI6:
 159              		.cfi_def_cfa_offset 16
 160 0004 00AF     		add	r7, sp, #0
 161              	.LCFI7:
 162              		.cfi_def_cfa_register 7
 163 0006 7860     		str	r0, [r7, #4]
 351:Drivers/STM32F3xx_HAL_Driver/Src/stm32f3xx_hal_uart.c ****   /* Check the UART handle allocation */
 352:Drivers/STM32F3xx_HAL_Driver/Src/stm32f3xx_hal_uart.c ****   if(huart == NULL)
 164              		.loc 1 352 0
ARM GAS  /var/folders/0z/_3zh0q697778kwks4bv8s9bh0000gn/T//ccPzatuz.s 			page 10


 165 0008 7B68     		ldr	r3, [r7, #4]
 166 000a 002B     		cmp	r3, #0
 167 000c 01D1     		bne	.L8
 353:Drivers/STM32F3xx_HAL_Driver/Src/stm32f3xx_hal_uart.c ****   {
 354:Drivers/STM32F3xx_HAL_Driver/Src/stm32f3xx_hal_uart.c ****     return HAL_ERROR;
 168              		.loc 1 354 0
 169 000e 0123     		movs	r3, #1
 170 0010 4BE0     		b	.L9
 171              	.L8:
 355:Drivers/STM32F3xx_HAL_Driver/Src/stm32f3xx_hal_uart.c ****   }
 356:Drivers/STM32F3xx_HAL_Driver/Src/stm32f3xx_hal_uart.c **** 
 357:Drivers/STM32F3xx_HAL_Driver/Src/stm32f3xx_hal_uart.c ****   /* Check UART instance */
 358:Drivers/STM32F3xx_HAL_Driver/Src/stm32f3xx_hal_uart.c ****   assert_param(IS_UART_HALFDUPLEX_INSTANCE(huart->Instance));
 359:Drivers/STM32F3xx_HAL_Driver/Src/stm32f3xx_hal_uart.c **** 
 360:Drivers/STM32F3xx_HAL_Driver/Src/stm32f3xx_hal_uart.c ****   if(huart->gState == HAL_UART_STATE_RESET)
 172              		.loc 1 360 0
 173 0012 7B68     		ldr	r3, [r7, #4]
 174 0014 93F86930 		ldrb	r3, [r3, #105]
 175 0018 DBB2     		uxtb	r3, r3
 176 001a 002B     		cmp	r3, #0
 177 001c 06D1     		bne	.L10
 361:Drivers/STM32F3xx_HAL_Driver/Src/stm32f3xx_hal_uart.c ****   {
 362:Drivers/STM32F3xx_HAL_Driver/Src/stm32f3xx_hal_uart.c ****     /* Allocate lock resource and initialize it */
 363:Drivers/STM32F3xx_HAL_Driver/Src/stm32f3xx_hal_uart.c ****     huart->Lock = HAL_UNLOCKED;
 178              		.loc 1 363 0
 179 001e 7B68     		ldr	r3, [r7, #4]
 180 0020 0022     		movs	r2, #0
 181 0022 83F86820 		strb	r2, [r3, #104]
 364:Drivers/STM32F3xx_HAL_Driver/Src/stm32f3xx_hal_uart.c **** 
 365:Drivers/STM32F3xx_HAL_Driver/Src/stm32f3xx_hal_uart.c ****     /* Init the low level hardware : GPIO, CLOCK */
 366:Drivers/STM32F3xx_HAL_Driver/Src/stm32f3xx_hal_uart.c ****     HAL_UART_MspInit(huart);
 182              		.loc 1 366 0
 183 0026 7868     		ldr	r0, [r7, #4]
 184 0028 FFF7FEFF 		bl	HAL_UART_MspInit
 185              	.L10:
 367:Drivers/STM32F3xx_HAL_Driver/Src/stm32f3xx_hal_uart.c ****   }
 368:Drivers/STM32F3xx_HAL_Driver/Src/stm32f3xx_hal_uart.c **** 
 369:Drivers/STM32F3xx_HAL_Driver/Src/stm32f3xx_hal_uart.c ****   huart->gState = HAL_UART_STATE_BUSY;
 186              		.loc 1 369 0
 187 002c 7B68     		ldr	r3, [r7, #4]
 188 002e 2422     		movs	r2, #36
 189 0030 83F86920 		strb	r2, [r3, #105]
 370:Drivers/STM32F3xx_HAL_Driver/Src/stm32f3xx_hal_uart.c **** 
 371:Drivers/STM32F3xx_HAL_Driver/Src/stm32f3xx_hal_uart.c ****   /* Disable the Peripheral */
 372:Drivers/STM32F3xx_HAL_Driver/Src/stm32f3xx_hal_uart.c ****   __HAL_UART_DISABLE(huart);
 190              		.loc 1 372 0
 191 0034 7B68     		ldr	r3, [r7, #4]
 192 0036 1B68     		ldr	r3, [r3]
 193 0038 7A68     		ldr	r2, [r7, #4]
 194 003a 1268     		ldr	r2, [r2]
 195 003c 1268     		ldr	r2, [r2]
 196 003e 22F00102 		bic	r2, r2, #1
 197 0042 1A60     		str	r2, [r3]
 373:Drivers/STM32F3xx_HAL_Driver/Src/stm32f3xx_hal_uart.c **** 
 374:Drivers/STM32F3xx_HAL_Driver/Src/stm32f3xx_hal_uart.c ****   /* Set the UART Communication parameters */
 375:Drivers/STM32F3xx_HAL_Driver/Src/stm32f3xx_hal_uart.c ****   if (UART_SetConfig(huart) == HAL_ERROR)
 198              		.loc 1 375 0
ARM GAS  /var/folders/0z/_3zh0q697778kwks4bv8s9bh0000gn/T//ccPzatuz.s 			page 11


 199 0044 7868     		ldr	r0, [r7, #4]
 200 0046 FFF7FEFF 		bl	UART_SetConfig
 201 004a 0346     		mov	r3, r0
 202 004c 012B     		cmp	r3, #1
 203 004e 01D1     		bne	.L11
 376:Drivers/STM32F3xx_HAL_Driver/Src/stm32f3xx_hal_uart.c ****   {
 377:Drivers/STM32F3xx_HAL_Driver/Src/stm32f3xx_hal_uart.c ****     return HAL_ERROR;
 204              		.loc 1 377 0
 205 0050 0123     		movs	r3, #1
 206 0052 2AE0     		b	.L9
 207              	.L11:
 378:Drivers/STM32F3xx_HAL_Driver/Src/stm32f3xx_hal_uart.c ****   }
 379:Drivers/STM32F3xx_HAL_Driver/Src/stm32f3xx_hal_uart.c **** 
 380:Drivers/STM32F3xx_HAL_Driver/Src/stm32f3xx_hal_uart.c ****   if (huart->AdvancedInit.AdvFeatureInit != UART_ADVFEATURE_NO_INIT)
 208              		.loc 1 380 0
 209 0054 7B68     		ldr	r3, [r7, #4]
 210 0056 5B6A     		ldr	r3, [r3, #36]
 211 0058 002B     		cmp	r3, #0
 212 005a 02D0     		beq	.L12
 381:Drivers/STM32F3xx_HAL_Driver/Src/stm32f3xx_hal_uart.c ****   {
 382:Drivers/STM32F3xx_HAL_Driver/Src/stm32f3xx_hal_uart.c ****     UART_AdvFeatureConfig(huart);
 213              		.loc 1 382 0
 214 005c 7868     		ldr	r0, [r7, #4]
 215 005e FFF7FEFF 		bl	UART_AdvFeatureConfig
 216              	.L12:
 383:Drivers/STM32F3xx_HAL_Driver/Src/stm32f3xx_hal_uart.c ****   }
 384:Drivers/STM32F3xx_HAL_Driver/Src/stm32f3xx_hal_uart.c **** 
 385:Drivers/STM32F3xx_HAL_Driver/Src/stm32f3xx_hal_uart.c ****   /* In half-duplex mode, the following bits must be kept cleared:
 386:Drivers/STM32F3xx_HAL_Driver/Src/stm32f3xx_hal_uart.c ****   - LINEN and CLKEN bits in the USART_CR2 register,
 387:Drivers/STM32F3xx_HAL_Driver/Src/stm32f3xx_hal_uart.c ****   - SCEN and IREN bits in the USART_CR3 register.*/
 388:Drivers/STM32F3xx_HAL_Driver/Src/stm32f3xx_hal_uart.c ****   huart->Instance->CR2 &= ~(USART_CR2_LINEN | USART_CR2_CLKEN);
 217              		.loc 1 388 0
 218 0062 7B68     		ldr	r3, [r7, #4]
 219 0064 1B68     		ldr	r3, [r3]
 220 0066 7A68     		ldr	r2, [r7, #4]
 221 0068 1268     		ldr	r2, [r2]
 222 006a 5268     		ldr	r2, [r2, #4]
 223 006c 22F49042 		bic	r2, r2, #18432
 224 0070 5A60     		str	r2, [r3, #4]
 389:Drivers/STM32F3xx_HAL_Driver/Src/stm32f3xx_hal_uart.c ****   huart->Instance->CR3 &= ~(USART_CR3_IREN | USART_CR3_SCEN);
 225              		.loc 1 389 0
 226 0072 7B68     		ldr	r3, [r7, #4]
 227 0074 1B68     		ldr	r3, [r3]
 228 0076 7A68     		ldr	r2, [r7, #4]
 229 0078 1268     		ldr	r2, [r2]
 230 007a 9268     		ldr	r2, [r2, #8]
 231 007c 22F02202 		bic	r2, r2, #34
 232 0080 9A60     		str	r2, [r3, #8]
 390:Drivers/STM32F3xx_HAL_Driver/Src/stm32f3xx_hal_uart.c **** 
 391:Drivers/STM32F3xx_HAL_Driver/Src/stm32f3xx_hal_uart.c ****   /* Enable the Half-Duplex mode by setting the HDSEL bit in the CR3 register */
 392:Drivers/STM32F3xx_HAL_Driver/Src/stm32f3xx_hal_uart.c ****   huart->Instance->CR3 |= USART_CR3_HDSEL;
 233              		.loc 1 392 0
 234 0082 7B68     		ldr	r3, [r7, #4]
 235 0084 1B68     		ldr	r3, [r3]
 236 0086 7A68     		ldr	r2, [r7, #4]
 237 0088 1268     		ldr	r2, [r2]
 238 008a 9268     		ldr	r2, [r2, #8]
ARM GAS  /var/folders/0z/_3zh0q697778kwks4bv8s9bh0000gn/T//ccPzatuz.s 			page 12


 239 008c 42F00802 		orr	r2, r2, #8
 240 0090 9A60     		str	r2, [r3, #8]
 393:Drivers/STM32F3xx_HAL_Driver/Src/stm32f3xx_hal_uart.c **** 
 394:Drivers/STM32F3xx_HAL_Driver/Src/stm32f3xx_hal_uart.c ****   /* Enable the Peripheral */
 395:Drivers/STM32F3xx_HAL_Driver/Src/stm32f3xx_hal_uart.c ****   __HAL_UART_ENABLE(huart);
 241              		.loc 1 395 0
 242 0092 7B68     		ldr	r3, [r7, #4]
 243 0094 1B68     		ldr	r3, [r3]
 244 0096 7A68     		ldr	r2, [r7, #4]
 245 0098 1268     		ldr	r2, [r2]
 246 009a 1268     		ldr	r2, [r2]
 247 009c 42F00102 		orr	r2, r2, #1
 248 00a0 1A60     		str	r2, [r3]
 396:Drivers/STM32F3xx_HAL_Driver/Src/stm32f3xx_hal_uart.c **** 
 397:Drivers/STM32F3xx_HAL_Driver/Src/stm32f3xx_hal_uart.c ****   /* TEACK and/or REACK to check before moving huart->gState and huart->RxState to Ready */
 398:Drivers/STM32F3xx_HAL_Driver/Src/stm32f3xx_hal_uart.c ****   return (UART_CheckIdleState(huart));
 249              		.loc 1 398 0
 250 00a2 7868     		ldr	r0, [r7, #4]
 251 00a4 FFF7FEFF 		bl	UART_CheckIdleState
 252 00a8 0346     		mov	r3, r0
 253              	.L9:
 399:Drivers/STM32F3xx_HAL_Driver/Src/stm32f3xx_hal_uart.c **** }
 254              		.loc 1 399 0
 255 00aa 1846     		mov	r0, r3
 256 00ac 0837     		adds	r7, r7, #8
 257              	.LCFI8:
 258              		.cfi_def_cfa_offset 8
 259 00ae BD46     		mov	sp, r7
 260              	.LCFI9:
 261              		.cfi_def_cfa_register 13
 262              		@ sp needed
 263 00b0 80BD     		pop	{r7, pc}
 264              		.cfi_endproc
 265              	.LFE124:
 267 00b2 00BF     		.section	.text.HAL_LIN_Init,"ax",%progbits
 268              		.align	2
 269              		.global	HAL_LIN_Init
 270              		.thumb
 271              		.thumb_func
 273              	HAL_LIN_Init:
 274              	.LFB125:
 400:Drivers/STM32F3xx_HAL_Driver/Src/stm32f3xx_hal_uart.c **** 
 401:Drivers/STM32F3xx_HAL_Driver/Src/stm32f3xx_hal_uart.c **** 
 402:Drivers/STM32F3xx_HAL_Driver/Src/stm32f3xx_hal_uart.c **** /**
 403:Drivers/STM32F3xx_HAL_Driver/Src/stm32f3xx_hal_uart.c ****   * @brief Initialize the LIN mode according to the specified
 404:Drivers/STM32F3xx_HAL_Driver/Src/stm32f3xx_hal_uart.c ****   *        parameters in the UART_InitTypeDef and creates the associated handle .
 405:Drivers/STM32F3xx_HAL_Driver/Src/stm32f3xx_hal_uart.c ****   * @param huart: UART handle.
 406:Drivers/STM32F3xx_HAL_Driver/Src/stm32f3xx_hal_uart.c ****   * @param BreakDetectLength: specifies the LIN break detection length.
 407:Drivers/STM32F3xx_HAL_Driver/Src/stm32f3xx_hal_uart.c ****   *        This parameter can be one of the following values:
 408:Drivers/STM32F3xx_HAL_Driver/Src/stm32f3xx_hal_uart.c ****   *          @arg UART_LINBREAKDETECTLENGTH_10B: 10-bit break detection
 409:Drivers/STM32F3xx_HAL_Driver/Src/stm32f3xx_hal_uart.c ****   *          @arg UART_LINBREAKDETECTLENGTH_11B: 11-bit break detection
 410:Drivers/STM32F3xx_HAL_Driver/Src/stm32f3xx_hal_uart.c ****   * @retval HAL status
 411:Drivers/STM32F3xx_HAL_Driver/Src/stm32f3xx_hal_uart.c ****   */
 412:Drivers/STM32F3xx_HAL_Driver/Src/stm32f3xx_hal_uart.c **** HAL_StatusTypeDef HAL_LIN_Init(UART_HandleTypeDef *huart, uint32_t BreakDetectLength)
 413:Drivers/STM32F3xx_HAL_Driver/Src/stm32f3xx_hal_uart.c **** {
 275              		.loc 1 413 0
 276              		.cfi_startproc
ARM GAS  /var/folders/0z/_3zh0q697778kwks4bv8s9bh0000gn/T//ccPzatuz.s 			page 13


 277              		@ args = 0, pretend = 0, frame = 8
 278              		@ frame_needed = 1, uses_anonymous_args = 0
 279 0000 80B5     		push	{r7, lr}
 280              	.LCFI10:
 281              		.cfi_def_cfa_offset 8
 282              		.cfi_offset 7, -8
 283              		.cfi_offset 14, -4
 284 0002 82B0     		sub	sp, sp, #8
 285              	.LCFI11:
 286              		.cfi_def_cfa_offset 16
 287 0004 00AF     		add	r7, sp, #0
 288              	.LCFI12:
 289              		.cfi_def_cfa_register 7
 290 0006 7860     		str	r0, [r7, #4]
 291 0008 3960     		str	r1, [r7]
 414:Drivers/STM32F3xx_HAL_Driver/Src/stm32f3xx_hal_uart.c ****   /* Check the UART handle allocation */
 415:Drivers/STM32F3xx_HAL_Driver/Src/stm32f3xx_hal_uart.c ****   if(huart == NULL)
 292              		.loc 1 415 0
 293 000a 7B68     		ldr	r3, [r7, #4]
 294 000c 002B     		cmp	r3, #0
 295 000e 01D1     		bne	.L14
 416:Drivers/STM32F3xx_HAL_Driver/Src/stm32f3xx_hal_uart.c ****   {
 417:Drivers/STM32F3xx_HAL_Driver/Src/stm32f3xx_hal_uart.c ****     return HAL_ERROR;
 296              		.loc 1 417 0
 297 0010 0123     		movs	r3, #1
 298 0012 62E0     		b	.L15
 299              	.L14:
 418:Drivers/STM32F3xx_HAL_Driver/Src/stm32f3xx_hal_uart.c ****   }
 419:Drivers/STM32F3xx_HAL_Driver/Src/stm32f3xx_hal_uart.c **** 
 420:Drivers/STM32F3xx_HAL_Driver/Src/stm32f3xx_hal_uart.c ****   /* Check the LIN UART instance */
 421:Drivers/STM32F3xx_HAL_Driver/Src/stm32f3xx_hal_uart.c ****   assert_param(IS_UART_LIN_INSTANCE(huart->Instance));
 422:Drivers/STM32F3xx_HAL_Driver/Src/stm32f3xx_hal_uart.c ****   /* Check the Break detection length parameter */
 423:Drivers/STM32F3xx_HAL_Driver/Src/stm32f3xx_hal_uart.c ****   assert_param(IS_UART_LIN_BREAK_DETECT_LENGTH(BreakDetectLength));
 424:Drivers/STM32F3xx_HAL_Driver/Src/stm32f3xx_hal_uart.c **** 
 425:Drivers/STM32F3xx_HAL_Driver/Src/stm32f3xx_hal_uart.c ****   /* LIN mode limited to 16-bit oversampling only */
 426:Drivers/STM32F3xx_HAL_Driver/Src/stm32f3xx_hal_uart.c ****   if(huart->Init.OverSampling == UART_OVERSAMPLING_8)
 300              		.loc 1 426 0
 301 0014 7B68     		ldr	r3, [r7, #4]
 302 0016 DB69     		ldr	r3, [r3, #28]
 303 0018 B3F5004F 		cmp	r3, #32768
 304 001c 01D1     		bne	.L16
 427:Drivers/STM32F3xx_HAL_Driver/Src/stm32f3xx_hal_uart.c ****   {
 428:Drivers/STM32F3xx_HAL_Driver/Src/stm32f3xx_hal_uart.c ****     return HAL_ERROR;
 305              		.loc 1 428 0
 306 001e 0123     		movs	r3, #1
 307 0020 5BE0     		b	.L15
 308              	.L16:
 429:Drivers/STM32F3xx_HAL_Driver/Src/stm32f3xx_hal_uart.c ****   }
 430:Drivers/STM32F3xx_HAL_Driver/Src/stm32f3xx_hal_uart.c ****   /* LIN mode limited to 8-bit data length */
 431:Drivers/STM32F3xx_HAL_Driver/Src/stm32f3xx_hal_uart.c ****   if(huart->Init.WordLength != UART_WORDLENGTH_8B)
 309              		.loc 1 431 0
 310 0022 7B68     		ldr	r3, [r7, #4]
 311 0024 9B68     		ldr	r3, [r3, #8]
 312 0026 002B     		cmp	r3, #0
 313 0028 01D0     		beq	.L17
 432:Drivers/STM32F3xx_HAL_Driver/Src/stm32f3xx_hal_uart.c ****   {
 433:Drivers/STM32F3xx_HAL_Driver/Src/stm32f3xx_hal_uart.c ****     return HAL_ERROR;
ARM GAS  /var/folders/0z/_3zh0q697778kwks4bv8s9bh0000gn/T//ccPzatuz.s 			page 14


 314              		.loc 1 433 0
 315 002a 0123     		movs	r3, #1
 316 002c 55E0     		b	.L15
 317              	.L17:
 434:Drivers/STM32F3xx_HAL_Driver/Src/stm32f3xx_hal_uart.c ****   }
 435:Drivers/STM32F3xx_HAL_Driver/Src/stm32f3xx_hal_uart.c **** 
 436:Drivers/STM32F3xx_HAL_Driver/Src/stm32f3xx_hal_uart.c ****   if(huart->gState == HAL_UART_STATE_RESET)
 318              		.loc 1 436 0
 319 002e 7B68     		ldr	r3, [r7, #4]
 320 0030 93F86930 		ldrb	r3, [r3, #105]
 321 0034 DBB2     		uxtb	r3, r3
 322 0036 002B     		cmp	r3, #0
 323 0038 06D1     		bne	.L18
 437:Drivers/STM32F3xx_HAL_Driver/Src/stm32f3xx_hal_uart.c ****   {
 438:Drivers/STM32F3xx_HAL_Driver/Src/stm32f3xx_hal_uart.c ****     /* Allocate lock resource and initialize it */
 439:Drivers/STM32F3xx_HAL_Driver/Src/stm32f3xx_hal_uart.c ****     huart->Lock = HAL_UNLOCKED;
 324              		.loc 1 439 0
 325 003a 7B68     		ldr	r3, [r7, #4]
 326 003c 0022     		movs	r2, #0
 327 003e 83F86820 		strb	r2, [r3, #104]
 440:Drivers/STM32F3xx_HAL_Driver/Src/stm32f3xx_hal_uart.c **** 
 441:Drivers/STM32F3xx_HAL_Driver/Src/stm32f3xx_hal_uart.c ****     /* Init the low level hardware : GPIO, CLOCK */
 442:Drivers/STM32F3xx_HAL_Driver/Src/stm32f3xx_hal_uart.c ****     HAL_UART_MspInit(huart);
 328              		.loc 1 442 0
 329 0042 7868     		ldr	r0, [r7, #4]
 330 0044 FFF7FEFF 		bl	HAL_UART_MspInit
 331              	.L18:
 443:Drivers/STM32F3xx_HAL_Driver/Src/stm32f3xx_hal_uart.c ****   }
 444:Drivers/STM32F3xx_HAL_Driver/Src/stm32f3xx_hal_uart.c **** 
 445:Drivers/STM32F3xx_HAL_Driver/Src/stm32f3xx_hal_uart.c ****   huart->gState = HAL_UART_STATE_BUSY;
 332              		.loc 1 445 0
 333 0048 7B68     		ldr	r3, [r7, #4]
 334 004a 2422     		movs	r2, #36
 335 004c 83F86920 		strb	r2, [r3, #105]
 446:Drivers/STM32F3xx_HAL_Driver/Src/stm32f3xx_hal_uart.c **** 
 447:Drivers/STM32F3xx_HAL_Driver/Src/stm32f3xx_hal_uart.c ****   /* Disable the Peripheral */
 448:Drivers/STM32F3xx_HAL_Driver/Src/stm32f3xx_hal_uart.c ****   __HAL_UART_DISABLE(huart);
 336              		.loc 1 448 0
 337 0050 7B68     		ldr	r3, [r7, #4]
 338 0052 1B68     		ldr	r3, [r3]
 339 0054 7A68     		ldr	r2, [r7, #4]
 340 0056 1268     		ldr	r2, [r2]
 341 0058 1268     		ldr	r2, [r2]
 342 005a 22F00102 		bic	r2, r2, #1
 343 005e 1A60     		str	r2, [r3]
 449:Drivers/STM32F3xx_HAL_Driver/Src/stm32f3xx_hal_uart.c **** 
 450:Drivers/STM32F3xx_HAL_Driver/Src/stm32f3xx_hal_uart.c ****   /* Set the UART Communication parameters */
 451:Drivers/STM32F3xx_HAL_Driver/Src/stm32f3xx_hal_uart.c ****   if (UART_SetConfig(huart) == HAL_ERROR)
 344              		.loc 1 451 0
 345 0060 7868     		ldr	r0, [r7, #4]
 346 0062 FFF7FEFF 		bl	UART_SetConfig
 347 0066 0346     		mov	r3, r0
 348 0068 012B     		cmp	r3, #1
 349 006a 01D1     		bne	.L19
 452:Drivers/STM32F3xx_HAL_Driver/Src/stm32f3xx_hal_uart.c ****   {
 453:Drivers/STM32F3xx_HAL_Driver/Src/stm32f3xx_hal_uart.c ****     return HAL_ERROR;
 350              		.loc 1 453 0
ARM GAS  /var/folders/0z/_3zh0q697778kwks4bv8s9bh0000gn/T//ccPzatuz.s 			page 15


 351 006c 0123     		movs	r3, #1
 352 006e 34E0     		b	.L15
 353              	.L19:
 454:Drivers/STM32F3xx_HAL_Driver/Src/stm32f3xx_hal_uart.c ****   }
 455:Drivers/STM32F3xx_HAL_Driver/Src/stm32f3xx_hal_uart.c **** 
 456:Drivers/STM32F3xx_HAL_Driver/Src/stm32f3xx_hal_uart.c ****   if (huart->AdvancedInit.AdvFeatureInit != UART_ADVFEATURE_NO_INIT)
 354              		.loc 1 456 0
 355 0070 7B68     		ldr	r3, [r7, #4]
 356 0072 5B6A     		ldr	r3, [r3, #36]
 357 0074 002B     		cmp	r3, #0
 358 0076 02D0     		beq	.L20
 457:Drivers/STM32F3xx_HAL_Driver/Src/stm32f3xx_hal_uart.c ****   {
 458:Drivers/STM32F3xx_HAL_Driver/Src/stm32f3xx_hal_uart.c ****     UART_AdvFeatureConfig(huart);
 359              		.loc 1 458 0
 360 0078 7868     		ldr	r0, [r7, #4]
 361 007a FFF7FEFF 		bl	UART_AdvFeatureConfig
 362              	.L20:
 459:Drivers/STM32F3xx_HAL_Driver/Src/stm32f3xx_hal_uart.c ****   }
 460:Drivers/STM32F3xx_HAL_Driver/Src/stm32f3xx_hal_uart.c **** 
 461:Drivers/STM32F3xx_HAL_Driver/Src/stm32f3xx_hal_uart.c ****   /* In LIN mode, the following bits must be kept cleared:
 462:Drivers/STM32F3xx_HAL_Driver/Src/stm32f3xx_hal_uart.c ****   - LINEN and CLKEN bits in the USART_CR2 register,
 463:Drivers/STM32F3xx_HAL_Driver/Src/stm32f3xx_hal_uart.c ****   - SCEN and IREN bits in the USART_CR3 register.*/
 464:Drivers/STM32F3xx_HAL_Driver/Src/stm32f3xx_hal_uart.c ****   huart->Instance->CR2 &= ~(USART_CR2_CLKEN);
 363              		.loc 1 464 0
 364 007e 7B68     		ldr	r3, [r7, #4]
 365 0080 1B68     		ldr	r3, [r3]
 366 0082 7A68     		ldr	r2, [r7, #4]
 367 0084 1268     		ldr	r2, [r2]
 368 0086 5268     		ldr	r2, [r2, #4]
 369 0088 22F40062 		bic	r2, r2, #2048
 370 008c 5A60     		str	r2, [r3, #4]
 465:Drivers/STM32F3xx_HAL_Driver/Src/stm32f3xx_hal_uart.c ****   huart->Instance->CR3 &= ~(USART_CR3_HDSEL | USART_CR3_IREN | USART_CR3_SCEN);
 371              		.loc 1 465 0
 372 008e 7B68     		ldr	r3, [r7, #4]
 373 0090 1B68     		ldr	r3, [r3]
 374 0092 7A68     		ldr	r2, [r7, #4]
 375 0094 1268     		ldr	r2, [r2]
 376 0096 9268     		ldr	r2, [r2, #8]
 377 0098 22F02A02 		bic	r2, r2, #42
 378 009c 9A60     		str	r2, [r3, #8]
 466:Drivers/STM32F3xx_HAL_Driver/Src/stm32f3xx_hal_uart.c **** 
 467:Drivers/STM32F3xx_HAL_Driver/Src/stm32f3xx_hal_uart.c ****   /* Enable the LIN mode by setting the LINEN bit in the CR2 register */
 468:Drivers/STM32F3xx_HAL_Driver/Src/stm32f3xx_hal_uart.c ****   huart->Instance->CR2 |= USART_CR2_LINEN;
 379              		.loc 1 468 0
 380 009e 7B68     		ldr	r3, [r7, #4]
 381 00a0 1B68     		ldr	r3, [r3]
 382 00a2 7A68     		ldr	r2, [r7, #4]
 383 00a4 1268     		ldr	r2, [r2]
 384 00a6 5268     		ldr	r2, [r2, #4]
 385 00a8 42F48042 		orr	r2, r2, #16384
 386 00ac 5A60     		str	r2, [r3, #4]
 469:Drivers/STM32F3xx_HAL_Driver/Src/stm32f3xx_hal_uart.c **** 
 470:Drivers/STM32F3xx_HAL_Driver/Src/stm32f3xx_hal_uart.c ****   /* Set the USART LIN Break detection length. */
 471:Drivers/STM32F3xx_HAL_Driver/Src/stm32f3xx_hal_uart.c ****   MODIFY_REG(huart->Instance->CR2, USART_CR2_LBDL, BreakDetectLength);
 387              		.loc 1 471 0
 388 00ae 7B68     		ldr	r3, [r7, #4]
 389 00b0 1B68     		ldr	r3, [r3]
ARM GAS  /var/folders/0z/_3zh0q697778kwks4bv8s9bh0000gn/T//ccPzatuz.s 			page 16


 390 00b2 7A68     		ldr	r2, [r7, #4]
 391 00b4 1268     		ldr	r2, [r2]
 392 00b6 5268     		ldr	r2, [r2, #4]
 393 00b8 22F02001 		bic	r1, r2, #32
 394 00bc 3A68     		ldr	r2, [r7]
 395 00be 0A43     		orrs	r2, r2, r1
 396 00c0 5A60     		str	r2, [r3, #4]
 472:Drivers/STM32F3xx_HAL_Driver/Src/stm32f3xx_hal_uart.c **** 
 473:Drivers/STM32F3xx_HAL_Driver/Src/stm32f3xx_hal_uart.c ****     /* Enable the Peripheral */
 474:Drivers/STM32F3xx_HAL_Driver/Src/stm32f3xx_hal_uart.c ****   __HAL_UART_ENABLE(huart);
 397              		.loc 1 474 0
 398 00c2 7B68     		ldr	r3, [r7, #4]
 399 00c4 1B68     		ldr	r3, [r3]
 400 00c6 7A68     		ldr	r2, [r7, #4]
 401 00c8 1268     		ldr	r2, [r2]
 402 00ca 1268     		ldr	r2, [r2]
 403 00cc 42F00102 		orr	r2, r2, #1
 404 00d0 1A60     		str	r2, [r3]
 475:Drivers/STM32F3xx_HAL_Driver/Src/stm32f3xx_hal_uart.c **** 
 476:Drivers/STM32F3xx_HAL_Driver/Src/stm32f3xx_hal_uart.c ****   /* TEACK and/or REACK to check before moving huart->gState and huart->RxState to Ready */
 477:Drivers/STM32F3xx_HAL_Driver/Src/stm32f3xx_hal_uart.c ****   return (UART_CheckIdleState(huart));
 405              		.loc 1 477 0
 406 00d2 7868     		ldr	r0, [r7, #4]
 407 00d4 FFF7FEFF 		bl	UART_CheckIdleState
 408 00d8 0346     		mov	r3, r0
 409              	.L15:
 478:Drivers/STM32F3xx_HAL_Driver/Src/stm32f3xx_hal_uart.c **** }
 410              		.loc 1 478 0
 411 00da 1846     		mov	r0, r3
 412 00dc 0837     		adds	r7, r7, #8
 413              	.LCFI13:
 414              		.cfi_def_cfa_offset 8
 415 00de BD46     		mov	sp, r7
 416              	.LCFI14:
 417              		.cfi_def_cfa_register 13
 418              		@ sp needed
 419 00e0 80BD     		pop	{r7, pc}
 420              		.cfi_endproc
 421              	.LFE125:
 423 00e2 00BF     		.section	.text.HAL_MultiProcessor_Init,"ax",%progbits
 424              		.align	2
 425              		.global	HAL_MultiProcessor_Init
 426              		.thumb
 427              		.thumb_func
 429              	HAL_MultiProcessor_Init:
 430              	.LFB126:
 479:Drivers/STM32F3xx_HAL_Driver/Src/stm32f3xx_hal_uart.c **** 
 480:Drivers/STM32F3xx_HAL_Driver/Src/stm32f3xx_hal_uart.c **** 
 481:Drivers/STM32F3xx_HAL_Driver/Src/stm32f3xx_hal_uart.c **** /**
 482:Drivers/STM32F3xx_HAL_Driver/Src/stm32f3xx_hal_uart.c ****   * @brief Initialize the multiprocessor mode according to the specified
 483:Drivers/STM32F3xx_HAL_Driver/Src/stm32f3xx_hal_uart.c ****   *        parameters in the UART_InitTypeDef and initialize the associated handle.
 484:Drivers/STM32F3xx_HAL_Driver/Src/stm32f3xx_hal_uart.c ****   * @param huart: UART handle.
 485:Drivers/STM32F3xx_HAL_Driver/Src/stm32f3xx_hal_uart.c ****   * @param Address: UART node address (4-, 6-, 7- or 8-bit long).
 486:Drivers/STM32F3xx_HAL_Driver/Src/stm32f3xx_hal_uart.c ****   * @param WakeUpMethod: specifies the UART wakeup method.
 487:Drivers/STM32F3xx_HAL_Driver/Src/stm32f3xx_hal_uart.c ****   *        This parameter can be one of the following values:
 488:Drivers/STM32F3xx_HAL_Driver/Src/stm32f3xx_hal_uart.c ****   *          @arg UART_WAKEUPMETHOD_IDLELINE: WakeUp by an idle line detection
 489:Drivers/STM32F3xx_HAL_Driver/Src/stm32f3xx_hal_uart.c ****   *          @arg UART_WAKEUPMETHOD_ADDRESSMARK: WakeUp by an address mark
ARM GAS  /var/folders/0z/_3zh0q697778kwks4bv8s9bh0000gn/T//ccPzatuz.s 			page 17


 490:Drivers/STM32F3xx_HAL_Driver/Src/stm32f3xx_hal_uart.c ****   * @note  If the user resorts to idle line detection wake up, the Address parameter
 491:Drivers/STM32F3xx_HAL_Driver/Src/stm32f3xx_hal_uart.c ****   *        is useless and ignored by the initialization function.
 492:Drivers/STM32F3xx_HAL_Driver/Src/stm32f3xx_hal_uart.c ****   * @note  If the user resorts to address mark wake up, the address length detection
 493:Drivers/STM32F3xx_HAL_Driver/Src/stm32f3xx_hal_uart.c ****   *        is configured by default to 4 bits only. For the UART to be able to
 494:Drivers/STM32F3xx_HAL_Driver/Src/stm32f3xx_hal_uart.c ****   *        manage 6-, 7- or 8-bit long addresses detection, the API
 495:Drivers/STM32F3xx_HAL_Driver/Src/stm32f3xx_hal_uart.c ****   *        HAL_MultiProcessorEx_AddressLength_Set() must be called after
 496:Drivers/STM32F3xx_HAL_Driver/Src/stm32f3xx_hal_uart.c ****   *        HAL_MultiProcessor_Init().
 497:Drivers/STM32F3xx_HAL_Driver/Src/stm32f3xx_hal_uart.c ****   * @retval HAL status
 498:Drivers/STM32F3xx_HAL_Driver/Src/stm32f3xx_hal_uart.c ****   */
 499:Drivers/STM32F3xx_HAL_Driver/Src/stm32f3xx_hal_uart.c **** HAL_StatusTypeDef HAL_MultiProcessor_Init(UART_HandleTypeDef *huart, uint8_t Address, uint32_t Wake
 500:Drivers/STM32F3xx_HAL_Driver/Src/stm32f3xx_hal_uart.c **** {
 431              		.loc 1 500 0
 432              		.cfi_startproc
 433              		@ args = 0, pretend = 0, frame = 16
 434              		@ frame_needed = 1, uses_anonymous_args = 0
 435 0000 80B5     		push	{r7, lr}
 436              	.LCFI15:
 437              		.cfi_def_cfa_offset 8
 438              		.cfi_offset 7, -8
 439              		.cfi_offset 14, -4
 440 0002 84B0     		sub	sp, sp, #16
 441              	.LCFI16:
 442              		.cfi_def_cfa_offset 24
 443 0004 00AF     		add	r7, sp, #0
 444              	.LCFI17:
 445              		.cfi_def_cfa_register 7
 446 0006 F860     		str	r0, [r7, #12]
 447 0008 0B46     		mov	r3, r1
 448 000a 7A60     		str	r2, [r7, #4]
 449 000c FB72     		strb	r3, [r7, #11]
 501:Drivers/STM32F3xx_HAL_Driver/Src/stm32f3xx_hal_uart.c ****   /* Check the UART handle allocation */
 502:Drivers/STM32F3xx_HAL_Driver/Src/stm32f3xx_hal_uart.c ****   if(huart == NULL)
 450              		.loc 1 502 0
 451 000e FB68     		ldr	r3, [r7, #12]
 452 0010 002B     		cmp	r3, #0
 453 0012 01D1     		bne	.L22
 503:Drivers/STM32F3xx_HAL_Driver/Src/stm32f3xx_hal_uart.c ****   {
 504:Drivers/STM32F3xx_HAL_Driver/Src/stm32f3xx_hal_uart.c ****     return HAL_ERROR;
 454              		.loc 1 504 0
 455 0014 0123     		movs	r3, #1
 456 0016 5CE0     		b	.L23
 457              	.L22:
 505:Drivers/STM32F3xx_HAL_Driver/Src/stm32f3xx_hal_uart.c ****   }
 506:Drivers/STM32F3xx_HAL_Driver/Src/stm32f3xx_hal_uart.c **** 
 507:Drivers/STM32F3xx_HAL_Driver/Src/stm32f3xx_hal_uart.c ****   /* Check the wake up method parameter */
 508:Drivers/STM32F3xx_HAL_Driver/Src/stm32f3xx_hal_uart.c ****   assert_param(IS_UART_WAKEUPMETHOD(WakeUpMethod));
 509:Drivers/STM32F3xx_HAL_Driver/Src/stm32f3xx_hal_uart.c **** 
 510:Drivers/STM32F3xx_HAL_Driver/Src/stm32f3xx_hal_uart.c ****   if(huart->gState == HAL_UART_STATE_RESET)
 458              		.loc 1 510 0
 459 0018 FB68     		ldr	r3, [r7, #12]
 460 001a 93F86930 		ldrb	r3, [r3, #105]
 461 001e DBB2     		uxtb	r3, r3
 462 0020 002B     		cmp	r3, #0
 463 0022 06D1     		bne	.L24
 511:Drivers/STM32F3xx_HAL_Driver/Src/stm32f3xx_hal_uart.c ****   {
 512:Drivers/STM32F3xx_HAL_Driver/Src/stm32f3xx_hal_uart.c ****     /* Allocate lock resource and initialize it */
 513:Drivers/STM32F3xx_HAL_Driver/Src/stm32f3xx_hal_uart.c ****     huart->Lock = HAL_UNLOCKED;
ARM GAS  /var/folders/0z/_3zh0q697778kwks4bv8s9bh0000gn/T//ccPzatuz.s 			page 18


 464              		.loc 1 513 0
 465 0024 FB68     		ldr	r3, [r7, #12]
 466 0026 0022     		movs	r2, #0
 467 0028 83F86820 		strb	r2, [r3, #104]
 514:Drivers/STM32F3xx_HAL_Driver/Src/stm32f3xx_hal_uart.c **** 
 515:Drivers/STM32F3xx_HAL_Driver/Src/stm32f3xx_hal_uart.c ****     /* Init the low level hardware : GPIO, CLOCK */
 516:Drivers/STM32F3xx_HAL_Driver/Src/stm32f3xx_hal_uart.c ****     HAL_UART_MspInit(huart);
 468              		.loc 1 516 0
 469 002c F868     		ldr	r0, [r7, #12]
 470 002e FFF7FEFF 		bl	HAL_UART_MspInit
 471              	.L24:
 517:Drivers/STM32F3xx_HAL_Driver/Src/stm32f3xx_hal_uart.c ****   }
 518:Drivers/STM32F3xx_HAL_Driver/Src/stm32f3xx_hal_uart.c **** 
 519:Drivers/STM32F3xx_HAL_Driver/Src/stm32f3xx_hal_uart.c ****   huart->gState = HAL_UART_STATE_BUSY;
 472              		.loc 1 519 0
 473 0032 FB68     		ldr	r3, [r7, #12]
 474 0034 2422     		movs	r2, #36
 475 0036 83F86920 		strb	r2, [r3, #105]
 520:Drivers/STM32F3xx_HAL_Driver/Src/stm32f3xx_hal_uart.c **** 
 521:Drivers/STM32F3xx_HAL_Driver/Src/stm32f3xx_hal_uart.c ****   /* Disable the Peripheral */
 522:Drivers/STM32F3xx_HAL_Driver/Src/stm32f3xx_hal_uart.c ****   __HAL_UART_DISABLE(huart);
 476              		.loc 1 522 0
 477 003a FB68     		ldr	r3, [r7, #12]
 478 003c 1B68     		ldr	r3, [r3]
 479 003e FA68     		ldr	r2, [r7, #12]
 480 0040 1268     		ldr	r2, [r2]
 481 0042 1268     		ldr	r2, [r2]
 482 0044 22F00102 		bic	r2, r2, #1
 483 0048 1A60     		str	r2, [r3]
 523:Drivers/STM32F3xx_HAL_Driver/Src/stm32f3xx_hal_uart.c **** 
 524:Drivers/STM32F3xx_HAL_Driver/Src/stm32f3xx_hal_uart.c ****   /* Set the UART Communication parameters */
 525:Drivers/STM32F3xx_HAL_Driver/Src/stm32f3xx_hal_uart.c ****   if (UART_SetConfig(huart) == HAL_ERROR)
 484              		.loc 1 525 0
 485 004a F868     		ldr	r0, [r7, #12]
 486 004c FFF7FEFF 		bl	UART_SetConfig
 487 0050 0346     		mov	r3, r0
 488 0052 012B     		cmp	r3, #1
 489 0054 01D1     		bne	.L25
 526:Drivers/STM32F3xx_HAL_Driver/Src/stm32f3xx_hal_uart.c ****   {
 527:Drivers/STM32F3xx_HAL_Driver/Src/stm32f3xx_hal_uart.c ****     return HAL_ERROR;
 490              		.loc 1 527 0
 491 0056 0123     		movs	r3, #1
 492 0058 3BE0     		b	.L23
 493              	.L25:
 528:Drivers/STM32F3xx_HAL_Driver/Src/stm32f3xx_hal_uart.c ****   }
 529:Drivers/STM32F3xx_HAL_Driver/Src/stm32f3xx_hal_uart.c **** 
 530:Drivers/STM32F3xx_HAL_Driver/Src/stm32f3xx_hal_uart.c ****   if (huart->AdvancedInit.AdvFeatureInit != UART_ADVFEATURE_NO_INIT)
 494              		.loc 1 530 0
 495 005a FB68     		ldr	r3, [r7, #12]
 496 005c 5B6A     		ldr	r3, [r3, #36]
 497 005e 002B     		cmp	r3, #0
 498 0060 02D0     		beq	.L26
 531:Drivers/STM32F3xx_HAL_Driver/Src/stm32f3xx_hal_uart.c ****   {
 532:Drivers/STM32F3xx_HAL_Driver/Src/stm32f3xx_hal_uart.c ****     UART_AdvFeatureConfig(huart);
 499              		.loc 1 532 0
 500 0062 F868     		ldr	r0, [r7, #12]
 501 0064 FFF7FEFF 		bl	UART_AdvFeatureConfig
ARM GAS  /var/folders/0z/_3zh0q697778kwks4bv8s9bh0000gn/T//ccPzatuz.s 			page 19


 502              	.L26:
 533:Drivers/STM32F3xx_HAL_Driver/Src/stm32f3xx_hal_uart.c ****   }
 534:Drivers/STM32F3xx_HAL_Driver/Src/stm32f3xx_hal_uart.c **** 
 535:Drivers/STM32F3xx_HAL_Driver/Src/stm32f3xx_hal_uart.c ****   /* In multiprocessor mode, the following bits must be kept cleared:
 536:Drivers/STM32F3xx_HAL_Driver/Src/stm32f3xx_hal_uart.c ****   - LINEN and CLKEN bits in the USART_CR2 register,
 537:Drivers/STM32F3xx_HAL_Driver/Src/stm32f3xx_hal_uart.c ****   - SCEN, HDSEL and IREN  bits in the USART_CR3 register. */
 538:Drivers/STM32F3xx_HAL_Driver/Src/stm32f3xx_hal_uart.c ****   huart->Instance->CR2 &= ~(USART_CR2_LINEN | USART_CR2_CLKEN);
 503              		.loc 1 538 0
 504 0068 FB68     		ldr	r3, [r7, #12]
 505 006a 1B68     		ldr	r3, [r3]
 506 006c FA68     		ldr	r2, [r7, #12]
 507 006e 1268     		ldr	r2, [r2]
 508 0070 5268     		ldr	r2, [r2, #4]
 509 0072 22F49042 		bic	r2, r2, #18432
 510 0076 5A60     		str	r2, [r3, #4]
 539:Drivers/STM32F3xx_HAL_Driver/Src/stm32f3xx_hal_uart.c ****   huart->Instance->CR3 &= ~(USART_CR3_SCEN | USART_CR3_HDSEL | USART_CR3_IREN);
 511              		.loc 1 539 0
 512 0078 FB68     		ldr	r3, [r7, #12]
 513 007a 1B68     		ldr	r3, [r3]
 514 007c FA68     		ldr	r2, [r7, #12]
 515 007e 1268     		ldr	r2, [r2]
 516 0080 9268     		ldr	r2, [r2, #8]
 517 0082 22F02A02 		bic	r2, r2, #42
 518 0086 9A60     		str	r2, [r3, #8]
 540:Drivers/STM32F3xx_HAL_Driver/Src/stm32f3xx_hal_uart.c **** 
 541:Drivers/STM32F3xx_HAL_Driver/Src/stm32f3xx_hal_uart.c ****   if (WakeUpMethod == UART_WAKEUPMETHOD_ADDRESSMARK)
 519              		.loc 1 541 0
 520 0088 7B68     		ldr	r3, [r7, #4]
 521 008a B3F5006F 		cmp	r3, #2048
 522 008e 0AD1     		bne	.L27
 542:Drivers/STM32F3xx_HAL_Driver/Src/stm32f3xx_hal_uart.c ****   {
 543:Drivers/STM32F3xx_HAL_Driver/Src/stm32f3xx_hal_uart.c ****     /* If address mark wake up method is chosen, set the USART address node */
 544:Drivers/STM32F3xx_HAL_Driver/Src/stm32f3xx_hal_uart.c ****     MODIFY_REG(huart->Instance->CR2, USART_CR2_ADD, ((uint32_t)Address << UART_CR2_ADDRESS_LSB_POS)
 523              		.loc 1 544 0
 524 0090 FB68     		ldr	r3, [r7, #12]
 525 0092 1B68     		ldr	r3, [r3]
 526 0094 FA68     		ldr	r2, [r7, #12]
 527 0096 1268     		ldr	r2, [r2]
 528 0098 5268     		ldr	r2, [r2, #4]
 529 009a 22F07F41 		bic	r1, r2, #-16777216
 530 009e FA7A     		ldrb	r2, [r7, #11]	@ zero_extendqisi2
 531 00a0 1206     		lsls	r2, r2, #24
 532 00a2 0A43     		orrs	r2, r2, r1
 533 00a4 5A60     		str	r2, [r3, #4]
 534              	.L27:
 545:Drivers/STM32F3xx_HAL_Driver/Src/stm32f3xx_hal_uart.c ****   }
 546:Drivers/STM32F3xx_HAL_Driver/Src/stm32f3xx_hal_uart.c **** 
 547:Drivers/STM32F3xx_HAL_Driver/Src/stm32f3xx_hal_uart.c ****   /* Set the wake up method by setting the WAKE bit in the CR1 register */
 548:Drivers/STM32F3xx_HAL_Driver/Src/stm32f3xx_hal_uart.c ****   MODIFY_REG(huart->Instance->CR1, USART_CR1_WAKE, WakeUpMethod);
 535              		.loc 1 548 0
 536 00a6 FB68     		ldr	r3, [r7, #12]
 537 00a8 1B68     		ldr	r3, [r3]
 538 00aa FA68     		ldr	r2, [r7, #12]
 539 00ac 1268     		ldr	r2, [r2]
 540 00ae 1268     		ldr	r2, [r2]
 541 00b0 22F40061 		bic	r1, r2, #2048
 542 00b4 7A68     		ldr	r2, [r7, #4]
ARM GAS  /var/folders/0z/_3zh0q697778kwks4bv8s9bh0000gn/T//ccPzatuz.s 			page 20


 543 00b6 0A43     		orrs	r2, r2, r1
 544 00b8 1A60     		str	r2, [r3]
 549:Drivers/STM32F3xx_HAL_Driver/Src/stm32f3xx_hal_uart.c **** 
 550:Drivers/STM32F3xx_HAL_Driver/Src/stm32f3xx_hal_uart.c ****   /* Enable the Peripheral */
 551:Drivers/STM32F3xx_HAL_Driver/Src/stm32f3xx_hal_uart.c ****   __HAL_UART_ENABLE(huart);
 545              		.loc 1 551 0
 546 00ba FB68     		ldr	r3, [r7, #12]
 547 00bc 1B68     		ldr	r3, [r3]
 548 00be FA68     		ldr	r2, [r7, #12]
 549 00c0 1268     		ldr	r2, [r2]
 550 00c2 1268     		ldr	r2, [r2]
 551 00c4 42F00102 		orr	r2, r2, #1
 552 00c8 1A60     		str	r2, [r3]
 552:Drivers/STM32F3xx_HAL_Driver/Src/stm32f3xx_hal_uart.c **** 
 553:Drivers/STM32F3xx_HAL_Driver/Src/stm32f3xx_hal_uart.c ****   /* TEACK and/or REACK to check before moving huart->gState and huart->RxState to Ready */
 554:Drivers/STM32F3xx_HAL_Driver/Src/stm32f3xx_hal_uart.c ****   return (UART_CheckIdleState(huart));
 553              		.loc 1 554 0
 554 00ca F868     		ldr	r0, [r7, #12]
 555 00cc FFF7FEFF 		bl	UART_CheckIdleState
 556 00d0 0346     		mov	r3, r0
 557              	.L23:
 555:Drivers/STM32F3xx_HAL_Driver/Src/stm32f3xx_hal_uart.c **** }
 558              		.loc 1 555 0
 559 00d2 1846     		mov	r0, r3
 560 00d4 1037     		adds	r7, r7, #16
 561              	.LCFI18:
 562              		.cfi_def_cfa_offset 8
 563 00d6 BD46     		mov	sp, r7
 564              	.LCFI19:
 565              		.cfi_def_cfa_register 13
 566              		@ sp needed
 567 00d8 80BD     		pop	{r7, pc}
 568              		.cfi_endproc
 569              	.LFE126:
 571 00da 00BF     		.section	.text.HAL_UART_DeInit,"ax",%progbits
 572              		.align	2
 573              		.global	HAL_UART_DeInit
 574              		.thumb
 575              		.thumb_func
 577              	HAL_UART_DeInit:
 578              	.LFB127:
 556:Drivers/STM32F3xx_HAL_Driver/Src/stm32f3xx_hal_uart.c **** 
 557:Drivers/STM32F3xx_HAL_Driver/Src/stm32f3xx_hal_uart.c **** 
 558:Drivers/STM32F3xx_HAL_Driver/Src/stm32f3xx_hal_uart.c **** /**
 559:Drivers/STM32F3xx_HAL_Driver/Src/stm32f3xx_hal_uart.c ****   * @brief DeInitialize the UART peripheral.
 560:Drivers/STM32F3xx_HAL_Driver/Src/stm32f3xx_hal_uart.c ****   * @param huart: UART handle.
 561:Drivers/STM32F3xx_HAL_Driver/Src/stm32f3xx_hal_uart.c ****   * @retval HAL status
 562:Drivers/STM32F3xx_HAL_Driver/Src/stm32f3xx_hal_uart.c ****   */
 563:Drivers/STM32F3xx_HAL_Driver/Src/stm32f3xx_hal_uart.c **** HAL_StatusTypeDef HAL_UART_DeInit(UART_HandleTypeDef *huart)
 564:Drivers/STM32F3xx_HAL_Driver/Src/stm32f3xx_hal_uart.c **** {
 579              		.loc 1 564 0
 580              		.cfi_startproc
 581              		@ args = 0, pretend = 0, frame = 8
 582              		@ frame_needed = 1, uses_anonymous_args = 0
 583 0000 80B5     		push	{r7, lr}
 584              	.LCFI20:
 585              		.cfi_def_cfa_offset 8
ARM GAS  /var/folders/0z/_3zh0q697778kwks4bv8s9bh0000gn/T//ccPzatuz.s 			page 21


 586              		.cfi_offset 7, -8
 587              		.cfi_offset 14, -4
 588 0002 82B0     		sub	sp, sp, #8
 589              	.LCFI21:
 590              		.cfi_def_cfa_offset 16
 591 0004 00AF     		add	r7, sp, #0
 592              	.LCFI22:
 593              		.cfi_def_cfa_register 7
 594 0006 7860     		str	r0, [r7, #4]
 565:Drivers/STM32F3xx_HAL_Driver/Src/stm32f3xx_hal_uart.c ****   /* Check the UART handle allocation */
 566:Drivers/STM32F3xx_HAL_Driver/Src/stm32f3xx_hal_uart.c ****   if(huart == NULL)
 595              		.loc 1 566 0
 596 0008 7B68     		ldr	r3, [r7, #4]
 597 000a 002B     		cmp	r3, #0
 598 000c 01D1     		bne	.L29
 567:Drivers/STM32F3xx_HAL_Driver/Src/stm32f3xx_hal_uart.c ****   {
 568:Drivers/STM32F3xx_HAL_Driver/Src/stm32f3xx_hal_uart.c ****     return HAL_ERROR;
 599              		.loc 1 568 0
 600 000e 0123     		movs	r3, #1
 601 0010 2AE0     		b	.L30
 602              	.L29:
 569:Drivers/STM32F3xx_HAL_Driver/Src/stm32f3xx_hal_uart.c ****   }
 570:Drivers/STM32F3xx_HAL_Driver/Src/stm32f3xx_hal_uart.c **** 
 571:Drivers/STM32F3xx_HAL_Driver/Src/stm32f3xx_hal_uart.c ****   /* Check the parameters */
 572:Drivers/STM32F3xx_HAL_Driver/Src/stm32f3xx_hal_uart.c ****   assert_param(IS_UART_INSTANCE(huart->Instance));
 573:Drivers/STM32F3xx_HAL_Driver/Src/stm32f3xx_hal_uart.c **** 
 574:Drivers/STM32F3xx_HAL_Driver/Src/stm32f3xx_hal_uart.c ****   huart->gState = HAL_UART_STATE_BUSY;
 603              		.loc 1 574 0
 604 0012 7B68     		ldr	r3, [r7, #4]
 605 0014 2422     		movs	r2, #36
 606 0016 83F86920 		strb	r2, [r3, #105]
 575:Drivers/STM32F3xx_HAL_Driver/Src/stm32f3xx_hal_uart.c **** 
 576:Drivers/STM32F3xx_HAL_Driver/Src/stm32f3xx_hal_uart.c ****   /* Disable the Peripheral */
 577:Drivers/STM32F3xx_HAL_Driver/Src/stm32f3xx_hal_uart.c ****   __HAL_UART_DISABLE(huart);
 607              		.loc 1 577 0
 608 001a 7B68     		ldr	r3, [r7, #4]
 609 001c 1B68     		ldr	r3, [r3]
 610 001e 7A68     		ldr	r2, [r7, #4]
 611 0020 1268     		ldr	r2, [r2]
 612 0022 1268     		ldr	r2, [r2]
 613 0024 22F00102 		bic	r2, r2, #1
 614 0028 1A60     		str	r2, [r3]
 578:Drivers/STM32F3xx_HAL_Driver/Src/stm32f3xx_hal_uart.c **** 
 579:Drivers/STM32F3xx_HAL_Driver/Src/stm32f3xx_hal_uart.c ****   huart->Instance->CR1 = 0x0;
 615              		.loc 1 579 0
 616 002a 7B68     		ldr	r3, [r7, #4]
 617 002c 1B68     		ldr	r3, [r3]
 618 002e 0022     		movs	r2, #0
 619 0030 1A60     		str	r2, [r3]
 580:Drivers/STM32F3xx_HAL_Driver/Src/stm32f3xx_hal_uart.c ****   huart->Instance->CR2 = 0x0;
 620              		.loc 1 580 0
 621 0032 7B68     		ldr	r3, [r7, #4]
 622 0034 1B68     		ldr	r3, [r3]
 623 0036 0022     		movs	r2, #0
 624 0038 5A60     		str	r2, [r3, #4]
 581:Drivers/STM32F3xx_HAL_Driver/Src/stm32f3xx_hal_uart.c ****   huart->Instance->CR3 = 0x0;
 625              		.loc 1 581 0
ARM GAS  /var/folders/0z/_3zh0q697778kwks4bv8s9bh0000gn/T//ccPzatuz.s 			page 22


 626 003a 7B68     		ldr	r3, [r7, #4]
 627 003c 1B68     		ldr	r3, [r3]
 628 003e 0022     		movs	r2, #0
 629 0040 9A60     		str	r2, [r3, #8]
 582:Drivers/STM32F3xx_HAL_Driver/Src/stm32f3xx_hal_uart.c **** 
 583:Drivers/STM32F3xx_HAL_Driver/Src/stm32f3xx_hal_uart.c ****   /* DeInit the low level hardware */
 584:Drivers/STM32F3xx_HAL_Driver/Src/stm32f3xx_hal_uart.c ****   HAL_UART_MspDeInit(huart);
 630              		.loc 1 584 0
 631 0042 7868     		ldr	r0, [r7, #4]
 632 0044 FFF7FEFF 		bl	HAL_UART_MspDeInit
 585:Drivers/STM32F3xx_HAL_Driver/Src/stm32f3xx_hal_uart.c **** 
 586:Drivers/STM32F3xx_HAL_Driver/Src/stm32f3xx_hal_uart.c ****   huart->ErrorCode = HAL_UART_ERROR_NONE;
 633              		.loc 1 586 0
 634 0048 7B68     		ldr	r3, [r7, #4]
 635 004a 0022     		movs	r2, #0
 636 004c DA66     		str	r2, [r3, #108]
 587:Drivers/STM32F3xx_HAL_Driver/Src/stm32f3xx_hal_uart.c ****   huart->gState = HAL_UART_STATE_RESET;
 637              		.loc 1 587 0
 638 004e 7B68     		ldr	r3, [r7, #4]
 639 0050 0022     		movs	r2, #0
 640 0052 83F86920 		strb	r2, [r3, #105]
 588:Drivers/STM32F3xx_HAL_Driver/Src/stm32f3xx_hal_uart.c ****   huart->RxState = HAL_UART_STATE_RESET;
 641              		.loc 1 588 0
 642 0056 7B68     		ldr	r3, [r7, #4]
 643 0058 0022     		movs	r2, #0
 644 005a 83F86A20 		strb	r2, [r3, #106]
 589:Drivers/STM32F3xx_HAL_Driver/Src/stm32f3xx_hal_uart.c **** 
 590:Drivers/STM32F3xx_HAL_Driver/Src/stm32f3xx_hal_uart.c ****   /* Process Unlock */
 591:Drivers/STM32F3xx_HAL_Driver/Src/stm32f3xx_hal_uart.c ****   __HAL_UNLOCK(huart);
 645              		.loc 1 591 0
 646 005e 7B68     		ldr	r3, [r7, #4]
 647 0060 0022     		movs	r2, #0
 648 0062 83F86820 		strb	r2, [r3, #104]
 592:Drivers/STM32F3xx_HAL_Driver/Src/stm32f3xx_hal_uart.c **** 
 593:Drivers/STM32F3xx_HAL_Driver/Src/stm32f3xx_hal_uart.c ****   return HAL_OK;
 649              		.loc 1 593 0
 650 0066 0023     		movs	r3, #0
 651              	.L30:
 594:Drivers/STM32F3xx_HAL_Driver/Src/stm32f3xx_hal_uart.c **** }
 652              		.loc 1 594 0
 653 0068 1846     		mov	r0, r3
 654 006a 0837     		adds	r7, r7, #8
 655              	.LCFI23:
 656              		.cfi_def_cfa_offset 8
 657 006c BD46     		mov	sp, r7
 658              	.LCFI24:
 659              		.cfi_def_cfa_register 13
 660              		@ sp needed
 661 006e 80BD     		pop	{r7, pc}
 662              		.cfi_endproc
 663              	.LFE127:
 665              		.section	.text.HAL_UART_MspInit,"ax",%progbits
 666              		.align	2
 667              		.weak	HAL_UART_MspInit
 668              		.thumb
 669              		.thumb_func
 671              	HAL_UART_MspInit:
ARM GAS  /var/folders/0z/_3zh0q697778kwks4bv8s9bh0000gn/T//ccPzatuz.s 			page 23


 672              	.LFB128:
 595:Drivers/STM32F3xx_HAL_Driver/Src/stm32f3xx_hal_uart.c **** 
 596:Drivers/STM32F3xx_HAL_Driver/Src/stm32f3xx_hal_uart.c **** /**
 597:Drivers/STM32F3xx_HAL_Driver/Src/stm32f3xx_hal_uart.c ****   * @brief Initialize the UART MSP.
 598:Drivers/STM32F3xx_HAL_Driver/Src/stm32f3xx_hal_uart.c ****   * @param huart: UART handle.
 599:Drivers/STM32F3xx_HAL_Driver/Src/stm32f3xx_hal_uart.c ****   * @retval None
 600:Drivers/STM32F3xx_HAL_Driver/Src/stm32f3xx_hal_uart.c ****   */
 601:Drivers/STM32F3xx_HAL_Driver/Src/stm32f3xx_hal_uart.c ****  __weak void HAL_UART_MspInit(UART_HandleTypeDef *huart)
 602:Drivers/STM32F3xx_HAL_Driver/Src/stm32f3xx_hal_uart.c **** {
 673              		.loc 1 602 0
 674              		.cfi_startproc
 675              		@ args = 0, pretend = 0, frame = 8
 676              		@ frame_needed = 1, uses_anonymous_args = 0
 677              		@ link register save eliminated.
 678 0000 80B4     		push	{r7}
 679              	.LCFI25:
 680              		.cfi_def_cfa_offset 4
 681              		.cfi_offset 7, -4
 682 0002 83B0     		sub	sp, sp, #12
 683              	.LCFI26:
 684              		.cfi_def_cfa_offset 16
 685 0004 00AF     		add	r7, sp, #0
 686              	.LCFI27:
 687              		.cfi_def_cfa_register 7
 688 0006 7860     		str	r0, [r7, #4]
 603:Drivers/STM32F3xx_HAL_Driver/Src/stm32f3xx_hal_uart.c ****   /* Prevent unused argument(s) compilation warning */
 604:Drivers/STM32F3xx_HAL_Driver/Src/stm32f3xx_hal_uart.c ****   UNUSED(huart);
 605:Drivers/STM32F3xx_HAL_Driver/Src/stm32f3xx_hal_uart.c **** 
 606:Drivers/STM32F3xx_HAL_Driver/Src/stm32f3xx_hal_uart.c ****   /* NOTE : This function should not be modified, when the callback is needed,
 607:Drivers/STM32F3xx_HAL_Driver/Src/stm32f3xx_hal_uart.c ****             the HAL_UART_MspInit can be implemented in the user file
 608:Drivers/STM32F3xx_HAL_Driver/Src/stm32f3xx_hal_uart.c ****    */
 609:Drivers/STM32F3xx_HAL_Driver/Src/stm32f3xx_hal_uart.c **** }
 689              		.loc 1 609 0
 690 0008 0C37     		adds	r7, r7, #12
 691              	.LCFI28:
 692              		.cfi_def_cfa_offset 4
 693 000a BD46     		mov	sp, r7
 694              	.LCFI29:
 695              		.cfi_def_cfa_register 13
 696              		@ sp needed
 697 000c 5DF8047B 		ldr	r7, [sp], #4
 698              	.LCFI30:
 699              		.cfi_restore 7
 700              		.cfi_def_cfa_offset 0
 701 0010 7047     		bx	lr
 702              		.cfi_endproc
 703              	.LFE128:
 705 0012 00BF     		.section	.text.HAL_UART_MspDeInit,"ax",%progbits
 706              		.align	2
 707              		.weak	HAL_UART_MspDeInit
 708              		.thumb
 709              		.thumb_func
 711              	HAL_UART_MspDeInit:
 712              	.LFB129:
 610:Drivers/STM32F3xx_HAL_Driver/Src/stm32f3xx_hal_uart.c **** 
 611:Drivers/STM32F3xx_HAL_Driver/Src/stm32f3xx_hal_uart.c **** /**
 612:Drivers/STM32F3xx_HAL_Driver/Src/stm32f3xx_hal_uart.c ****   * @brief DeInitialize the UART MSP.
ARM GAS  /var/folders/0z/_3zh0q697778kwks4bv8s9bh0000gn/T//ccPzatuz.s 			page 24


 613:Drivers/STM32F3xx_HAL_Driver/Src/stm32f3xx_hal_uart.c ****   * @param huart: UART handle.
 614:Drivers/STM32F3xx_HAL_Driver/Src/stm32f3xx_hal_uart.c ****   * @retval None
 615:Drivers/STM32F3xx_HAL_Driver/Src/stm32f3xx_hal_uart.c ****   */
 616:Drivers/STM32F3xx_HAL_Driver/Src/stm32f3xx_hal_uart.c ****  __weak void HAL_UART_MspDeInit(UART_HandleTypeDef *huart)
 617:Drivers/STM32F3xx_HAL_Driver/Src/stm32f3xx_hal_uart.c **** {
 713              		.loc 1 617 0
 714              		.cfi_startproc
 715              		@ args = 0, pretend = 0, frame = 8
 716              		@ frame_needed = 1, uses_anonymous_args = 0
 717              		@ link register save eliminated.
 718 0000 80B4     		push	{r7}
 719              	.LCFI31:
 720              		.cfi_def_cfa_offset 4
 721              		.cfi_offset 7, -4
 722 0002 83B0     		sub	sp, sp, #12
 723              	.LCFI32:
 724              		.cfi_def_cfa_offset 16
 725 0004 00AF     		add	r7, sp, #0
 726              	.LCFI33:
 727              		.cfi_def_cfa_register 7
 728 0006 7860     		str	r0, [r7, #4]
 618:Drivers/STM32F3xx_HAL_Driver/Src/stm32f3xx_hal_uart.c ****   /* Prevent unused argument(s) compilation warning */
 619:Drivers/STM32F3xx_HAL_Driver/Src/stm32f3xx_hal_uart.c ****   UNUSED(huart);
 620:Drivers/STM32F3xx_HAL_Driver/Src/stm32f3xx_hal_uart.c **** 
 621:Drivers/STM32F3xx_HAL_Driver/Src/stm32f3xx_hal_uart.c ****   /* NOTE : This function should not be modified, when the callback is needed,
 622:Drivers/STM32F3xx_HAL_Driver/Src/stm32f3xx_hal_uart.c ****             the HAL_UART_MspDeInit can be implemented in the user file
 623:Drivers/STM32F3xx_HAL_Driver/Src/stm32f3xx_hal_uart.c ****    */
 624:Drivers/STM32F3xx_HAL_Driver/Src/stm32f3xx_hal_uart.c **** }
 729              		.loc 1 624 0
 730 0008 0C37     		adds	r7, r7, #12
 731              	.LCFI34:
 732              		.cfi_def_cfa_offset 4
 733 000a BD46     		mov	sp, r7
 734              	.LCFI35:
 735              		.cfi_def_cfa_register 13
 736              		@ sp needed
 737 000c 5DF8047B 		ldr	r7, [sp], #4
 738              	.LCFI36:
 739              		.cfi_restore 7
 740              		.cfi_def_cfa_offset 0
 741 0010 7047     		bx	lr
 742              		.cfi_endproc
 743              	.LFE129:
 745 0012 00BF     		.section	.text.HAL_UART_Transmit,"ax",%progbits
 746              		.align	2
 747              		.global	HAL_UART_Transmit
 748              		.thumb
 749              		.thumb_func
 751              	HAL_UART_Transmit:
 752              	.LFB130:
 625:Drivers/STM32F3xx_HAL_Driver/Src/stm32f3xx_hal_uart.c **** 
 626:Drivers/STM32F3xx_HAL_Driver/Src/stm32f3xx_hal_uart.c **** /**
 627:Drivers/STM32F3xx_HAL_Driver/Src/stm32f3xx_hal_uart.c ****   * @}
 628:Drivers/STM32F3xx_HAL_Driver/Src/stm32f3xx_hal_uart.c ****   */
 629:Drivers/STM32F3xx_HAL_Driver/Src/stm32f3xx_hal_uart.c **** 
 630:Drivers/STM32F3xx_HAL_Driver/Src/stm32f3xx_hal_uart.c **** /** @defgroup UART_Exported_Functions_Group2 IO operation functions
 631:Drivers/STM32F3xx_HAL_Driver/Src/stm32f3xx_hal_uart.c ****   * @brief UART Transmit/Receive functions
ARM GAS  /var/folders/0z/_3zh0q697778kwks4bv8s9bh0000gn/T//ccPzatuz.s 			page 25


 632:Drivers/STM32F3xx_HAL_Driver/Src/stm32f3xx_hal_uart.c ****   *
 633:Drivers/STM32F3xx_HAL_Driver/Src/stm32f3xx_hal_uart.c **** @verbatim
 634:Drivers/STM32F3xx_HAL_Driver/Src/stm32f3xx_hal_uart.c ****  ===============================================================================
 635:Drivers/STM32F3xx_HAL_Driver/Src/stm32f3xx_hal_uart.c ****                       ##### IO operation functions #####
 636:Drivers/STM32F3xx_HAL_Driver/Src/stm32f3xx_hal_uart.c ****  ===============================================================================
 637:Drivers/STM32F3xx_HAL_Driver/Src/stm32f3xx_hal_uart.c ****     This subsection provides a set of functions allowing to manage the UART asynchronous
 638:Drivers/STM32F3xx_HAL_Driver/Src/stm32f3xx_hal_uart.c ****     and Half duplex data transfers.
 639:Drivers/STM32F3xx_HAL_Driver/Src/stm32f3xx_hal_uart.c **** 
 640:Drivers/STM32F3xx_HAL_Driver/Src/stm32f3xx_hal_uart.c ****     (#) There are two mode of transfer:
 641:Drivers/STM32F3xx_HAL_Driver/Src/stm32f3xx_hal_uart.c ****        (+) Blocking mode: The communication is performed in polling mode.
 642:Drivers/STM32F3xx_HAL_Driver/Src/stm32f3xx_hal_uart.c ****             The HAL status of all data processing is returned by the same function
 643:Drivers/STM32F3xx_HAL_Driver/Src/stm32f3xx_hal_uart.c ****             after finishing transfer.
 644:Drivers/STM32F3xx_HAL_Driver/Src/stm32f3xx_hal_uart.c ****        (+) No-Blocking mode: The communication is performed using Interrupts
 645:Drivers/STM32F3xx_HAL_Driver/Src/stm32f3xx_hal_uart.c ****            or DMA, These API's return the HAL status.
 646:Drivers/STM32F3xx_HAL_Driver/Src/stm32f3xx_hal_uart.c ****            The end of the data processing will be indicated through the
 647:Drivers/STM32F3xx_HAL_Driver/Src/stm32f3xx_hal_uart.c ****            dedicated UART IRQ when using Interrupt mode or the DMA IRQ when
 648:Drivers/STM32F3xx_HAL_Driver/Src/stm32f3xx_hal_uart.c ****            using DMA mode.
 649:Drivers/STM32F3xx_HAL_Driver/Src/stm32f3xx_hal_uart.c ****            The HAL_UART_TxCpltCallback(), HAL_UART_RxCpltCallback() user callbacks
 650:Drivers/STM32F3xx_HAL_Driver/Src/stm32f3xx_hal_uart.c ****            will be executed respectively at the end of the transmit or Receive process
 651:Drivers/STM32F3xx_HAL_Driver/Src/stm32f3xx_hal_uart.c ****            The HAL_UART_ErrorCallback()user callback will be executed when a communication error is
 652:Drivers/STM32F3xx_HAL_Driver/Src/stm32f3xx_hal_uart.c **** 
 653:Drivers/STM32F3xx_HAL_Driver/Src/stm32f3xx_hal_uart.c ****     (#) Blocking mode API's are :
 654:Drivers/STM32F3xx_HAL_Driver/Src/stm32f3xx_hal_uart.c ****         (+) HAL_UART_Transmit()
 655:Drivers/STM32F3xx_HAL_Driver/Src/stm32f3xx_hal_uart.c ****         (+) HAL_UART_Receive()
 656:Drivers/STM32F3xx_HAL_Driver/Src/stm32f3xx_hal_uart.c **** 
 657:Drivers/STM32F3xx_HAL_Driver/Src/stm32f3xx_hal_uart.c ****     (#) No-Blocking mode API's with Interrupt are :
 658:Drivers/STM32F3xx_HAL_Driver/Src/stm32f3xx_hal_uart.c ****         (+) HAL_UART_Transmit_IT()
 659:Drivers/STM32F3xx_HAL_Driver/Src/stm32f3xx_hal_uart.c ****         (+) HAL_UART_Receive_IT()
 660:Drivers/STM32F3xx_HAL_Driver/Src/stm32f3xx_hal_uart.c ****         (+) HAL_UART_IRQHandler()
 661:Drivers/STM32F3xx_HAL_Driver/Src/stm32f3xx_hal_uart.c **** 
 662:Drivers/STM32F3xx_HAL_Driver/Src/stm32f3xx_hal_uart.c ****     (#) No-Blocking mode API's with DMA are :
 663:Drivers/STM32F3xx_HAL_Driver/Src/stm32f3xx_hal_uart.c ****         (+) HAL_UART_Transmit_DMA()
 664:Drivers/STM32F3xx_HAL_Driver/Src/stm32f3xx_hal_uart.c ****         (+) HAL_UART_Receive_DMA()
 665:Drivers/STM32F3xx_HAL_Driver/Src/stm32f3xx_hal_uart.c ****         (+) HAL_UART_DMAPause()
 666:Drivers/STM32F3xx_HAL_Driver/Src/stm32f3xx_hal_uart.c ****         (+) HAL_UART_DMAResume()
 667:Drivers/STM32F3xx_HAL_Driver/Src/stm32f3xx_hal_uart.c ****         (+) HAL_UART_DMAStop()
 668:Drivers/STM32F3xx_HAL_Driver/Src/stm32f3xx_hal_uart.c **** 
 669:Drivers/STM32F3xx_HAL_Driver/Src/stm32f3xx_hal_uart.c ****     (#) A set of Transfer Complete Callbacks are provided in No_Blocking mode:
 670:Drivers/STM32F3xx_HAL_Driver/Src/stm32f3xx_hal_uart.c ****         (+) HAL_UART_TxHalfCpltCallback()
 671:Drivers/STM32F3xx_HAL_Driver/Src/stm32f3xx_hal_uart.c ****         (+) HAL_UART_TxCpltCallback()
 672:Drivers/STM32F3xx_HAL_Driver/Src/stm32f3xx_hal_uart.c ****         (+) HAL_UART_RxHalfCpltCallback()
 673:Drivers/STM32F3xx_HAL_Driver/Src/stm32f3xx_hal_uart.c ****         (+) HAL_UART_RxCpltCallback()
 674:Drivers/STM32F3xx_HAL_Driver/Src/stm32f3xx_hal_uart.c ****         (+) HAL_UART_ErrorCallback()
 675:Drivers/STM32F3xx_HAL_Driver/Src/stm32f3xx_hal_uart.c **** 
 676:Drivers/STM32F3xx_HAL_Driver/Src/stm32f3xx_hal_uart.c **** 
 677:Drivers/STM32F3xx_HAL_Driver/Src/stm32f3xx_hal_uart.c ****     -@- In the Half duplex communication, it is forbidden to run the transmit
 678:Drivers/STM32F3xx_HAL_Driver/Src/stm32f3xx_hal_uart.c ****         and receive process in parallel, the UART state HAL_UART_STATE_BUSY_TX_RX can't be useful.
 679:Drivers/STM32F3xx_HAL_Driver/Src/stm32f3xx_hal_uart.c **** 
 680:Drivers/STM32F3xx_HAL_Driver/Src/stm32f3xx_hal_uart.c **** @endverbatim
 681:Drivers/STM32F3xx_HAL_Driver/Src/stm32f3xx_hal_uart.c ****   * @{
 682:Drivers/STM32F3xx_HAL_Driver/Src/stm32f3xx_hal_uart.c ****   */
 683:Drivers/STM32F3xx_HAL_Driver/Src/stm32f3xx_hal_uart.c **** 
 684:Drivers/STM32F3xx_HAL_Driver/Src/stm32f3xx_hal_uart.c **** /**
 685:Drivers/STM32F3xx_HAL_Driver/Src/stm32f3xx_hal_uart.c ****   * @brief Send an amount of data in blocking mode.
 686:Drivers/STM32F3xx_HAL_Driver/Src/stm32f3xx_hal_uart.c ****   * @param huart: UART handle.
 687:Drivers/STM32F3xx_HAL_Driver/Src/stm32f3xx_hal_uart.c ****   * @param pData: Pointer to data buffer.
 688:Drivers/STM32F3xx_HAL_Driver/Src/stm32f3xx_hal_uart.c ****   * @param Size: Amount of data to be sent.
ARM GAS  /var/folders/0z/_3zh0q697778kwks4bv8s9bh0000gn/T//ccPzatuz.s 			page 26


 689:Drivers/STM32F3xx_HAL_Driver/Src/stm32f3xx_hal_uart.c ****   * @param Timeout: Timeout duration.
 690:Drivers/STM32F3xx_HAL_Driver/Src/stm32f3xx_hal_uart.c ****   * @retval HAL status
 691:Drivers/STM32F3xx_HAL_Driver/Src/stm32f3xx_hal_uart.c ****   */
 692:Drivers/STM32F3xx_HAL_Driver/Src/stm32f3xx_hal_uart.c **** HAL_StatusTypeDef HAL_UART_Transmit(UART_HandleTypeDef *huart, uint8_t *pData, uint16_t Size, uint3
 693:Drivers/STM32F3xx_HAL_Driver/Src/stm32f3xx_hal_uart.c **** {
 753              		.loc 1 693 0
 754              		.cfi_startproc
 755              		@ args = 0, pretend = 0, frame = 24
 756              		@ frame_needed = 1, uses_anonymous_args = 0
 757 0000 80B5     		push	{r7, lr}
 758              	.LCFI37:
 759              		.cfi_def_cfa_offset 8
 760              		.cfi_offset 7, -8
 761              		.cfi_offset 14, -4
 762 0002 86B0     		sub	sp, sp, #24
 763              	.LCFI38:
 764              		.cfi_def_cfa_offset 32
 765 0004 00AF     		add	r7, sp, #0
 766              	.LCFI39:
 767              		.cfi_def_cfa_register 7
 768 0006 F860     		str	r0, [r7, #12]
 769 0008 B960     		str	r1, [r7, #8]
 770 000a 3B60     		str	r3, [r7]
 771 000c 1346     		mov	r3, r2	@ movhi
 772 000e FB80     		strh	r3, [r7, #6]	@ movhi
 694:Drivers/STM32F3xx_HAL_Driver/Src/stm32f3xx_hal_uart.c ****    uint16_t* tmp;
 695:Drivers/STM32F3xx_HAL_Driver/Src/stm32f3xx_hal_uart.c **** 
 696:Drivers/STM32F3xx_HAL_Driver/Src/stm32f3xx_hal_uart.c ****   /* Check that a Tx process is not already ongoing */
 697:Drivers/STM32F3xx_HAL_Driver/Src/stm32f3xx_hal_uart.c ****   if(huart->gState == HAL_UART_STATE_READY)
 773              		.loc 1 697 0
 774 0010 FB68     		ldr	r3, [r7, #12]
 775 0012 93F86930 		ldrb	r3, [r3, #105]
 776 0016 DBB2     		uxtb	r3, r3
 777 0018 202B     		cmp	r3, #32
 778 001a 6ED1     		bne	.L34
 698:Drivers/STM32F3xx_HAL_Driver/Src/stm32f3xx_hal_uart.c ****   {
 699:Drivers/STM32F3xx_HAL_Driver/Src/stm32f3xx_hal_uart.c ****     if((pData == NULL ) || (Size == 0))
 779              		.loc 1 699 0
 780 001c BB68     		ldr	r3, [r7, #8]
 781 001e 002B     		cmp	r3, #0
 782 0020 02D0     		beq	.L35
 783              		.loc 1 699 0 is_stmt 0 discriminator 1
 784 0022 FB88     		ldrh	r3, [r7, #6]
 785 0024 002B     		cmp	r3, #0
 786 0026 01D1     		bne	.L36
 787              	.L35:
 700:Drivers/STM32F3xx_HAL_Driver/Src/stm32f3xx_hal_uart.c ****     {
 701:Drivers/STM32F3xx_HAL_Driver/Src/stm32f3xx_hal_uart.c ****       return  HAL_ERROR;
 788              		.loc 1 701 0 is_stmt 1
 789 0028 0123     		movs	r3, #1
 790 002a 67E0     		b	.L37
 791              	.L36:
 702:Drivers/STM32F3xx_HAL_Driver/Src/stm32f3xx_hal_uart.c ****     }
 703:Drivers/STM32F3xx_HAL_Driver/Src/stm32f3xx_hal_uart.c **** 
 704:Drivers/STM32F3xx_HAL_Driver/Src/stm32f3xx_hal_uart.c ****     /* Process Locked */
 705:Drivers/STM32F3xx_HAL_Driver/Src/stm32f3xx_hal_uart.c ****     __HAL_LOCK(huart);
 792              		.loc 1 705 0
ARM GAS  /var/folders/0z/_3zh0q697778kwks4bv8s9bh0000gn/T//ccPzatuz.s 			page 27


 793 002c FB68     		ldr	r3, [r7, #12]
 794 002e 93F86830 		ldrb	r3, [r3, #104]	@ zero_extendqisi2
 795 0032 012B     		cmp	r3, #1
 796 0034 01D1     		bne	.L38
 797              		.loc 1 705 0 is_stmt 0 discriminator 1
 798 0036 0223     		movs	r3, #2
 799 0038 60E0     		b	.L37
 800              	.L38:
 801              		.loc 1 705 0 discriminator 2
 802 003a FB68     		ldr	r3, [r7, #12]
 803 003c 0122     		movs	r2, #1
 804 003e 83F86820 		strb	r2, [r3, #104]
 706:Drivers/STM32F3xx_HAL_Driver/Src/stm32f3xx_hal_uart.c **** 
 707:Drivers/STM32F3xx_HAL_Driver/Src/stm32f3xx_hal_uart.c ****     huart->ErrorCode = HAL_UART_ERROR_NONE;
 805              		.loc 1 707 0 is_stmt 1 discriminator 2
 806 0042 FB68     		ldr	r3, [r7, #12]
 807 0044 0022     		movs	r2, #0
 808 0046 DA66     		str	r2, [r3, #108]
 708:Drivers/STM32F3xx_HAL_Driver/Src/stm32f3xx_hal_uart.c ****     huart->gState = HAL_UART_STATE_BUSY_TX;
 809              		.loc 1 708 0 discriminator 2
 810 0048 FB68     		ldr	r3, [r7, #12]
 811 004a 2122     		movs	r2, #33
 812 004c 83F86920 		strb	r2, [r3, #105]
 709:Drivers/STM32F3xx_HAL_Driver/Src/stm32f3xx_hal_uart.c **** 
 710:Drivers/STM32F3xx_HAL_Driver/Src/stm32f3xx_hal_uart.c ****     huart->TxXferSize = Size;
 813              		.loc 1 710 0 discriminator 2
 814 0050 FB68     		ldr	r3, [r7, #12]
 815 0052 FA88     		ldrh	r2, [r7, #6]	@ movhi
 816 0054 A3F85020 		strh	r2, [r3, #80]	@ movhi
 711:Drivers/STM32F3xx_HAL_Driver/Src/stm32f3xx_hal_uart.c ****     huart->TxXferCount = Size;
 817              		.loc 1 711 0 discriminator 2
 818 0058 FB68     		ldr	r3, [r7, #12]
 819 005a FA88     		ldrh	r2, [r7, #6]	@ movhi
 820 005c A3F85220 		strh	r2, [r3, #82]	@ movhi
 712:Drivers/STM32F3xx_HAL_Driver/Src/stm32f3xx_hal_uart.c ****     while(huart->TxXferCount > 0)
 821              		.loc 1 712 0 discriminator 2
 822 0060 31E0     		b	.L39
 823              	.L42:
 713:Drivers/STM32F3xx_HAL_Driver/Src/stm32f3xx_hal_uart.c ****     {
 714:Drivers/STM32F3xx_HAL_Driver/Src/stm32f3xx_hal_uart.c ****       huart->TxXferCount--;
 824              		.loc 1 714 0
 825 0062 FB68     		ldr	r3, [r7, #12]
 826 0064 B3F85230 		ldrh	r3, [r3, #82]
 827 0068 013B     		subs	r3, r3, #1
 828 006a 9AB2     		uxth	r2, r3
 829 006c FB68     		ldr	r3, [r7, #12]
 830 006e A3F85220 		strh	r2, [r3, #82]	@ movhi
 715:Drivers/STM32F3xx_HAL_Driver/Src/stm32f3xx_hal_uart.c ****       if(UART_WaitOnFlagUntilTimeout(huart, UART_FLAG_TXE, RESET, Timeout) != HAL_OK)
 831              		.loc 1 715 0
 832 0072 F868     		ldr	r0, [r7, #12]
 833 0074 8021     		movs	r1, #128
 834 0076 0022     		movs	r2, #0
 835 0078 3B68     		ldr	r3, [r7]
 836 007a FFF7FEFF 		bl	UART_WaitOnFlagUntilTimeout
 837 007e 0346     		mov	r3, r0
 838 0080 002B     		cmp	r3, #0
 839 0082 01D0     		beq	.L40
ARM GAS  /var/folders/0z/_3zh0q697778kwks4bv8s9bh0000gn/T//ccPzatuz.s 			page 28


 716:Drivers/STM32F3xx_HAL_Driver/Src/stm32f3xx_hal_uart.c ****       {
 717:Drivers/STM32F3xx_HAL_Driver/Src/stm32f3xx_hal_uart.c ****         return HAL_TIMEOUT;
 840              		.loc 1 717 0
 841 0084 0323     		movs	r3, #3
 842 0086 39E0     		b	.L37
 843              	.L40:
 718:Drivers/STM32F3xx_HAL_Driver/Src/stm32f3xx_hal_uart.c ****       }
 719:Drivers/STM32F3xx_HAL_Driver/Src/stm32f3xx_hal_uart.c ****       if ((huart->Init.WordLength == UART_WORDLENGTH_9B) && (huart->Init.Parity == UART_PARITY_NONE
 844              		.loc 1 719 0
 845 0088 FB68     		ldr	r3, [r7, #12]
 846 008a 9B68     		ldr	r3, [r3, #8]
 847 008c B3F5805F 		cmp	r3, #4096
 848 0090 11D1     		bne	.L41
 849              		.loc 1 719 0 is_stmt 0 discriminator 1
 850 0092 FB68     		ldr	r3, [r7, #12]
 851 0094 1B69     		ldr	r3, [r3, #16]
 852 0096 002B     		cmp	r3, #0
 853 0098 0DD1     		bne	.L41
 720:Drivers/STM32F3xx_HAL_Driver/Src/stm32f3xx_hal_uart.c ****       {
 721:Drivers/STM32F3xx_HAL_Driver/Src/stm32f3xx_hal_uart.c ****         tmp = (uint16_t*) pData;
 854              		.loc 1 721 0 is_stmt 1
 855 009a BB68     		ldr	r3, [r7, #8]
 856 009c 7B61     		str	r3, [r7, #20]
 722:Drivers/STM32F3xx_HAL_Driver/Src/stm32f3xx_hal_uart.c ****         huart->Instance->TDR = (*tmp & (uint16_t)0x01FF);
 857              		.loc 1 722 0
 858 009e FB68     		ldr	r3, [r7, #12]
 859 00a0 1B68     		ldr	r3, [r3]
 860 00a2 7A69     		ldr	r2, [r7, #20]
 861 00a4 1288     		ldrh	r2, [r2]
 862 00a6 C2F30802 		ubfx	r2, r2, #0, #9
 863 00aa 92B2     		uxth	r2, r2
 864 00ac 1A85     		strh	r2, [r3, #40]	@ movhi
 723:Drivers/STM32F3xx_HAL_Driver/Src/stm32f3xx_hal_uart.c ****         pData += 2;
 865              		.loc 1 723 0
 866 00ae BB68     		ldr	r3, [r7, #8]
 867 00b0 0233     		adds	r3, r3, #2
 868 00b2 BB60     		str	r3, [r7, #8]
 869 00b4 07E0     		b	.L39
 870              	.L41:
 724:Drivers/STM32F3xx_HAL_Driver/Src/stm32f3xx_hal_uart.c ****       }
 725:Drivers/STM32F3xx_HAL_Driver/Src/stm32f3xx_hal_uart.c ****       else
 726:Drivers/STM32F3xx_HAL_Driver/Src/stm32f3xx_hal_uart.c ****       {
 727:Drivers/STM32F3xx_HAL_Driver/Src/stm32f3xx_hal_uart.c ****         huart->Instance->TDR = (*pData++ & (uint8_t)0xFF);
 871              		.loc 1 727 0
 872 00b6 FB68     		ldr	r3, [r7, #12]
 873 00b8 1A68     		ldr	r2, [r3]
 874 00ba BB68     		ldr	r3, [r7, #8]
 875 00bc 591C     		adds	r1, r3, #1
 876 00be B960     		str	r1, [r7, #8]
 877 00c0 1B78     		ldrb	r3, [r3]	@ zero_extendqisi2
 878 00c2 9BB2     		uxth	r3, r3
 879 00c4 1385     		strh	r3, [r2, #40]	@ movhi
 880              	.L39:
 712:Drivers/STM32F3xx_HAL_Driver/Src/stm32f3xx_hal_uart.c ****     {
 881              		.loc 1 712 0
 882 00c6 FB68     		ldr	r3, [r7, #12]
 883 00c8 B3F85230 		ldrh	r3, [r3, #82]
ARM GAS  /var/folders/0z/_3zh0q697778kwks4bv8s9bh0000gn/T//ccPzatuz.s 			page 29


 884 00cc 002B     		cmp	r3, #0
 885 00ce C8D1     		bne	.L42
 728:Drivers/STM32F3xx_HAL_Driver/Src/stm32f3xx_hal_uart.c ****       }
 729:Drivers/STM32F3xx_HAL_Driver/Src/stm32f3xx_hal_uart.c ****     }
 730:Drivers/STM32F3xx_HAL_Driver/Src/stm32f3xx_hal_uart.c ****     if(UART_WaitOnFlagUntilTimeout(huart, UART_FLAG_TC, RESET, Timeout) != HAL_OK)
 886              		.loc 1 730 0
 887 00d0 F868     		ldr	r0, [r7, #12]
 888 00d2 4021     		movs	r1, #64
 889 00d4 0022     		movs	r2, #0
 890 00d6 3B68     		ldr	r3, [r7]
 891 00d8 FFF7FEFF 		bl	UART_WaitOnFlagUntilTimeout
 892 00dc 0346     		mov	r3, r0
 893 00de 002B     		cmp	r3, #0
 894 00e0 01D0     		beq	.L43
 731:Drivers/STM32F3xx_HAL_Driver/Src/stm32f3xx_hal_uart.c ****     {
 732:Drivers/STM32F3xx_HAL_Driver/Src/stm32f3xx_hal_uart.c ****       return HAL_TIMEOUT;
 895              		.loc 1 732 0
 896 00e2 0323     		movs	r3, #3
 897 00e4 0AE0     		b	.L37
 898              	.L43:
 733:Drivers/STM32F3xx_HAL_Driver/Src/stm32f3xx_hal_uart.c ****     }
 734:Drivers/STM32F3xx_HAL_Driver/Src/stm32f3xx_hal_uart.c ****     
 735:Drivers/STM32F3xx_HAL_Driver/Src/stm32f3xx_hal_uart.c ****     /* At end of Tx process, restore huart->gState to Ready */
 736:Drivers/STM32F3xx_HAL_Driver/Src/stm32f3xx_hal_uart.c ****     huart->gState = HAL_UART_STATE_READY;
 899              		.loc 1 736 0
 900 00e6 FB68     		ldr	r3, [r7, #12]
 901 00e8 2022     		movs	r2, #32
 902 00ea 83F86920 		strb	r2, [r3, #105]
 737:Drivers/STM32F3xx_HAL_Driver/Src/stm32f3xx_hal_uart.c **** 
 738:Drivers/STM32F3xx_HAL_Driver/Src/stm32f3xx_hal_uart.c ****     /* Process Unlocked */
 739:Drivers/STM32F3xx_HAL_Driver/Src/stm32f3xx_hal_uart.c ****     __HAL_UNLOCK(huart);
 903              		.loc 1 739 0
 904 00ee FB68     		ldr	r3, [r7, #12]
 905 00f0 0022     		movs	r2, #0
 906 00f2 83F86820 		strb	r2, [r3, #104]
 740:Drivers/STM32F3xx_HAL_Driver/Src/stm32f3xx_hal_uart.c **** 
 741:Drivers/STM32F3xx_HAL_Driver/Src/stm32f3xx_hal_uart.c ****     return HAL_OK;
 907              		.loc 1 741 0
 908 00f6 0023     		movs	r3, #0
 909 00f8 00E0     		b	.L37
 910              	.L34:
 742:Drivers/STM32F3xx_HAL_Driver/Src/stm32f3xx_hal_uart.c ****   }
 743:Drivers/STM32F3xx_HAL_Driver/Src/stm32f3xx_hal_uart.c ****   else
 744:Drivers/STM32F3xx_HAL_Driver/Src/stm32f3xx_hal_uart.c ****   {
 745:Drivers/STM32F3xx_HAL_Driver/Src/stm32f3xx_hal_uart.c ****     return HAL_BUSY;
 911              		.loc 1 745 0
 912 00fa 0223     		movs	r3, #2
 913              	.L37:
 746:Drivers/STM32F3xx_HAL_Driver/Src/stm32f3xx_hal_uart.c ****   }
 747:Drivers/STM32F3xx_HAL_Driver/Src/stm32f3xx_hal_uart.c **** }
 914              		.loc 1 747 0
 915 00fc 1846     		mov	r0, r3
 916 00fe 1837     		adds	r7, r7, #24
 917              	.LCFI40:
 918              		.cfi_def_cfa_offset 8
 919 0100 BD46     		mov	sp, r7
 920              	.LCFI41:
ARM GAS  /var/folders/0z/_3zh0q697778kwks4bv8s9bh0000gn/T//ccPzatuz.s 			page 30


 921              		.cfi_def_cfa_register 13
 922              		@ sp needed
 923 0102 80BD     		pop	{r7, pc}
 924              		.cfi_endproc
 925              	.LFE130:
 927              		.section	.text.HAL_UART_Receive,"ax",%progbits
 928              		.align	2
 929              		.global	HAL_UART_Receive
 930              		.thumb
 931              		.thumb_func
 933              	HAL_UART_Receive:
 934              	.LFB131:
 748:Drivers/STM32F3xx_HAL_Driver/Src/stm32f3xx_hal_uart.c **** 
 749:Drivers/STM32F3xx_HAL_Driver/Src/stm32f3xx_hal_uart.c **** /**
 750:Drivers/STM32F3xx_HAL_Driver/Src/stm32f3xx_hal_uart.c ****   * @brief Receive an amount of data in blocking mode.
 751:Drivers/STM32F3xx_HAL_Driver/Src/stm32f3xx_hal_uart.c ****   * @param huart: UART handle.
 752:Drivers/STM32F3xx_HAL_Driver/Src/stm32f3xx_hal_uart.c ****   * @param pData: pointer to data buffer.
 753:Drivers/STM32F3xx_HAL_Driver/Src/stm32f3xx_hal_uart.c ****   * @param Size: amount of data to be received.
 754:Drivers/STM32F3xx_HAL_Driver/Src/stm32f3xx_hal_uart.c ****   * @param Timeout: Timeout duration.
 755:Drivers/STM32F3xx_HAL_Driver/Src/stm32f3xx_hal_uart.c ****   * @retval HAL status
 756:Drivers/STM32F3xx_HAL_Driver/Src/stm32f3xx_hal_uart.c ****   */
 757:Drivers/STM32F3xx_HAL_Driver/Src/stm32f3xx_hal_uart.c **** HAL_StatusTypeDef HAL_UART_Receive(UART_HandleTypeDef *huart, uint8_t *pData, uint16_t Size, uint32
 758:Drivers/STM32F3xx_HAL_Driver/Src/stm32f3xx_hal_uart.c **** {
 935              		.loc 1 758 0
 936              		.cfi_startproc
 937              		@ args = 0, pretend = 0, frame = 24
 938              		@ frame_needed = 1, uses_anonymous_args = 0
 939 0000 80B5     		push	{r7, lr}
 940              	.LCFI42:
 941              		.cfi_def_cfa_offset 8
 942              		.cfi_offset 7, -8
 943              		.cfi_offset 14, -4
 944 0002 86B0     		sub	sp, sp, #24
 945              	.LCFI43:
 946              		.cfi_def_cfa_offset 32
 947 0004 00AF     		add	r7, sp, #0
 948              	.LCFI44:
 949              		.cfi_def_cfa_register 7
 950 0006 F860     		str	r0, [r7, #12]
 951 0008 B960     		str	r1, [r7, #8]
 952 000a 3B60     		str	r3, [r7]
 953 000c 1346     		mov	r3, r2	@ movhi
 954 000e FB80     		strh	r3, [r7, #6]	@ movhi
 759:Drivers/STM32F3xx_HAL_Driver/Src/stm32f3xx_hal_uart.c ****   uint16_t* tmp;
 760:Drivers/STM32F3xx_HAL_Driver/Src/stm32f3xx_hal_uart.c ****   uint16_t uhMask;
 761:Drivers/STM32F3xx_HAL_Driver/Src/stm32f3xx_hal_uart.c **** 
 762:Drivers/STM32F3xx_HAL_Driver/Src/stm32f3xx_hal_uart.c ****   /* Check that a Rx process is not already ongoing */
 763:Drivers/STM32F3xx_HAL_Driver/Src/stm32f3xx_hal_uart.c ****   if(huart->RxState == HAL_UART_STATE_READY)
 955              		.loc 1 763 0
 956 0010 FB68     		ldr	r3, [r7, #12]
 957 0012 93F86A30 		ldrb	r3, [r3, #106]
 958 0016 DBB2     		uxtb	r3, r3
 959 0018 202B     		cmp	r3, #32
 960 001a 40F0A680 		bne	.L45
 764:Drivers/STM32F3xx_HAL_Driver/Src/stm32f3xx_hal_uart.c ****   {
 765:Drivers/STM32F3xx_HAL_Driver/Src/stm32f3xx_hal_uart.c ****     if((pData == NULL ) || (Size == 0))
 961              		.loc 1 765 0
ARM GAS  /var/folders/0z/_3zh0q697778kwks4bv8s9bh0000gn/T//ccPzatuz.s 			page 31


 962 001e BB68     		ldr	r3, [r7, #8]
 963 0020 002B     		cmp	r3, #0
 964 0022 02D0     		beq	.L46
 965              		.loc 1 765 0 is_stmt 0 discriminator 1
 966 0024 FB88     		ldrh	r3, [r7, #6]
 967 0026 002B     		cmp	r3, #0
 968 0028 01D1     		bne	.L47
 969              	.L46:
 766:Drivers/STM32F3xx_HAL_Driver/Src/stm32f3xx_hal_uart.c ****     {
 767:Drivers/STM32F3xx_HAL_Driver/Src/stm32f3xx_hal_uart.c ****       return  HAL_ERROR;
 970              		.loc 1 767 0 is_stmt 1
 971 002a 0123     		movs	r3, #1
 972 002c 9EE0     		b	.L48
 973              	.L47:
 768:Drivers/STM32F3xx_HAL_Driver/Src/stm32f3xx_hal_uart.c ****     }
 769:Drivers/STM32F3xx_HAL_Driver/Src/stm32f3xx_hal_uart.c **** 
 770:Drivers/STM32F3xx_HAL_Driver/Src/stm32f3xx_hal_uart.c ****     /* Process Locked */
 771:Drivers/STM32F3xx_HAL_Driver/Src/stm32f3xx_hal_uart.c ****     __HAL_LOCK(huart);
 974              		.loc 1 771 0
 975 002e FB68     		ldr	r3, [r7, #12]
 976 0030 93F86830 		ldrb	r3, [r3, #104]	@ zero_extendqisi2
 977 0034 012B     		cmp	r3, #1
 978 0036 01D1     		bne	.L49
 979              		.loc 1 771 0 is_stmt 0 discriminator 1
 980 0038 0223     		movs	r3, #2
 981 003a 97E0     		b	.L48
 982              	.L49:
 983              		.loc 1 771 0 discriminator 2
 984 003c FB68     		ldr	r3, [r7, #12]
 985 003e 0122     		movs	r2, #1
 986 0040 83F86820 		strb	r2, [r3, #104]
 772:Drivers/STM32F3xx_HAL_Driver/Src/stm32f3xx_hal_uart.c **** 
 773:Drivers/STM32F3xx_HAL_Driver/Src/stm32f3xx_hal_uart.c ****     huart->ErrorCode = HAL_UART_ERROR_NONE;
 987              		.loc 1 773 0 is_stmt 1 discriminator 2
 988 0044 FB68     		ldr	r3, [r7, #12]
 989 0046 0022     		movs	r2, #0
 990 0048 DA66     		str	r2, [r3, #108]
 774:Drivers/STM32F3xx_HAL_Driver/Src/stm32f3xx_hal_uart.c ****     huart->RxState = HAL_UART_STATE_BUSY_RX;
 991              		.loc 1 774 0 discriminator 2
 992 004a FB68     		ldr	r3, [r7, #12]
 993 004c 2222     		movs	r2, #34
 994 004e 83F86A20 		strb	r2, [r3, #106]
 775:Drivers/STM32F3xx_HAL_Driver/Src/stm32f3xx_hal_uart.c **** 
 776:Drivers/STM32F3xx_HAL_Driver/Src/stm32f3xx_hal_uart.c ****     huart->RxXferSize = Size;
 995              		.loc 1 776 0 discriminator 2
 996 0052 FB68     		ldr	r3, [r7, #12]
 997 0054 FA88     		ldrh	r2, [r7, #6]	@ movhi
 998 0056 A3F85820 		strh	r2, [r3, #88]	@ movhi
 777:Drivers/STM32F3xx_HAL_Driver/Src/stm32f3xx_hal_uart.c ****     huart->RxXferCount = Size;
 999              		.loc 1 777 0 discriminator 2
 1000 005a FB68     		ldr	r3, [r7, #12]
 1001 005c FA88     		ldrh	r2, [r7, #6]	@ movhi
 1002 005e A3F85A20 		strh	r2, [r3, #90]	@ movhi
 778:Drivers/STM32F3xx_HAL_Driver/Src/stm32f3xx_hal_uart.c **** 
 779:Drivers/STM32F3xx_HAL_Driver/Src/stm32f3xx_hal_uart.c ****     /* Computation of UART mask to apply to RDR register */
 780:Drivers/STM32F3xx_HAL_Driver/Src/stm32f3xx_hal_uart.c ****     UART_MASK_COMPUTATION(huart);
 1003              		.loc 1 780 0 discriminator 2
ARM GAS  /var/folders/0z/_3zh0q697778kwks4bv8s9bh0000gn/T//ccPzatuz.s 			page 32


 1004 0062 FB68     		ldr	r3, [r7, #12]
 1005 0064 9B68     		ldr	r3, [r3, #8]
 1006 0066 B3F5805F 		cmp	r3, #4096
 1007 006a 0ED1     		bne	.L50
 1008              		.loc 1 780 0 is_stmt 0 discriminator 1
 1009 006c FB68     		ldr	r3, [r7, #12]
 1010 006e 1B69     		ldr	r3, [r3, #16]
 1011 0070 002B     		cmp	r3, #0
 1012 0072 05D1     		bne	.L51
 1013              		.loc 1 780 0 discriminator 3
 1014 0074 FB68     		ldr	r3, [r7, #12]
 1015 0076 40F2FF12 		movw	r2, #511
 1016 007a A3F85C20 		strh	r2, [r3, #92]	@ movhi
 1017 007e 28E0     		b	.L53
 1018              	.L51:
 1019              		.loc 1 780 0 discriminator 4
 1020 0080 FB68     		ldr	r3, [r7, #12]
 1021 0082 FF22     		movs	r2, #255
 1022 0084 A3F85C20 		strh	r2, [r3, #92]	@ movhi
 1023 0088 23E0     		b	.L53
 1024              	.L50:
 1025              		.loc 1 780 0 discriminator 2
 1026 008a FB68     		ldr	r3, [r7, #12]
 1027 008c 9B68     		ldr	r3, [r3, #8]
 1028 008e 002B     		cmp	r3, #0
 1029 0090 0DD1     		bne	.L54
 1030              		.loc 1 780 0 discriminator 5
 1031 0092 FB68     		ldr	r3, [r7, #12]
 1032 0094 1B69     		ldr	r3, [r3, #16]
 1033 0096 002B     		cmp	r3, #0
 1034 0098 04D1     		bne	.L55
 1035              		.loc 1 780 0 discriminator 7
 1036 009a FB68     		ldr	r3, [r7, #12]
 1037 009c FF22     		movs	r2, #255
 1038 009e A3F85C20 		strh	r2, [r3, #92]	@ movhi
 1039 00a2 16E0     		b	.L53
 1040              	.L55:
 1041              		.loc 1 780 0 discriminator 8
 1042 00a4 FB68     		ldr	r3, [r7, #12]
 1043 00a6 7F22     		movs	r2, #127
 1044 00a8 A3F85C20 		strh	r2, [r3, #92]	@ movhi
 1045 00ac 11E0     		b	.L53
 1046              	.L54:
 1047              		.loc 1 780 0 discriminator 6
 1048 00ae FB68     		ldr	r3, [r7, #12]
 1049 00b0 9B68     		ldr	r3, [r3, #8]
 1050 00b2 B3F1805F 		cmp	r3, #268435456
 1051 00b6 0CD1     		bne	.L53
 1052              		.loc 1 780 0 discriminator 9
 1053 00b8 FB68     		ldr	r3, [r7, #12]
 1054 00ba 1B69     		ldr	r3, [r3, #16]
 1055 00bc 002B     		cmp	r3, #0
 1056 00be 04D1     		bne	.L57
 1057              		.loc 1 780 0 discriminator 10
 1058 00c0 FB68     		ldr	r3, [r7, #12]
 1059 00c2 7F22     		movs	r2, #127
 1060 00c4 A3F85C20 		strh	r2, [r3, #92]	@ movhi
ARM GAS  /var/folders/0z/_3zh0q697778kwks4bv8s9bh0000gn/T//ccPzatuz.s 			page 33


 1061 00c8 03E0     		b	.L53
 1062              	.L57:
 1063              		.loc 1 780 0 discriminator 11
 1064 00ca FB68     		ldr	r3, [r7, #12]
 1065 00cc 3F22     		movs	r2, #63
 1066 00ce A3F85C20 		strh	r2, [r3, #92]	@ movhi
 1067              	.L53:
 781:Drivers/STM32F3xx_HAL_Driver/Src/stm32f3xx_hal_uart.c ****     uhMask = huart->Mask;
 1068              		.loc 1 781 0 is_stmt 1
 1069 00d2 FB68     		ldr	r3, [r7, #12]
 1070 00d4 B3F85C30 		ldrh	r3, [r3, #92]	@ movhi
 1071 00d8 FB82     		strh	r3, [r7, #22]	@ movhi
 782:Drivers/STM32F3xx_HAL_Driver/Src/stm32f3xx_hal_uart.c **** 
 783:Drivers/STM32F3xx_HAL_Driver/Src/stm32f3xx_hal_uart.c ****     /* as long as data have to be received */
 784:Drivers/STM32F3xx_HAL_Driver/Src/stm32f3xx_hal_uart.c ****     while(huart->RxXferCount > 0)
 1072              		.loc 1 784 0
 1073 00da 37E0     		b	.L58
 1074              	.L61:
 785:Drivers/STM32F3xx_HAL_Driver/Src/stm32f3xx_hal_uart.c ****     {
 786:Drivers/STM32F3xx_HAL_Driver/Src/stm32f3xx_hal_uart.c ****       huart->RxXferCount--;
 1075              		.loc 1 786 0
 1076 00dc FB68     		ldr	r3, [r7, #12]
 1077 00de B3F85A30 		ldrh	r3, [r3, #90]
 1078 00e2 013B     		subs	r3, r3, #1
 1079 00e4 9AB2     		uxth	r2, r3
 1080 00e6 FB68     		ldr	r3, [r7, #12]
 1081 00e8 A3F85A20 		strh	r2, [r3, #90]	@ movhi
 787:Drivers/STM32F3xx_HAL_Driver/Src/stm32f3xx_hal_uart.c ****       if(UART_WaitOnFlagUntilTimeout(huart, UART_FLAG_RXNE, RESET, Timeout) != HAL_OK)
 1082              		.loc 1 787 0
 1083 00ec F868     		ldr	r0, [r7, #12]
 1084 00ee 2021     		movs	r1, #32
 1085 00f0 0022     		movs	r2, #0
 1086 00f2 3B68     		ldr	r3, [r7]
 1087 00f4 FFF7FEFF 		bl	UART_WaitOnFlagUntilTimeout
 1088 00f8 0346     		mov	r3, r0
 1089 00fa 002B     		cmp	r3, #0
 1090 00fc 01D0     		beq	.L59
 788:Drivers/STM32F3xx_HAL_Driver/Src/stm32f3xx_hal_uart.c ****       {
 789:Drivers/STM32F3xx_HAL_Driver/Src/stm32f3xx_hal_uart.c ****         return HAL_TIMEOUT;
 1091              		.loc 1 789 0
 1092 00fe 0323     		movs	r3, #3
 1093 0100 34E0     		b	.L48
 1094              	.L59:
 790:Drivers/STM32F3xx_HAL_Driver/Src/stm32f3xx_hal_uart.c ****       }
 791:Drivers/STM32F3xx_HAL_Driver/Src/stm32f3xx_hal_uart.c ****       if ((huart->Init.WordLength == UART_WORDLENGTH_9B) && (huart->Init.Parity == UART_PARITY_NONE
 1095              		.loc 1 791 0
 1096 0102 FB68     		ldr	r3, [r7, #12]
 1097 0104 9B68     		ldr	r3, [r3, #8]
 1098 0106 B3F5805F 		cmp	r3, #4096
 1099 010a 12D1     		bne	.L60
 1100              		.loc 1 791 0 is_stmt 0 discriminator 1
 1101 010c FB68     		ldr	r3, [r7, #12]
 1102 010e 1B69     		ldr	r3, [r3, #16]
 1103 0110 002B     		cmp	r3, #0
 1104 0112 0ED1     		bne	.L60
 792:Drivers/STM32F3xx_HAL_Driver/Src/stm32f3xx_hal_uart.c ****       {
 793:Drivers/STM32F3xx_HAL_Driver/Src/stm32f3xx_hal_uart.c ****         tmp = (uint16_t*) pData ;
ARM GAS  /var/folders/0z/_3zh0q697778kwks4bv8s9bh0000gn/T//ccPzatuz.s 			page 34


 1105              		.loc 1 793 0 is_stmt 1
 1106 0114 BB68     		ldr	r3, [r7, #8]
 1107 0116 3B61     		str	r3, [r7, #16]
 794:Drivers/STM32F3xx_HAL_Driver/Src/stm32f3xx_hal_uart.c ****         *tmp = (uint16_t)(huart->Instance->RDR & uhMask);
 1108              		.loc 1 794 0
 1109 0118 FB68     		ldr	r3, [r7, #12]
 1110 011a 1B68     		ldr	r3, [r3]
 1111 011c 9B8C     		ldrh	r3, [r3, #36]	@ movhi
 1112 011e 9AB2     		uxth	r2, r3
 1113 0120 FB8A     		ldrh	r3, [r7, #22]	@ movhi
 1114 0122 1340     		ands	r3, r3, r2
 1115 0124 9AB2     		uxth	r2, r3
 1116 0126 3B69     		ldr	r3, [r7, #16]
 1117 0128 1A80     		strh	r2, [r3]	@ movhi
 795:Drivers/STM32F3xx_HAL_Driver/Src/stm32f3xx_hal_uart.c ****         pData +=2;
 1118              		.loc 1 795 0
 1119 012a BB68     		ldr	r3, [r7, #8]
 1120 012c 0233     		adds	r3, r3, #2
 1121 012e BB60     		str	r3, [r7, #8]
 1122 0130 0CE0     		b	.L58
 1123              	.L60:
 796:Drivers/STM32F3xx_HAL_Driver/Src/stm32f3xx_hal_uart.c ****       }
 797:Drivers/STM32F3xx_HAL_Driver/Src/stm32f3xx_hal_uart.c ****       else
 798:Drivers/STM32F3xx_HAL_Driver/Src/stm32f3xx_hal_uart.c ****       {
 799:Drivers/STM32F3xx_HAL_Driver/Src/stm32f3xx_hal_uart.c ****         *pData++ = (uint8_t)(huart->Instance->RDR & (uint8_t)uhMask);
 1124              		.loc 1 799 0
 1125 0132 BB68     		ldr	r3, [r7, #8]
 1126 0134 5A1C     		adds	r2, r3, #1
 1127 0136 BA60     		str	r2, [r7, #8]
 1128 0138 FA68     		ldr	r2, [r7, #12]
 1129 013a 1268     		ldr	r2, [r2]
 1130 013c 928C     		ldrh	r2, [r2, #36]	@ movhi
 1131 013e 92B2     		uxth	r2, r2
 1132 0140 D1B2     		uxtb	r1, r2
 1133 0142 FA8A     		ldrh	r2, [r7, #22]	@ movhi
 1134 0144 D2B2     		uxtb	r2, r2
 1135 0146 0A40     		ands	r2, r2, r1
 1136 0148 D2B2     		uxtb	r2, r2
 1137 014a 1A70     		strb	r2, [r3]
 1138              	.L58:
 784:Drivers/STM32F3xx_HAL_Driver/Src/stm32f3xx_hal_uart.c ****     {
 1139              		.loc 1 784 0
 1140 014c FB68     		ldr	r3, [r7, #12]
 1141 014e B3F85A30 		ldrh	r3, [r3, #90]
 1142 0152 002B     		cmp	r3, #0
 1143 0154 C2D1     		bne	.L61
 800:Drivers/STM32F3xx_HAL_Driver/Src/stm32f3xx_hal_uart.c ****       }
 801:Drivers/STM32F3xx_HAL_Driver/Src/stm32f3xx_hal_uart.c ****     }
 802:Drivers/STM32F3xx_HAL_Driver/Src/stm32f3xx_hal_uart.c **** 
 803:Drivers/STM32F3xx_HAL_Driver/Src/stm32f3xx_hal_uart.c ****     /* At end of Rx process, restore huart->RxState to Ready */
 804:Drivers/STM32F3xx_HAL_Driver/Src/stm32f3xx_hal_uart.c ****     huart->RxState = HAL_UART_STATE_READY;
 1144              		.loc 1 804 0
 1145 0156 FB68     		ldr	r3, [r7, #12]
 1146 0158 2022     		movs	r2, #32
 1147 015a 83F86A20 		strb	r2, [r3, #106]
 805:Drivers/STM32F3xx_HAL_Driver/Src/stm32f3xx_hal_uart.c **** 
 806:Drivers/STM32F3xx_HAL_Driver/Src/stm32f3xx_hal_uart.c ****     /* Process Unlocked */
ARM GAS  /var/folders/0z/_3zh0q697778kwks4bv8s9bh0000gn/T//ccPzatuz.s 			page 35


 807:Drivers/STM32F3xx_HAL_Driver/Src/stm32f3xx_hal_uart.c ****     __HAL_UNLOCK(huart);
 1148              		.loc 1 807 0
 1149 015e FB68     		ldr	r3, [r7, #12]
 1150 0160 0022     		movs	r2, #0
 1151 0162 83F86820 		strb	r2, [r3, #104]
 808:Drivers/STM32F3xx_HAL_Driver/Src/stm32f3xx_hal_uart.c **** 
 809:Drivers/STM32F3xx_HAL_Driver/Src/stm32f3xx_hal_uart.c ****     return HAL_OK;
 1152              		.loc 1 809 0
 1153 0166 0023     		movs	r3, #0
 1154 0168 00E0     		b	.L48
 1155              	.L45:
 810:Drivers/STM32F3xx_HAL_Driver/Src/stm32f3xx_hal_uart.c ****   }
 811:Drivers/STM32F3xx_HAL_Driver/Src/stm32f3xx_hal_uart.c ****   else
 812:Drivers/STM32F3xx_HAL_Driver/Src/stm32f3xx_hal_uart.c ****   {
 813:Drivers/STM32F3xx_HAL_Driver/Src/stm32f3xx_hal_uart.c ****     return HAL_BUSY;
 1156              		.loc 1 813 0
 1157 016a 0223     		movs	r3, #2
 1158              	.L48:
 814:Drivers/STM32F3xx_HAL_Driver/Src/stm32f3xx_hal_uart.c ****   }
 815:Drivers/STM32F3xx_HAL_Driver/Src/stm32f3xx_hal_uart.c **** }
 1159              		.loc 1 815 0
 1160 016c 1846     		mov	r0, r3
 1161 016e 1837     		adds	r7, r7, #24
 1162              	.LCFI45:
 1163              		.cfi_def_cfa_offset 8
 1164 0170 BD46     		mov	sp, r7
 1165              	.LCFI46:
 1166              		.cfi_def_cfa_register 13
 1167              		@ sp needed
 1168 0172 80BD     		pop	{r7, pc}
 1169              		.cfi_endproc
 1170              	.LFE131:
 1172              		.section	.text.HAL_UART_Transmit_IT,"ax",%progbits
 1173              		.align	2
 1174              		.global	HAL_UART_Transmit_IT
 1175              		.thumb
 1176              		.thumb_func
 1178              	HAL_UART_Transmit_IT:
 1179              	.LFB132:
 816:Drivers/STM32F3xx_HAL_Driver/Src/stm32f3xx_hal_uart.c **** 
 817:Drivers/STM32F3xx_HAL_Driver/Src/stm32f3xx_hal_uart.c **** /**
 818:Drivers/STM32F3xx_HAL_Driver/Src/stm32f3xx_hal_uart.c ****   * @brief Send an amount of data in interrupt mode.
 819:Drivers/STM32F3xx_HAL_Driver/Src/stm32f3xx_hal_uart.c ****   * @param huart: UART handle.
 820:Drivers/STM32F3xx_HAL_Driver/Src/stm32f3xx_hal_uart.c ****   * @param pData: pointer to data buffer.
 821:Drivers/STM32F3xx_HAL_Driver/Src/stm32f3xx_hal_uart.c ****   * @param Size: amount of data to be sent.
 822:Drivers/STM32F3xx_HAL_Driver/Src/stm32f3xx_hal_uart.c ****   * @retval HAL status
 823:Drivers/STM32F3xx_HAL_Driver/Src/stm32f3xx_hal_uart.c ****   */
 824:Drivers/STM32F3xx_HAL_Driver/Src/stm32f3xx_hal_uart.c **** HAL_StatusTypeDef HAL_UART_Transmit_IT(UART_HandleTypeDef *huart, uint8_t *pData, uint16_t Size)
 825:Drivers/STM32F3xx_HAL_Driver/Src/stm32f3xx_hal_uart.c **** {
 1180              		.loc 1 825 0
 1181              		.cfi_startproc
 1182              		@ args = 0, pretend = 0, frame = 16
 1183              		@ frame_needed = 1, uses_anonymous_args = 0
 1184              		@ link register save eliminated.
 1185 0000 80B4     		push	{r7}
 1186              	.LCFI47:
 1187              		.cfi_def_cfa_offset 4
ARM GAS  /var/folders/0z/_3zh0q697778kwks4bv8s9bh0000gn/T//ccPzatuz.s 			page 36


 1188              		.cfi_offset 7, -4
 1189 0002 85B0     		sub	sp, sp, #20
 1190              	.LCFI48:
 1191              		.cfi_def_cfa_offset 24
 1192 0004 00AF     		add	r7, sp, #0
 1193              	.LCFI49:
 1194              		.cfi_def_cfa_register 7
 1195 0006 F860     		str	r0, [r7, #12]
 1196 0008 B960     		str	r1, [r7, #8]
 1197 000a 1346     		mov	r3, r2
 1198 000c FB80     		strh	r3, [r7, #6]	@ movhi
 826:Drivers/STM32F3xx_HAL_Driver/Src/stm32f3xx_hal_uart.c ****   /* Check that a Tx process is not already ongoing */
 827:Drivers/STM32F3xx_HAL_Driver/Src/stm32f3xx_hal_uart.c ****   if(huart->gState == HAL_UART_STATE_READY)
 1199              		.loc 1 827 0
 1200 000e FB68     		ldr	r3, [r7, #12]
 1201 0010 93F86930 		ldrb	r3, [r3, #105]
 1202 0014 DBB2     		uxtb	r3, r3
 1203 0016 202B     		cmp	r3, #32
 1204 0018 32D1     		bne	.L63
 828:Drivers/STM32F3xx_HAL_Driver/Src/stm32f3xx_hal_uart.c ****   {
 829:Drivers/STM32F3xx_HAL_Driver/Src/stm32f3xx_hal_uart.c ****     if((pData == NULL ) || (Size == 0))
 1205              		.loc 1 829 0
 1206 001a BB68     		ldr	r3, [r7, #8]
 1207 001c 002B     		cmp	r3, #0
 1208 001e 02D0     		beq	.L64
 1209              		.loc 1 829 0 is_stmt 0 discriminator 1
 1210 0020 FB88     		ldrh	r3, [r7, #6]
 1211 0022 002B     		cmp	r3, #0
 1212 0024 01D1     		bne	.L65
 1213              	.L64:
 830:Drivers/STM32F3xx_HAL_Driver/Src/stm32f3xx_hal_uart.c ****     {
 831:Drivers/STM32F3xx_HAL_Driver/Src/stm32f3xx_hal_uart.c ****       return HAL_ERROR;
 1214              		.loc 1 831 0 is_stmt 1
 1215 0026 0123     		movs	r3, #1
 1216 0028 2BE0     		b	.L66
 1217              	.L65:
 832:Drivers/STM32F3xx_HAL_Driver/Src/stm32f3xx_hal_uart.c ****     }
 833:Drivers/STM32F3xx_HAL_Driver/Src/stm32f3xx_hal_uart.c **** 
 834:Drivers/STM32F3xx_HAL_Driver/Src/stm32f3xx_hal_uart.c ****     /* Process Locked */
 835:Drivers/STM32F3xx_HAL_Driver/Src/stm32f3xx_hal_uart.c ****     __HAL_LOCK(huart);
 1218              		.loc 1 835 0
 1219 002a FB68     		ldr	r3, [r7, #12]
 1220 002c 93F86830 		ldrb	r3, [r3, #104]	@ zero_extendqisi2
 1221 0030 012B     		cmp	r3, #1
 1222 0032 01D1     		bne	.L67
 1223              		.loc 1 835 0 is_stmt 0 discriminator 1
 1224 0034 0223     		movs	r3, #2
 1225 0036 24E0     		b	.L66
 1226              	.L67:
 1227              		.loc 1 835 0 discriminator 2
 1228 0038 FB68     		ldr	r3, [r7, #12]
 1229 003a 0122     		movs	r2, #1
 1230 003c 83F86820 		strb	r2, [r3, #104]
 836:Drivers/STM32F3xx_HAL_Driver/Src/stm32f3xx_hal_uart.c **** 
 837:Drivers/STM32F3xx_HAL_Driver/Src/stm32f3xx_hal_uart.c ****     huart->pTxBuffPtr = pData;
 1231              		.loc 1 837 0 is_stmt 1 discriminator 2
 1232 0040 FB68     		ldr	r3, [r7, #12]
ARM GAS  /var/folders/0z/_3zh0q697778kwks4bv8s9bh0000gn/T//ccPzatuz.s 			page 37


 1233 0042 BA68     		ldr	r2, [r7, #8]
 1234 0044 DA64     		str	r2, [r3, #76]
 838:Drivers/STM32F3xx_HAL_Driver/Src/stm32f3xx_hal_uart.c ****     huart->TxXferSize = Size;
 1235              		.loc 1 838 0 discriminator 2
 1236 0046 FB68     		ldr	r3, [r7, #12]
 1237 0048 FA88     		ldrh	r2, [r7, #6]	@ movhi
 1238 004a A3F85020 		strh	r2, [r3, #80]	@ movhi
 839:Drivers/STM32F3xx_HAL_Driver/Src/stm32f3xx_hal_uart.c ****     huart->TxXferCount = Size;
 1239              		.loc 1 839 0 discriminator 2
 1240 004e FB68     		ldr	r3, [r7, #12]
 1241 0050 FA88     		ldrh	r2, [r7, #6]	@ movhi
 1242 0052 A3F85220 		strh	r2, [r3, #82]	@ movhi
 840:Drivers/STM32F3xx_HAL_Driver/Src/stm32f3xx_hal_uart.c **** 
 841:Drivers/STM32F3xx_HAL_Driver/Src/stm32f3xx_hal_uart.c ****     huart->ErrorCode = HAL_UART_ERROR_NONE;
 1243              		.loc 1 841 0 discriminator 2
 1244 0056 FB68     		ldr	r3, [r7, #12]
 1245 0058 0022     		movs	r2, #0
 1246 005a DA66     		str	r2, [r3, #108]
 842:Drivers/STM32F3xx_HAL_Driver/Src/stm32f3xx_hal_uart.c ****     huart->gState = HAL_UART_STATE_BUSY_TX;
 1247              		.loc 1 842 0 discriminator 2
 1248 005c FB68     		ldr	r3, [r7, #12]
 1249 005e 2122     		movs	r2, #33
 1250 0060 83F86920 		strb	r2, [r3, #105]
 843:Drivers/STM32F3xx_HAL_Driver/Src/stm32f3xx_hal_uart.c **** 
 844:Drivers/STM32F3xx_HAL_Driver/Src/stm32f3xx_hal_uart.c ****     /* Process Unlocked */
 845:Drivers/STM32F3xx_HAL_Driver/Src/stm32f3xx_hal_uart.c ****     __HAL_UNLOCK(huart);
 1251              		.loc 1 845 0 discriminator 2
 1252 0064 FB68     		ldr	r3, [r7, #12]
 1253 0066 0022     		movs	r2, #0
 1254 0068 83F86820 		strb	r2, [r3, #104]
 846:Drivers/STM32F3xx_HAL_Driver/Src/stm32f3xx_hal_uart.c **** 
 847:Drivers/STM32F3xx_HAL_Driver/Src/stm32f3xx_hal_uart.c ****     /* Enable the UART Transmit Data Register Empty Interrupt */
 848:Drivers/STM32F3xx_HAL_Driver/Src/stm32f3xx_hal_uart.c ****     __HAL_UART_ENABLE_IT(huart, UART_IT_TXE);
 1255              		.loc 1 848 0 discriminator 2
 1256 006c FB68     		ldr	r3, [r7, #12]
 1257 006e 1B68     		ldr	r3, [r3]
 1258 0070 FA68     		ldr	r2, [r7, #12]
 1259 0072 1268     		ldr	r2, [r2]
 1260 0074 1268     		ldr	r2, [r2]
 1261 0076 42F08002 		orr	r2, r2, #128
 1262 007a 1A60     		str	r2, [r3]
 849:Drivers/STM32F3xx_HAL_Driver/Src/stm32f3xx_hal_uart.c **** 
 850:Drivers/STM32F3xx_HAL_Driver/Src/stm32f3xx_hal_uart.c ****     return HAL_OK;
 1263              		.loc 1 850 0 discriminator 2
 1264 007c 0023     		movs	r3, #0
 1265 007e 00E0     		b	.L66
 1266              	.L63:
 851:Drivers/STM32F3xx_HAL_Driver/Src/stm32f3xx_hal_uart.c ****   }
 852:Drivers/STM32F3xx_HAL_Driver/Src/stm32f3xx_hal_uart.c ****   else
 853:Drivers/STM32F3xx_HAL_Driver/Src/stm32f3xx_hal_uart.c ****   {
 854:Drivers/STM32F3xx_HAL_Driver/Src/stm32f3xx_hal_uart.c ****     return HAL_BUSY;
 1267              		.loc 1 854 0
 1268 0080 0223     		movs	r3, #2
 1269              	.L66:
 855:Drivers/STM32F3xx_HAL_Driver/Src/stm32f3xx_hal_uart.c ****   }
 856:Drivers/STM32F3xx_HAL_Driver/Src/stm32f3xx_hal_uart.c **** }
 1270              		.loc 1 856 0
ARM GAS  /var/folders/0z/_3zh0q697778kwks4bv8s9bh0000gn/T//ccPzatuz.s 			page 38


 1271 0082 1846     		mov	r0, r3
 1272 0084 1437     		adds	r7, r7, #20
 1273              	.LCFI50:
 1274              		.cfi_def_cfa_offset 4
 1275 0086 BD46     		mov	sp, r7
 1276              	.LCFI51:
 1277              		.cfi_def_cfa_register 13
 1278              		@ sp needed
 1279 0088 5DF8047B 		ldr	r7, [sp], #4
 1280              	.LCFI52:
 1281              		.cfi_restore 7
 1282              		.cfi_def_cfa_offset 0
 1283 008c 7047     		bx	lr
 1284              		.cfi_endproc
 1285              	.LFE132:
 1287 008e 00BF     		.section	.text.HAL_UART_Receive_IT,"ax",%progbits
 1288              		.align	2
 1289              		.global	HAL_UART_Receive_IT
 1290              		.thumb
 1291              		.thumb_func
 1293              	HAL_UART_Receive_IT:
 1294              	.LFB133:
 857:Drivers/STM32F3xx_HAL_Driver/Src/stm32f3xx_hal_uart.c **** 
 858:Drivers/STM32F3xx_HAL_Driver/Src/stm32f3xx_hal_uart.c **** /**
 859:Drivers/STM32F3xx_HAL_Driver/Src/stm32f3xx_hal_uart.c ****   * @brief Receive an amount of data in interrupt mode.
 860:Drivers/STM32F3xx_HAL_Driver/Src/stm32f3xx_hal_uart.c ****   * @param huart: UART handle.
 861:Drivers/STM32F3xx_HAL_Driver/Src/stm32f3xx_hal_uart.c ****   * @param pData: pointer to data buffer.
 862:Drivers/STM32F3xx_HAL_Driver/Src/stm32f3xx_hal_uart.c ****   * @param Size: amount of data to be received.
 863:Drivers/STM32F3xx_HAL_Driver/Src/stm32f3xx_hal_uart.c ****   * @retval HAL status
 864:Drivers/STM32F3xx_HAL_Driver/Src/stm32f3xx_hal_uart.c ****   */
 865:Drivers/STM32F3xx_HAL_Driver/Src/stm32f3xx_hal_uart.c **** HAL_StatusTypeDef HAL_UART_Receive_IT(UART_HandleTypeDef *huart, uint8_t *pData, uint16_t Size)
 866:Drivers/STM32F3xx_HAL_Driver/Src/stm32f3xx_hal_uart.c **** {
 1295              		.loc 1 866 0
 1296              		.cfi_startproc
 1297              		@ args = 0, pretend = 0, frame = 16
 1298              		@ frame_needed = 1, uses_anonymous_args = 0
 1299              		@ link register save eliminated.
 1300 0000 80B4     		push	{r7}
 1301              	.LCFI53:
 1302              		.cfi_def_cfa_offset 4
 1303              		.cfi_offset 7, -4
 1304 0002 85B0     		sub	sp, sp, #20
 1305              	.LCFI54:
 1306              		.cfi_def_cfa_offset 24
 1307 0004 00AF     		add	r7, sp, #0
 1308              	.LCFI55:
 1309              		.cfi_def_cfa_register 7
 1310 0006 F860     		str	r0, [r7, #12]
 1311 0008 B960     		str	r1, [r7, #8]
 1312 000a 1346     		mov	r3, r2
 1313 000c FB80     		strh	r3, [r7, #6]	@ movhi
 867:Drivers/STM32F3xx_HAL_Driver/Src/stm32f3xx_hal_uart.c ****   /* Check that a Rx process is not already ongoing */
 868:Drivers/STM32F3xx_HAL_Driver/Src/stm32f3xx_hal_uart.c ****   if(huart->RxState == HAL_UART_STATE_READY)
 1314              		.loc 1 868 0
 1315 000e FB68     		ldr	r3, [r7, #12]
 1316 0010 93F86A30 		ldrb	r3, [r3, #106]
 1317 0014 DBB2     		uxtb	r3, r3
ARM GAS  /var/folders/0z/_3zh0q697778kwks4bv8s9bh0000gn/T//ccPzatuz.s 			page 39


 1318 0016 202B     		cmp	r3, #32
 1319 0018 7AD1     		bne	.L69
 869:Drivers/STM32F3xx_HAL_Driver/Src/stm32f3xx_hal_uart.c ****   {
 870:Drivers/STM32F3xx_HAL_Driver/Src/stm32f3xx_hal_uart.c ****     if((pData == NULL ) || (Size == 0))
 1320              		.loc 1 870 0
 1321 001a BB68     		ldr	r3, [r7, #8]
 1322 001c 002B     		cmp	r3, #0
 1323 001e 02D0     		beq	.L70
 1324              		.loc 1 870 0 is_stmt 0 discriminator 1
 1325 0020 FB88     		ldrh	r3, [r7, #6]
 1326 0022 002B     		cmp	r3, #0
 1327 0024 01D1     		bne	.L71
 1328              	.L70:
 871:Drivers/STM32F3xx_HAL_Driver/Src/stm32f3xx_hal_uart.c ****     {
 872:Drivers/STM32F3xx_HAL_Driver/Src/stm32f3xx_hal_uart.c ****       return HAL_ERROR;
 1329              		.loc 1 872 0 is_stmt 1
 1330 0026 0123     		movs	r3, #1
 1331 0028 73E0     		b	.L72
 1332              	.L71:
 873:Drivers/STM32F3xx_HAL_Driver/Src/stm32f3xx_hal_uart.c ****     }
 874:Drivers/STM32F3xx_HAL_Driver/Src/stm32f3xx_hal_uart.c **** 
 875:Drivers/STM32F3xx_HAL_Driver/Src/stm32f3xx_hal_uart.c ****     /* Process Locked */
 876:Drivers/STM32F3xx_HAL_Driver/Src/stm32f3xx_hal_uart.c ****     __HAL_LOCK(huart);
 1333              		.loc 1 876 0
 1334 002a FB68     		ldr	r3, [r7, #12]
 1335 002c 93F86830 		ldrb	r3, [r3, #104]	@ zero_extendqisi2
 1336 0030 012B     		cmp	r3, #1
 1337 0032 01D1     		bne	.L73
 1338              		.loc 1 876 0 is_stmt 0 discriminator 1
 1339 0034 0223     		movs	r3, #2
 1340 0036 6CE0     		b	.L72
 1341              	.L73:
 1342              		.loc 1 876 0 discriminator 2
 1343 0038 FB68     		ldr	r3, [r7, #12]
 1344 003a 0122     		movs	r2, #1
 1345 003c 83F86820 		strb	r2, [r3, #104]
 877:Drivers/STM32F3xx_HAL_Driver/Src/stm32f3xx_hal_uart.c **** 
 878:Drivers/STM32F3xx_HAL_Driver/Src/stm32f3xx_hal_uart.c ****     huart->pRxBuffPtr = pData;
 1346              		.loc 1 878 0 is_stmt 1 discriminator 2
 1347 0040 FB68     		ldr	r3, [r7, #12]
 1348 0042 BA68     		ldr	r2, [r7, #8]
 1349 0044 5A65     		str	r2, [r3, #84]
 879:Drivers/STM32F3xx_HAL_Driver/Src/stm32f3xx_hal_uart.c ****     huart->RxXferSize = Size;
 1350              		.loc 1 879 0 discriminator 2
 1351 0046 FB68     		ldr	r3, [r7, #12]
 1352 0048 FA88     		ldrh	r2, [r7, #6]	@ movhi
 1353 004a A3F85820 		strh	r2, [r3, #88]	@ movhi
 880:Drivers/STM32F3xx_HAL_Driver/Src/stm32f3xx_hal_uart.c ****     huart->RxXferCount = Size;
 1354              		.loc 1 880 0 discriminator 2
 1355 004e FB68     		ldr	r3, [r7, #12]
 1356 0050 FA88     		ldrh	r2, [r7, #6]	@ movhi
 1357 0052 A3F85A20 		strh	r2, [r3, #90]	@ movhi
 881:Drivers/STM32F3xx_HAL_Driver/Src/stm32f3xx_hal_uart.c **** 
 882:Drivers/STM32F3xx_HAL_Driver/Src/stm32f3xx_hal_uart.c ****     /* Computation of UART mask to apply to RDR register */
 883:Drivers/STM32F3xx_HAL_Driver/Src/stm32f3xx_hal_uart.c ****     UART_MASK_COMPUTATION(huart);
 1358              		.loc 1 883 0 discriminator 2
 1359 0056 FB68     		ldr	r3, [r7, #12]
ARM GAS  /var/folders/0z/_3zh0q697778kwks4bv8s9bh0000gn/T//ccPzatuz.s 			page 40


 1360 0058 9B68     		ldr	r3, [r3, #8]
 1361 005a B3F5805F 		cmp	r3, #4096
 1362 005e 0ED1     		bne	.L74
 1363              		.loc 1 883 0 is_stmt 0 discriminator 1
 1364 0060 FB68     		ldr	r3, [r7, #12]
 1365 0062 1B69     		ldr	r3, [r3, #16]
 1366 0064 002B     		cmp	r3, #0
 1367 0066 05D1     		bne	.L75
 1368              		.loc 1 883 0 discriminator 3
 1369 0068 FB68     		ldr	r3, [r7, #12]
 1370 006a 40F2FF12 		movw	r2, #511
 1371 006e A3F85C20 		strh	r2, [r3, #92]	@ movhi
 1372 0072 28E0     		b	.L77
 1373              	.L75:
 1374              		.loc 1 883 0 discriminator 4
 1375 0074 FB68     		ldr	r3, [r7, #12]
 1376 0076 FF22     		movs	r2, #255
 1377 0078 A3F85C20 		strh	r2, [r3, #92]	@ movhi
 1378 007c 23E0     		b	.L77
 1379              	.L74:
 1380              		.loc 1 883 0 discriminator 2
 1381 007e FB68     		ldr	r3, [r7, #12]
 1382 0080 9B68     		ldr	r3, [r3, #8]
 1383 0082 002B     		cmp	r3, #0
 1384 0084 0DD1     		bne	.L78
 1385              		.loc 1 883 0 discriminator 5
 1386 0086 FB68     		ldr	r3, [r7, #12]
 1387 0088 1B69     		ldr	r3, [r3, #16]
 1388 008a 002B     		cmp	r3, #0
 1389 008c 04D1     		bne	.L79
 1390              		.loc 1 883 0 discriminator 7
 1391 008e FB68     		ldr	r3, [r7, #12]
 1392 0090 FF22     		movs	r2, #255
 1393 0092 A3F85C20 		strh	r2, [r3, #92]	@ movhi
 1394 0096 16E0     		b	.L77
 1395              	.L79:
 1396              		.loc 1 883 0 discriminator 8
 1397 0098 FB68     		ldr	r3, [r7, #12]
 1398 009a 7F22     		movs	r2, #127
 1399 009c A3F85C20 		strh	r2, [r3, #92]	@ movhi
 1400 00a0 11E0     		b	.L77
 1401              	.L78:
 1402              		.loc 1 883 0 discriminator 6
 1403 00a2 FB68     		ldr	r3, [r7, #12]
 1404 00a4 9B68     		ldr	r3, [r3, #8]
 1405 00a6 B3F1805F 		cmp	r3, #268435456
 1406 00aa 0CD1     		bne	.L77
 1407              		.loc 1 883 0 discriminator 9
 1408 00ac FB68     		ldr	r3, [r7, #12]
 1409 00ae 1B69     		ldr	r3, [r3, #16]
 1410 00b0 002B     		cmp	r3, #0
 1411 00b2 04D1     		bne	.L81
 1412              		.loc 1 883 0 discriminator 10
 1413 00b4 FB68     		ldr	r3, [r7, #12]
 1414 00b6 7F22     		movs	r2, #127
 1415 00b8 A3F85C20 		strh	r2, [r3, #92]	@ movhi
 1416 00bc 03E0     		b	.L77
ARM GAS  /var/folders/0z/_3zh0q697778kwks4bv8s9bh0000gn/T//ccPzatuz.s 			page 41


 1417              	.L81:
 1418              		.loc 1 883 0 discriminator 11
 1419 00be FB68     		ldr	r3, [r7, #12]
 1420 00c0 3F22     		movs	r2, #63
 1421 00c2 A3F85C20 		strh	r2, [r3, #92]	@ movhi
 1422              	.L77:
 884:Drivers/STM32F3xx_HAL_Driver/Src/stm32f3xx_hal_uart.c **** 
 885:Drivers/STM32F3xx_HAL_Driver/Src/stm32f3xx_hal_uart.c ****     huart->ErrorCode = HAL_UART_ERROR_NONE;
 1423              		.loc 1 885 0 is_stmt 1
 1424 00c6 FB68     		ldr	r3, [r7, #12]
 1425 00c8 0022     		movs	r2, #0
 1426 00ca DA66     		str	r2, [r3, #108]
 886:Drivers/STM32F3xx_HAL_Driver/Src/stm32f3xx_hal_uart.c ****     huart->RxState = HAL_UART_STATE_BUSY_RX;
 1427              		.loc 1 886 0
 1428 00cc FB68     		ldr	r3, [r7, #12]
 1429 00ce 2222     		movs	r2, #34
 1430 00d0 83F86A20 		strb	r2, [r3, #106]
 887:Drivers/STM32F3xx_HAL_Driver/Src/stm32f3xx_hal_uart.c **** 
 888:Drivers/STM32F3xx_HAL_Driver/Src/stm32f3xx_hal_uart.c ****     /* Enable the UART Parity Error Interrupt */
 889:Drivers/STM32F3xx_HAL_Driver/Src/stm32f3xx_hal_uart.c ****     __HAL_UART_ENABLE_IT(huart, UART_IT_PE);
 1431              		.loc 1 889 0
 1432 00d4 FB68     		ldr	r3, [r7, #12]
 1433 00d6 1B68     		ldr	r3, [r3]
 1434 00d8 FA68     		ldr	r2, [r7, #12]
 1435 00da 1268     		ldr	r2, [r2]
 1436 00dc 1268     		ldr	r2, [r2]
 1437 00de 42F48072 		orr	r2, r2, #256
 1438 00e2 1A60     		str	r2, [r3]
 890:Drivers/STM32F3xx_HAL_Driver/Src/stm32f3xx_hal_uart.c **** 
 891:Drivers/STM32F3xx_HAL_Driver/Src/stm32f3xx_hal_uart.c ****     /* Enable the UART Error Interrupt: (Frame error, noise error, overrun error) */
 892:Drivers/STM32F3xx_HAL_Driver/Src/stm32f3xx_hal_uart.c ****     __HAL_UART_ENABLE_IT(huart, UART_IT_ERR);
 1439              		.loc 1 892 0
 1440 00e4 FB68     		ldr	r3, [r7, #12]
 1441 00e6 1B68     		ldr	r3, [r3]
 1442 00e8 FA68     		ldr	r2, [r7, #12]
 1443 00ea 1268     		ldr	r2, [r2]
 1444 00ec 9268     		ldr	r2, [r2, #8]
 1445 00ee 42F00102 		orr	r2, r2, #1
 1446 00f2 9A60     		str	r2, [r3, #8]
 893:Drivers/STM32F3xx_HAL_Driver/Src/stm32f3xx_hal_uart.c **** 
 894:Drivers/STM32F3xx_HAL_Driver/Src/stm32f3xx_hal_uart.c ****     /* Process Unlocked */
 895:Drivers/STM32F3xx_HAL_Driver/Src/stm32f3xx_hal_uart.c ****     __HAL_UNLOCK(huart);
 1447              		.loc 1 895 0
 1448 00f4 FB68     		ldr	r3, [r7, #12]
 1449 00f6 0022     		movs	r2, #0
 1450 00f8 83F86820 		strb	r2, [r3, #104]
 896:Drivers/STM32F3xx_HAL_Driver/Src/stm32f3xx_hal_uart.c **** 
 897:Drivers/STM32F3xx_HAL_Driver/Src/stm32f3xx_hal_uart.c ****     /* Enable the UART Data Register not empty Interrupt */
 898:Drivers/STM32F3xx_HAL_Driver/Src/stm32f3xx_hal_uart.c ****     __HAL_UART_ENABLE_IT(huart, UART_IT_RXNE);
 1451              		.loc 1 898 0
 1452 00fc FB68     		ldr	r3, [r7, #12]
 1453 00fe 1B68     		ldr	r3, [r3]
 1454 0100 FA68     		ldr	r2, [r7, #12]
 1455 0102 1268     		ldr	r2, [r2]
 1456 0104 1268     		ldr	r2, [r2]
 1457 0106 42F02002 		orr	r2, r2, #32
 1458 010a 1A60     		str	r2, [r3]
ARM GAS  /var/folders/0z/_3zh0q697778kwks4bv8s9bh0000gn/T//ccPzatuz.s 			page 42


 899:Drivers/STM32F3xx_HAL_Driver/Src/stm32f3xx_hal_uart.c **** 
 900:Drivers/STM32F3xx_HAL_Driver/Src/stm32f3xx_hal_uart.c ****     return HAL_OK;
 1459              		.loc 1 900 0
 1460 010c 0023     		movs	r3, #0
 1461 010e 00E0     		b	.L72
 1462              	.L69:
 901:Drivers/STM32F3xx_HAL_Driver/Src/stm32f3xx_hal_uart.c ****   }
 902:Drivers/STM32F3xx_HAL_Driver/Src/stm32f3xx_hal_uart.c ****   else
 903:Drivers/STM32F3xx_HAL_Driver/Src/stm32f3xx_hal_uart.c ****   {
 904:Drivers/STM32F3xx_HAL_Driver/Src/stm32f3xx_hal_uart.c ****     return HAL_BUSY;
 1463              		.loc 1 904 0
 1464 0110 0223     		movs	r3, #2
 1465              	.L72:
 905:Drivers/STM32F3xx_HAL_Driver/Src/stm32f3xx_hal_uart.c ****   }
 906:Drivers/STM32F3xx_HAL_Driver/Src/stm32f3xx_hal_uart.c **** }
 1466              		.loc 1 906 0
 1467 0112 1846     		mov	r0, r3
 1468 0114 1437     		adds	r7, r7, #20
 1469              	.LCFI56:
 1470              		.cfi_def_cfa_offset 4
 1471 0116 BD46     		mov	sp, r7
 1472              	.LCFI57:
 1473              		.cfi_def_cfa_register 13
 1474              		@ sp needed
 1475 0118 5DF8047B 		ldr	r7, [sp], #4
 1476              	.LCFI58:
 1477              		.cfi_restore 7
 1478              		.cfi_def_cfa_offset 0
 1479 011c 7047     		bx	lr
 1480              		.cfi_endproc
 1481              	.LFE133:
 1483 011e 00BF     		.section	.text.HAL_UART_Transmit_DMA,"ax",%progbits
 1484              		.align	2
 1485              		.global	HAL_UART_Transmit_DMA
 1486              		.thumb
 1487              		.thumb_func
 1489              	HAL_UART_Transmit_DMA:
 1490              	.LFB134:
 907:Drivers/STM32F3xx_HAL_Driver/Src/stm32f3xx_hal_uart.c **** 
 908:Drivers/STM32F3xx_HAL_Driver/Src/stm32f3xx_hal_uart.c **** /**
 909:Drivers/STM32F3xx_HAL_Driver/Src/stm32f3xx_hal_uart.c ****   * @brief Send an amount of data in DMA mode.
 910:Drivers/STM32F3xx_HAL_Driver/Src/stm32f3xx_hal_uart.c ****   * @param huart: UART handle.
 911:Drivers/STM32F3xx_HAL_Driver/Src/stm32f3xx_hal_uart.c ****   * @param pData: pointer to data buffer.
 912:Drivers/STM32F3xx_HAL_Driver/Src/stm32f3xx_hal_uart.c ****   * @param Size: amount of data to be sent.
 913:Drivers/STM32F3xx_HAL_Driver/Src/stm32f3xx_hal_uart.c ****   * @note This function starts a DMA transfer in interrupt mode meaning that
 914:Drivers/STM32F3xx_HAL_Driver/Src/stm32f3xx_hal_uart.c ****   *       DMA half transfer complete, DMA transfer complete and DMA transfer
 915:Drivers/STM32F3xx_HAL_Driver/Src/stm32f3xx_hal_uart.c ****   *       error interrupts are enabled
 916:Drivers/STM32F3xx_HAL_Driver/Src/stm32f3xx_hal_uart.c ****   * @retval HAL status
 917:Drivers/STM32F3xx_HAL_Driver/Src/stm32f3xx_hal_uart.c ****   */
 918:Drivers/STM32F3xx_HAL_Driver/Src/stm32f3xx_hal_uart.c **** HAL_StatusTypeDef HAL_UART_Transmit_DMA(UART_HandleTypeDef *huart, uint8_t *pData, uint16_t Size)
 919:Drivers/STM32F3xx_HAL_Driver/Src/stm32f3xx_hal_uart.c **** {
 1491              		.loc 1 919 0
 1492              		.cfi_startproc
 1493              		@ args = 0, pretend = 0, frame = 24
 1494              		@ frame_needed = 1, uses_anonymous_args = 0
 1495 0000 90B5     		push	{r4, r7, lr}
 1496              	.LCFI59:
ARM GAS  /var/folders/0z/_3zh0q697778kwks4bv8s9bh0000gn/T//ccPzatuz.s 			page 43


 1497              		.cfi_def_cfa_offset 12
 1498              		.cfi_offset 4, -12
 1499              		.cfi_offset 7, -8
 1500              		.cfi_offset 14, -4
 1501 0002 87B0     		sub	sp, sp, #28
 1502              	.LCFI60:
 1503              		.cfi_def_cfa_offset 40
 1504 0004 00AF     		add	r7, sp, #0
 1505              	.LCFI61:
 1506              		.cfi_def_cfa_register 7
 1507 0006 F860     		str	r0, [r7, #12]
 1508 0008 B960     		str	r1, [r7, #8]
 1509 000a 1346     		mov	r3, r2
 1510 000c FB80     		strh	r3, [r7, #6]	@ movhi
 920:Drivers/STM32F3xx_HAL_Driver/Src/stm32f3xx_hal_uart.c ****   uint32_t *tmp;
 921:Drivers/STM32F3xx_HAL_Driver/Src/stm32f3xx_hal_uart.c **** 
 922:Drivers/STM32F3xx_HAL_Driver/Src/stm32f3xx_hal_uart.c ****   /* Check if UART instance supports continuous communication using DMA */
 923:Drivers/STM32F3xx_HAL_Driver/Src/stm32f3xx_hal_uart.c ****   assert_param(IS_UART_DMA_INSTANCE(huart->Instance));
 924:Drivers/STM32F3xx_HAL_Driver/Src/stm32f3xx_hal_uart.c **** 
 925:Drivers/STM32F3xx_HAL_Driver/Src/stm32f3xx_hal_uart.c ****   /* Check that a Tx process is not already ongoing */
 926:Drivers/STM32F3xx_HAL_Driver/Src/stm32f3xx_hal_uart.c ****   if(huart->gState == HAL_UART_STATE_READY)
 1511              		.loc 1 926 0
 1512 000e FB68     		ldr	r3, [r7, #12]
 1513 0010 93F86930 		ldrb	r3, [r3, #105]
 1514 0014 DBB2     		uxtb	r3, r3
 1515 0016 202B     		cmp	r3, #32
 1516 0018 53D1     		bne	.L83
 927:Drivers/STM32F3xx_HAL_Driver/Src/stm32f3xx_hal_uart.c ****   {
 928:Drivers/STM32F3xx_HAL_Driver/Src/stm32f3xx_hal_uart.c ****     if((pData == NULL ) || (Size == 0))
 1517              		.loc 1 928 0
 1518 001a BB68     		ldr	r3, [r7, #8]
 1519 001c 002B     		cmp	r3, #0
 1520 001e 02D0     		beq	.L84
 1521              		.loc 1 928 0 is_stmt 0 discriminator 1
 1522 0020 FB88     		ldrh	r3, [r7, #6]
 1523 0022 002B     		cmp	r3, #0
 1524 0024 01D1     		bne	.L85
 1525              	.L84:
 929:Drivers/STM32F3xx_HAL_Driver/Src/stm32f3xx_hal_uart.c ****     {
 930:Drivers/STM32F3xx_HAL_Driver/Src/stm32f3xx_hal_uart.c ****       return HAL_ERROR;
 1526              		.loc 1 930 0 is_stmt 1
 1527 0026 0123     		movs	r3, #1
 1528 0028 4CE0     		b	.L86
 1529              	.L85:
 931:Drivers/STM32F3xx_HAL_Driver/Src/stm32f3xx_hal_uart.c ****     }
 932:Drivers/STM32F3xx_HAL_Driver/Src/stm32f3xx_hal_uart.c **** 
 933:Drivers/STM32F3xx_HAL_Driver/Src/stm32f3xx_hal_uart.c ****     /* Process Locked */
 934:Drivers/STM32F3xx_HAL_Driver/Src/stm32f3xx_hal_uart.c ****     __HAL_LOCK(huart);
 1530              		.loc 1 934 0
 1531 002a FB68     		ldr	r3, [r7, #12]
 1532 002c 93F86830 		ldrb	r3, [r3, #104]	@ zero_extendqisi2
 1533 0030 012B     		cmp	r3, #1
 1534 0032 01D1     		bne	.L87
 1535              		.loc 1 934 0 is_stmt 0 discriminator 1
 1536 0034 0223     		movs	r3, #2
 1537 0036 45E0     		b	.L86
 1538              	.L87:
ARM GAS  /var/folders/0z/_3zh0q697778kwks4bv8s9bh0000gn/T//ccPzatuz.s 			page 44


 1539              		.loc 1 934 0 discriminator 2
 1540 0038 FB68     		ldr	r3, [r7, #12]
 1541 003a 0122     		movs	r2, #1
 1542 003c 83F86820 		strb	r2, [r3, #104]
 935:Drivers/STM32F3xx_HAL_Driver/Src/stm32f3xx_hal_uart.c **** 
 936:Drivers/STM32F3xx_HAL_Driver/Src/stm32f3xx_hal_uart.c ****     huart->pTxBuffPtr = pData;
 1543              		.loc 1 936 0 is_stmt 1 discriminator 2
 1544 0040 BA68     		ldr	r2, [r7, #8]
 1545 0042 FB68     		ldr	r3, [r7, #12]
 1546 0044 DA64     		str	r2, [r3, #76]
 937:Drivers/STM32F3xx_HAL_Driver/Src/stm32f3xx_hal_uart.c ****     huart->TxXferSize = Size;
 1547              		.loc 1 937 0 discriminator 2
 1548 0046 FB68     		ldr	r3, [r7, #12]
 1549 0048 FA88     		ldrh	r2, [r7, #6]	@ movhi
 1550 004a A3F85020 		strh	r2, [r3, #80]	@ movhi
 938:Drivers/STM32F3xx_HAL_Driver/Src/stm32f3xx_hal_uart.c ****     huart->TxXferCount = Size;
 1551              		.loc 1 938 0 discriminator 2
 1552 004e FB68     		ldr	r3, [r7, #12]
 1553 0050 FA88     		ldrh	r2, [r7, #6]	@ movhi
 1554 0052 A3F85220 		strh	r2, [r3, #82]	@ movhi
 939:Drivers/STM32F3xx_HAL_Driver/Src/stm32f3xx_hal_uart.c **** 
 940:Drivers/STM32F3xx_HAL_Driver/Src/stm32f3xx_hal_uart.c ****     huart->ErrorCode = HAL_UART_ERROR_NONE;
 1555              		.loc 1 940 0 discriminator 2
 1556 0056 FB68     		ldr	r3, [r7, #12]
 1557 0058 0022     		movs	r2, #0
 1558 005a DA66     		str	r2, [r3, #108]
 941:Drivers/STM32F3xx_HAL_Driver/Src/stm32f3xx_hal_uart.c ****     huart->gState = HAL_UART_STATE_BUSY_TX;
 1559              		.loc 1 941 0 discriminator 2
 1560 005c FB68     		ldr	r3, [r7, #12]
 1561 005e 2122     		movs	r2, #33
 1562 0060 83F86920 		strb	r2, [r3, #105]
 942:Drivers/STM32F3xx_HAL_Driver/Src/stm32f3xx_hal_uart.c **** 
 943:Drivers/STM32F3xx_HAL_Driver/Src/stm32f3xx_hal_uart.c ****     /* Set the UART DMA transfer complete callback */
 944:Drivers/STM32F3xx_HAL_Driver/Src/stm32f3xx_hal_uart.c ****     huart->hdmatx->XferCpltCallback = UART_DMATransmitCplt;
 1563              		.loc 1 944 0 discriminator 2
 1564 0064 FB68     		ldr	r3, [r7, #12]
 1565 0066 1B6E     		ldr	r3, [r3, #96]
 1566 0068 184A     		ldr	r2, .L88
 1567 006a 9A62     		str	r2, [r3, #40]
 945:Drivers/STM32F3xx_HAL_Driver/Src/stm32f3xx_hal_uart.c **** 
 946:Drivers/STM32F3xx_HAL_Driver/Src/stm32f3xx_hal_uart.c ****     /* Set the UART DMA Half transfer complete callback */
 947:Drivers/STM32F3xx_HAL_Driver/Src/stm32f3xx_hal_uart.c ****     huart->hdmatx->XferHalfCpltCallback = UART_DMATxHalfCplt;
 1568              		.loc 1 947 0 discriminator 2
 1569 006c FB68     		ldr	r3, [r7, #12]
 1570 006e 1B6E     		ldr	r3, [r3, #96]
 1571 0070 174A     		ldr	r2, .L88+4
 1572 0072 DA62     		str	r2, [r3, #44]
 948:Drivers/STM32F3xx_HAL_Driver/Src/stm32f3xx_hal_uart.c **** 
 949:Drivers/STM32F3xx_HAL_Driver/Src/stm32f3xx_hal_uart.c ****     /* Set the DMA error callback */
 950:Drivers/STM32F3xx_HAL_Driver/Src/stm32f3xx_hal_uart.c ****     huart->hdmatx->XferErrorCallback = UART_DMAError;
 1573              		.loc 1 950 0 discriminator 2
 1574 0074 FB68     		ldr	r3, [r7, #12]
 1575 0076 1B6E     		ldr	r3, [r3, #96]
 1576 0078 164A     		ldr	r2, .L88+8
 1577 007a 1A63     		str	r2, [r3, #48]
 951:Drivers/STM32F3xx_HAL_Driver/Src/stm32f3xx_hal_uart.c **** 
 952:Drivers/STM32F3xx_HAL_Driver/Src/stm32f3xx_hal_uart.c ****     /* Enable the UART transmit DMA channel */
ARM GAS  /var/folders/0z/_3zh0q697778kwks4bv8s9bh0000gn/T//ccPzatuz.s 			page 45


 953:Drivers/STM32F3xx_HAL_Driver/Src/stm32f3xx_hal_uart.c ****     tmp = (uint32_t*)&pData;
 1578              		.loc 1 953 0 discriminator 2
 1579 007c 07F10803 		add	r3, r7, #8
 1580 0080 7B61     		str	r3, [r7, #20]
 954:Drivers/STM32F3xx_HAL_Driver/Src/stm32f3xx_hal_uart.c ****     HAL_DMA_Start_IT(huart->hdmatx, *(uint32_t*)tmp, (uint32_t)&huart->Instance->TDR, Size);
 1581              		.loc 1 954 0 discriminator 2
 1582 0082 FB68     		ldr	r3, [r7, #12]
 1583 0084 196E     		ldr	r1, [r3, #96]
 1584 0086 7B69     		ldr	r3, [r7, #20]
 1585 0088 1A68     		ldr	r2, [r3]
 1586 008a FB68     		ldr	r3, [r7, #12]
 1587 008c 1B68     		ldr	r3, [r3]
 1588 008e 2833     		adds	r3, r3, #40
 1589 0090 1C46     		mov	r4, r3
 1590 0092 FB88     		ldrh	r3, [r7, #6]
 1591 0094 0846     		mov	r0, r1
 1592 0096 1146     		mov	r1, r2
 1593 0098 2246     		mov	r2, r4
 1594 009a FFF7FEFF 		bl	HAL_DMA_Start_IT
 955:Drivers/STM32F3xx_HAL_Driver/Src/stm32f3xx_hal_uart.c **** 
 956:Drivers/STM32F3xx_HAL_Driver/Src/stm32f3xx_hal_uart.c ****     /* Clear the TC flag in the ICR register */
 957:Drivers/STM32F3xx_HAL_Driver/Src/stm32f3xx_hal_uart.c ****     __HAL_UART_CLEAR_FLAG(huart, UART_CLEAR_TCF);
 1595              		.loc 1 957 0 discriminator 2
 1596 009e FB68     		ldr	r3, [r7, #12]
 1597 00a0 1B68     		ldr	r3, [r3]
 1598 00a2 4022     		movs	r2, #64
 1599 00a4 1A62     		str	r2, [r3, #32]
 958:Drivers/STM32F3xx_HAL_Driver/Src/stm32f3xx_hal_uart.c **** 
 959:Drivers/STM32F3xx_HAL_Driver/Src/stm32f3xx_hal_uart.c ****     /* Enable the DMA transfer for transmit request by setting the DMAT bit
 960:Drivers/STM32F3xx_HAL_Driver/Src/stm32f3xx_hal_uart.c ****        in the UART CR3 register */
 961:Drivers/STM32F3xx_HAL_Driver/Src/stm32f3xx_hal_uart.c ****     huart->Instance->CR3 |= USART_CR3_DMAT;
 1600              		.loc 1 961 0 discriminator 2
 1601 00a6 FB68     		ldr	r3, [r7, #12]
 1602 00a8 1B68     		ldr	r3, [r3]
 1603 00aa FA68     		ldr	r2, [r7, #12]
 1604 00ac 1268     		ldr	r2, [r2]
 1605 00ae 9268     		ldr	r2, [r2, #8]
 1606 00b0 42F08002 		orr	r2, r2, #128
 1607 00b4 9A60     		str	r2, [r3, #8]
 962:Drivers/STM32F3xx_HAL_Driver/Src/stm32f3xx_hal_uart.c **** 
 963:Drivers/STM32F3xx_HAL_Driver/Src/stm32f3xx_hal_uart.c ****     /* Process Unlocked */
 964:Drivers/STM32F3xx_HAL_Driver/Src/stm32f3xx_hal_uart.c ****     __HAL_UNLOCK(huart);
 1608              		.loc 1 964 0 discriminator 2
 1609 00b6 FB68     		ldr	r3, [r7, #12]
 1610 00b8 0022     		movs	r2, #0
 1611 00ba 83F86820 		strb	r2, [r3, #104]
 965:Drivers/STM32F3xx_HAL_Driver/Src/stm32f3xx_hal_uart.c **** 
 966:Drivers/STM32F3xx_HAL_Driver/Src/stm32f3xx_hal_uart.c ****     return HAL_OK;
 1612              		.loc 1 966 0 discriminator 2
 1613 00be 0023     		movs	r3, #0
 1614 00c0 00E0     		b	.L86
 1615              	.L83:
 967:Drivers/STM32F3xx_HAL_Driver/Src/stm32f3xx_hal_uart.c ****   }
 968:Drivers/STM32F3xx_HAL_Driver/Src/stm32f3xx_hal_uart.c ****   else
 969:Drivers/STM32F3xx_HAL_Driver/Src/stm32f3xx_hal_uart.c ****   {
 970:Drivers/STM32F3xx_HAL_Driver/Src/stm32f3xx_hal_uart.c ****     return HAL_BUSY;
 1616              		.loc 1 970 0
ARM GAS  /var/folders/0z/_3zh0q697778kwks4bv8s9bh0000gn/T//ccPzatuz.s 			page 46


 1617 00c2 0223     		movs	r3, #2
 1618              	.L86:
 971:Drivers/STM32F3xx_HAL_Driver/Src/stm32f3xx_hal_uart.c ****   }
 972:Drivers/STM32F3xx_HAL_Driver/Src/stm32f3xx_hal_uart.c **** }
 1619              		.loc 1 972 0
 1620 00c4 1846     		mov	r0, r3
 1621 00c6 1C37     		adds	r7, r7, #28
 1622              	.LCFI62:
 1623              		.cfi_def_cfa_offset 12
 1624 00c8 BD46     		mov	sp, r7
 1625              	.LCFI63:
 1626              		.cfi_def_cfa_register 13
 1627              		@ sp needed
 1628 00ca 90BD     		pop	{r4, r7, pc}
 1629              	.L89:
 1630              		.align	2
 1631              	.L88:
 1632 00cc 00000000 		.word	UART_DMATransmitCplt
 1633 00d0 00000000 		.word	UART_DMATxHalfCplt
 1634 00d4 00000000 		.word	UART_DMAError
 1635              		.cfi_endproc
 1636              	.LFE134:
 1638              		.section	.text.HAL_UART_Receive_DMA,"ax",%progbits
 1639              		.align	2
 1640              		.global	HAL_UART_Receive_DMA
 1641              		.thumb
 1642              		.thumb_func
 1644              	HAL_UART_Receive_DMA:
 1645              	.LFB135:
 973:Drivers/STM32F3xx_HAL_Driver/Src/stm32f3xx_hal_uart.c **** 
 974:Drivers/STM32F3xx_HAL_Driver/Src/stm32f3xx_hal_uart.c **** /**
 975:Drivers/STM32F3xx_HAL_Driver/Src/stm32f3xx_hal_uart.c ****   * @brief Receive an amount of data in DMA mode.
 976:Drivers/STM32F3xx_HAL_Driver/Src/stm32f3xx_hal_uart.c ****   * @param huart: UART handle.
 977:Drivers/STM32F3xx_HAL_Driver/Src/stm32f3xx_hal_uart.c ****   * @param pData: pointer to data buffer.
 978:Drivers/STM32F3xx_HAL_Driver/Src/stm32f3xx_hal_uart.c ****   * @param Size: amount of data to be received.
 979:Drivers/STM32F3xx_HAL_Driver/Src/stm32f3xx_hal_uart.c ****   * @note   When the UART parity is enabled (PCE = 1), the received data contain
 980:Drivers/STM32F3xx_HAL_Driver/Src/stm32f3xx_hal_uart.c ****   *         the parity bit (MSB position).
 981:Drivers/STM32F3xx_HAL_Driver/Src/stm32f3xx_hal_uart.c ****   * @note This function starts a DMA transfer in interrupt mode meaning that
 982:Drivers/STM32F3xx_HAL_Driver/Src/stm32f3xx_hal_uart.c ****   *       DMA half transfer complete, DMA transfer complete and DMA transfer
 983:Drivers/STM32F3xx_HAL_Driver/Src/stm32f3xx_hal_uart.c ****   *       error interrupts are enabled
 984:Drivers/STM32F3xx_HAL_Driver/Src/stm32f3xx_hal_uart.c ****   * @retval HAL status
 985:Drivers/STM32F3xx_HAL_Driver/Src/stm32f3xx_hal_uart.c ****   */
 986:Drivers/STM32F3xx_HAL_Driver/Src/stm32f3xx_hal_uart.c **** HAL_StatusTypeDef HAL_UART_Receive_DMA(UART_HandleTypeDef *huart, uint8_t *pData, uint16_t Size)
 987:Drivers/STM32F3xx_HAL_Driver/Src/stm32f3xx_hal_uart.c **** {
 1646              		.loc 1 987 0
 1647              		.cfi_startproc
 1648              		@ args = 0, pretend = 0, frame = 24
 1649              		@ frame_needed = 1, uses_anonymous_args = 0
 1650 0000 90B5     		push	{r4, r7, lr}
 1651              	.LCFI64:
 1652              		.cfi_def_cfa_offset 12
 1653              		.cfi_offset 4, -12
 1654              		.cfi_offset 7, -8
 1655              		.cfi_offset 14, -4
 1656 0002 87B0     		sub	sp, sp, #28
 1657              	.LCFI65:
 1658              		.cfi_def_cfa_offset 40
ARM GAS  /var/folders/0z/_3zh0q697778kwks4bv8s9bh0000gn/T//ccPzatuz.s 			page 47


 1659 0004 00AF     		add	r7, sp, #0
 1660              	.LCFI66:
 1661              		.cfi_def_cfa_register 7
 1662 0006 F860     		str	r0, [r7, #12]
 1663 0008 B960     		str	r1, [r7, #8]
 1664 000a 1346     		mov	r3, r2
 1665 000c FB80     		strh	r3, [r7, #6]	@ movhi
 988:Drivers/STM32F3xx_HAL_Driver/Src/stm32f3xx_hal_uart.c ****   uint32_t *tmp;
 989:Drivers/STM32F3xx_HAL_Driver/Src/stm32f3xx_hal_uart.c **** 
 990:Drivers/STM32F3xx_HAL_Driver/Src/stm32f3xx_hal_uart.c ****   /* Check if UART instance supports continuous communication using DMA */
 991:Drivers/STM32F3xx_HAL_Driver/Src/stm32f3xx_hal_uart.c ****   assert_param(IS_UART_DMA_INSTANCE(huart->Instance));
 992:Drivers/STM32F3xx_HAL_Driver/Src/stm32f3xx_hal_uart.c **** 
 993:Drivers/STM32F3xx_HAL_Driver/Src/stm32f3xx_hal_uart.c ****   /* Check that a Rx process is not already ongoing */
 994:Drivers/STM32F3xx_HAL_Driver/Src/stm32f3xx_hal_uart.c ****   if(huart->RxState == HAL_UART_STATE_READY)
 1666              		.loc 1 994 0
 1667 000e FB68     		ldr	r3, [r7, #12]
 1668 0010 93F86A30 		ldrb	r3, [r3, #106]
 1669 0014 DBB2     		uxtb	r3, r3
 1670 0016 202B     		cmp	r3, #32
 1671 0018 4AD1     		bne	.L91
 995:Drivers/STM32F3xx_HAL_Driver/Src/stm32f3xx_hal_uart.c ****   {
 996:Drivers/STM32F3xx_HAL_Driver/Src/stm32f3xx_hal_uart.c ****     if((pData == NULL ) || (Size == 0))
 1672              		.loc 1 996 0
 1673 001a BB68     		ldr	r3, [r7, #8]
 1674 001c 002B     		cmp	r3, #0
 1675 001e 02D0     		beq	.L92
 1676              		.loc 1 996 0 is_stmt 0 discriminator 1
 1677 0020 FB88     		ldrh	r3, [r7, #6]
 1678 0022 002B     		cmp	r3, #0
 1679 0024 01D1     		bne	.L93
 1680              	.L92:
 997:Drivers/STM32F3xx_HAL_Driver/Src/stm32f3xx_hal_uart.c ****     {
 998:Drivers/STM32F3xx_HAL_Driver/Src/stm32f3xx_hal_uart.c ****       return HAL_ERROR;
 1681              		.loc 1 998 0 is_stmt 1
 1682 0026 0123     		movs	r3, #1
 1683 0028 43E0     		b	.L94
 1684              	.L93:
 999:Drivers/STM32F3xx_HAL_Driver/Src/stm32f3xx_hal_uart.c ****     }
1000:Drivers/STM32F3xx_HAL_Driver/Src/stm32f3xx_hal_uart.c **** 
1001:Drivers/STM32F3xx_HAL_Driver/Src/stm32f3xx_hal_uart.c ****     /* Process Locked */
1002:Drivers/STM32F3xx_HAL_Driver/Src/stm32f3xx_hal_uart.c ****     __HAL_LOCK(huart);
 1685              		.loc 1 1002 0
 1686 002a FB68     		ldr	r3, [r7, #12]
 1687 002c 93F86830 		ldrb	r3, [r3, #104]	@ zero_extendqisi2
 1688 0030 012B     		cmp	r3, #1
 1689 0032 01D1     		bne	.L95
 1690              		.loc 1 1002 0 is_stmt 0 discriminator 1
 1691 0034 0223     		movs	r3, #2
 1692 0036 3CE0     		b	.L94
 1693              	.L95:
 1694              		.loc 1 1002 0 discriminator 2
 1695 0038 FB68     		ldr	r3, [r7, #12]
 1696 003a 0122     		movs	r2, #1
 1697 003c 83F86820 		strb	r2, [r3, #104]
1003:Drivers/STM32F3xx_HAL_Driver/Src/stm32f3xx_hal_uart.c **** 
1004:Drivers/STM32F3xx_HAL_Driver/Src/stm32f3xx_hal_uart.c ****     huart->pRxBuffPtr = pData;
 1698              		.loc 1 1004 0 is_stmt 1 discriminator 2
ARM GAS  /var/folders/0z/_3zh0q697778kwks4bv8s9bh0000gn/T//ccPzatuz.s 			page 48


 1699 0040 BA68     		ldr	r2, [r7, #8]
 1700 0042 FB68     		ldr	r3, [r7, #12]
 1701 0044 5A65     		str	r2, [r3, #84]
1005:Drivers/STM32F3xx_HAL_Driver/Src/stm32f3xx_hal_uart.c ****     huart->RxXferSize = Size;
 1702              		.loc 1 1005 0 discriminator 2
 1703 0046 FB68     		ldr	r3, [r7, #12]
 1704 0048 FA88     		ldrh	r2, [r7, #6]	@ movhi
 1705 004a A3F85820 		strh	r2, [r3, #88]	@ movhi
1006:Drivers/STM32F3xx_HAL_Driver/Src/stm32f3xx_hal_uart.c **** 
1007:Drivers/STM32F3xx_HAL_Driver/Src/stm32f3xx_hal_uart.c ****     huart->ErrorCode = HAL_UART_ERROR_NONE;
 1706              		.loc 1 1007 0 discriminator 2
 1707 004e FB68     		ldr	r3, [r7, #12]
 1708 0050 0022     		movs	r2, #0
 1709 0052 DA66     		str	r2, [r3, #108]
1008:Drivers/STM32F3xx_HAL_Driver/Src/stm32f3xx_hal_uart.c ****     huart->RxState = HAL_UART_STATE_BUSY_RX;
 1710              		.loc 1 1008 0 discriminator 2
 1711 0054 FB68     		ldr	r3, [r7, #12]
 1712 0056 2222     		movs	r2, #34
 1713 0058 83F86A20 		strb	r2, [r3, #106]
1009:Drivers/STM32F3xx_HAL_Driver/Src/stm32f3xx_hal_uart.c **** 
1010:Drivers/STM32F3xx_HAL_Driver/Src/stm32f3xx_hal_uart.c ****     /* Set the UART DMA transfer complete callback */
1011:Drivers/STM32F3xx_HAL_Driver/Src/stm32f3xx_hal_uart.c ****     huart->hdmarx->XferCpltCallback = UART_DMAReceiveCplt;
 1714              		.loc 1 1011 0 discriminator 2
 1715 005c FB68     		ldr	r3, [r7, #12]
 1716 005e 5B6E     		ldr	r3, [r3, #100]
 1717 0060 164A     		ldr	r2, .L96
 1718 0062 9A62     		str	r2, [r3, #40]
1012:Drivers/STM32F3xx_HAL_Driver/Src/stm32f3xx_hal_uart.c **** 
1013:Drivers/STM32F3xx_HAL_Driver/Src/stm32f3xx_hal_uart.c ****     /* Set the UART DMA Half transfer complete callback */
1014:Drivers/STM32F3xx_HAL_Driver/Src/stm32f3xx_hal_uart.c ****     huart->hdmarx->XferHalfCpltCallback = UART_DMARxHalfCplt;
 1719              		.loc 1 1014 0 discriminator 2
 1720 0064 FB68     		ldr	r3, [r7, #12]
 1721 0066 5B6E     		ldr	r3, [r3, #100]
 1722 0068 154A     		ldr	r2, .L96+4
 1723 006a DA62     		str	r2, [r3, #44]
1015:Drivers/STM32F3xx_HAL_Driver/Src/stm32f3xx_hal_uart.c **** 
1016:Drivers/STM32F3xx_HAL_Driver/Src/stm32f3xx_hal_uart.c ****     /* Set the DMA error callback */
1017:Drivers/STM32F3xx_HAL_Driver/Src/stm32f3xx_hal_uart.c ****     huart->hdmarx->XferErrorCallback = UART_DMAError;
 1724              		.loc 1 1017 0 discriminator 2
 1725 006c FB68     		ldr	r3, [r7, #12]
 1726 006e 5B6E     		ldr	r3, [r3, #100]
 1727 0070 144A     		ldr	r2, .L96+8
 1728 0072 1A63     		str	r2, [r3, #48]
1018:Drivers/STM32F3xx_HAL_Driver/Src/stm32f3xx_hal_uart.c **** 
1019:Drivers/STM32F3xx_HAL_Driver/Src/stm32f3xx_hal_uart.c ****     /* Enable the DMA channel */
1020:Drivers/STM32F3xx_HAL_Driver/Src/stm32f3xx_hal_uart.c ****     tmp = (uint32_t*)&pData;
 1729              		.loc 1 1020 0 discriminator 2
 1730 0074 07F10803 		add	r3, r7, #8
 1731 0078 7B61     		str	r3, [r7, #20]
1021:Drivers/STM32F3xx_HAL_Driver/Src/stm32f3xx_hal_uart.c ****     HAL_DMA_Start_IT(huart->hdmarx, (uint32_t)&huart->Instance->RDR, *(uint32_t*)tmp, Size);
 1732              		.loc 1 1021 0 discriminator 2
 1733 007a FB68     		ldr	r3, [r7, #12]
 1734 007c 596E     		ldr	r1, [r3, #100]
 1735 007e FB68     		ldr	r3, [r7, #12]
 1736 0080 1B68     		ldr	r3, [r3]
 1737 0082 2433     		adds	r3, r3, #36
 1738 0084 1C46     		mov	r4, r3
ARM GAS  /var/folders/0z/_3zh0q697778kwks4bv8s9bh0000gn/T//ccPzatuz.s 			page 49


 1739 0086 7B69     		ldr	r3, [r7, #20]
 1740 0088 1A68     		ldr	r2, [r3]
 1741 008a FB88     		ldrh	r3, [r7, #6]
 1742 008c 0846     		mov	r0, r1
 1743 008e 2146     		mov	r1, r4
 1744 0090 FFF7FEFF 		bl	HAL_DMA_Start_IT
1022:Drivers/STM32F3xx_HAL_Driver/Src/stm32f3xx_hal_uart.c **** 
1023:Drivers/STM32F3xx_HAL_Driver/Src/stm32f3xx_hal_uart.c ****     /* Enable the DMA transfer for the receiver request by setting the DMAR bit
1024:Drivers/STM32F3xx_HAL_Driver/Src/stm32f3xx_hal_uart.c ****        in the UART CR3 register */
1025:Drivers/STM32F3xx_HAL_Driver/Src/stm32f3xx_hal_uart.c ****      huart->Instance->CR3 |= USART_CR3_DMAR;
 1745              		.loc 1 1025 0 discriminator 2
 1746 0094 FB68     		ldr	r3, [r7, #12]
 1747 0096 1B68     		ldr	r3, [r3]
 1748 0098 FA68     		ldr	r2, [r7, #12]
 1749 009a 1268     		ldr	r2, [r2]
 1750 009c 9268     		ldr	r2, [r2, #8]
 1751 009e 42F04002 		orr	r2, r2, #64
 1752 00a2 9A60     		str	r2, [r3, #8]
1026:Drivers/STM32F3xx_HAL_Driver/Src/stm32f3xx_hal_uart.c **** 
1027:Drivers/STM32F3xx_HAL_Driver/Src/stm32f3xx_hal_uart.c ****      /* Process Unlocked */
1028:Drivers/STM32F3xx_HAL_Driver/Src/stm32f3xx_hal_uart.c ****      __HAL_UNLOCK(huart);
 1753              		.loc 1 1028 0 discriminator 2
 1754 00a4 FB68     		ldr	r3, [r7, #12]
 1755 00a6 0022     		movs	r2, #0
 1756 00a8 83F86820 		strb	r2, [r3, #104]
1029:Drivers/STM32F3xx_HAL_Driver/Src/stm32f3xx_hal_uart.c **** 
1030:Drivers/STM32F3xx_HAL_Driver/Src/stm32f3xx_hal_uart.c ****     return HAL_OK;
 1757              		.loc 1 1030 0 discriminator 2
 1758 00ac 0023     		movs	r3, #0
 1759 00ae 00E0     		b	.L94
 1760              	.L91:
1031:Drivers/STM32F3xx_HAL_Driver/Src/stm32f3xx_hal_uart.c ****   }
1032:Drivers/STM32F3xx_HAL_Driver/Src/stm32f3xx_hal_uart.c ****   else
1033:Drivers/STM32F3xx_HAL_Driver/Src/stm32f3xx_hal_uart.c ****   {
1034:Drivers/STM32F3xx_HAL_Driver/Src/stm32f3xx_hal_uart.c ****     return HAL_BUSY;
 1761              		.loc 1 1034 0
 1762 00b0 0223     		movs	r3, #2
 1763              	.L94:
1035:Drivers/STM32F3xx_HAL_Driver/Src/stm32f3xx_hal_uart.c ****   }
1036:Drivers/STM32F3xx_HAL_Driver/Src/stm32f3xx_hal_uart.c **** }
 1764              		.loc 1 1036 0
 1765 00b2 1846     		mov	r0, r3
 1766 00b4 1C37     		adds	r7, r7, #28
 1767              	.LCFI67:
 1768              		.cfi_def_cfa_offset 12
 1769 00b6 BD46     		mov	sp, r7
 1770              	.LCFI68:
 1771              		.cfi_def_cfa_register 13
 1772              		@ sp needed
 1773 00b8 90BD     		pop	{r4, r7, pc}
 1774              	.L97:
 1775 00ba 00BF     		.align	2
 1776              	.L96:
 1777 00bc 00000000 		.word	UART_DMAReceiveCplt
 1778 00c0 00000000 		.word	UART_DMARxHalfCplt
 1779 00c4 00000000 		.word	UART_DMAError
 1780              		.cfi_endproc
ARM GAS  /var/folders/0z/_3zh0q697778kwks4bv8s9bh0000gn/T//ccPzatuz.s 			page 50


 1781              	.LFE135:
 1783              		.section	.text.HAL_UART_DMAPause,"ax",%progbits
 1784              		.align	2
 1785              		.global	HAL_UART_DMAPause
 1786              		.thumb
 1787              		.thumb_func
 1789              	HAL_UART_DMAPause:
 1790              	.LFB136:
1037:Drivers/STM32F3xx_HAL_Driver/Src/stm32f3xx_hal_uart.c **** 
1038:Drivers/STM32F3xx_HAL_Driver/Src/stm32f3xx_hal_uart.c **** /**
1039:Drivers/STM32F3xx_HAL_Driver/Src/stm32f3xx_hal_uart.c ****   * @brief  Pause the DMA Transfer.
1040:Drivers/STM32F3xx_HAL_Driver/Src/stm32f3xx_hal_uart.c ****   * @param  huart: UART handle.
1041:Drivers/STM32F3xx_HAL_Driver/Src/stm32f3xx_hal_uart.c ****   * @retval HAL status
1042:Drivers/STM32F3xx_HAL_Driver/Src/stm32f3xx_hal_uart.c ****   */
1043:Drivers/STM32F3xx_HAL_Driver/Src/stm32f3xx_hal_uart.c **** HAL_StatusTypeDef HAL_UART_DMAPause(UART_HandleTypeDef *huart)
1044:Drivers/STM32F3xx_HAL_Driver/Src/stm32f3xx_hal_uart.c **** {
 1791              		.loc 1 1044 0
 1792              		.cfi_startproc
 1793              		@ args = 0, pretend = 0, frame = 8
 1794              		@ frame_needed = 1, uses_anonymous_args = 0
 1795              		@ link register save eliminated.
 1796 0000 80B4     		push	{r7}
 1797              	.LCFI69:
 1798              		.cfi_def_cfa_offset 4
 1799              		.cfi_offset 7, -4
 1800 0002 83B0     		sub	sp, sp, #12
 1801              	.LCFI70:
 1802              		.cfi_def_cfa_offset 16
 1803 0004 00AF     		add	r7, sp, #0
 1804              	.LCFI71:
 1805              		.cfi_def_cfa_register 7
 1806 0006 7860     		str	r0, [r7, #4]
1045:Drivers/STM32F3xx_HAL_Driver/Src/stm32f3xx_hal_uart.c ****   /* Process Locked */
1046:Drivers/STM32F3xx_HAL_Driver/Src/stm32f3xx_hal_uart.c ****   __HAL_LOCK(huart);
 1807              		.loc 1 1046 0
 1808 0008 7B68     		ldr	r3, [r7, #4]
 1809 000a 93F86830 		ldrb	r3, [r3, #104]	@ zero_extendqisi2
 1810 000e 012B     		cmp	r3, #1
 1811 0010 01D1     		bne	.L99
 1812              		.loc 1 1046 0 is_stmt 0 discriminator 1
 1813 0012 0223     		movs	r3, #2
 1814 0014 24E0     		b	.L100
 1815              	.L99:
 1816              		.loc 1 1046 0 discriminator 2
 1817 0016 7B68     		ldr	r3, [r7, #4]
 1818 0018 0122     		movs	r2, #1
 1819 001a 83F86820 		strb	r2, [r3, #104]
1047:Drivers/STM32F3xx_HAL_Driver/Src/stm32f3xx_hal_uart.c **** 
1048:Drivers/STM32F3xx_HAL_Driver/Src/stm32f3xx_hal_uart.c ****   if(huart->gState == HAL_UART_STATE_BUSY_TX)
 1820              		.loc 1 1048 0 is_stmt 1 discriminator 2
 1821 001e 7B68     		ldr	r3, [r7, #4]
 1822 0020 93F86930 		ldrb	r3, [r3, #105]
 1823 0024 DBB2     		uxtb	r3, r3
 1824 0026 212B     		cmp	r3, #33
 1825 0028 07D1     		bne	.L101
1049:Drivers/STM32F3xx_HAL_Driver/Src/stm32f3xx_hal_uart.c ****   {
1050:Drivers/STM32F3xx_HAL_Driver/Src/stm32f3xx_hal_uart.c ****     /* Disable the UART DMA Tx request */
ARM GAS  /var/folders/0z/_3zh0q697778kwks4bv8s9bh0000gn/T//ccPzatuz.s 			page 51


1051:Drivers/STM32F3xx_HAL_Driver/Src/stm32f3xx_hal_uart.c ****     huart->Instance->CR3 &= (uint32_t)(~USART_CR3_DMAT);
 1826              		.loc 1 1051 0
 1827 002a 7B68     		ldr	r3, [r7, #4]
 1828 002c 1B68     		ldr	r3, [r3]
 1829 002e 7A68     		ldr	r2, [r7, #4]
 1830 0030 1268     		ldr	r2, [r2]
 1831 0032 9268     		ldr	r2, [r2, #8]
 1832 0034 22F08002 		bic	r2, r2, #128
 1833 0038 9A60     		str	r2, [r3, #8]
 1834              	.L101:
1052:Drivers/STM32F3xx_HAL_Driver/Src/stm32f3xx_hal_uart.c ****   }
1053:Drivers/STM32F3xx_HAL_Driver/Src/stm32f3xx_hal_uart.c ****   if(huart->RxState == HAL_UART_STATE_BUSY_RX)
 1835              		.loc 1 1053 0
 1836 003a 7B68     		ldr	r3, [r7, #4]
 1837 003c 93F86A30 		ldrb	r3, [r3, #106]
 1838 0040 DBB2     		uxtb	r3, r3
 1839 0042 222B     		cmp	r3, #34
 1840 0044 07D1     		bne	.L102
1054:Drivers/STM32F3xx_HAL_Driver/Src/stm32f3xx_hal_uart.c ****   {
1055:Drivers/STM32F3xx_HAL_Driver/Src/stm32f3xx_hal_uart.c ****     /* Disable the UART DMA Rx request */
1056:Drivers/STM32F3xx_HAL_Driver/Src/stm32f3xx_hal_uart.c ****     huart->Instance->CR3 &= (uint32_t)(~USART_CR3_DMAR);
 1841              		.loc 1 1056 0
 1842 0046 7B68     		ldr	r3, [r7, #4]
 1843 0048 1B68     		ldr	r3, [r3]
 1844 004a 7A68     		ldr	r2, [r7, #4]
 1845 004c 1268     		ldr	r2, [r2]
 1846 004e 9268     		ldr	r2, [r2, #8]
 1847 0050 22F04002 		bic	r2, r2, #64
 1848 0054 9A60     		str	r2, [r3, #8]
 1849              	.L102:
1057:Drivers/STM32F3xx_HAL_Driver/Src/stm32f3xx_hal_uart.c ****   }
1058:Drivers/STM32F3xx_HAL_Driver/Src/stm32f3xx_hal_uart.c **** 
1059:Drivers/STM32F3xx_HAL_Driver/Src/stm32f3xx_hal_uart.c ****   /* Process Unlocked */
1060:Drivers/STM32F3xx_HAL_Driver/Src/stm32f3xx_hal_uart.c ****   __HAL_UNLOCK(huart);
 1850              		.loc 1 1060 0
 1851 0056 7B68     		ldr	r3, [r7, #4]
 1852 0058 0022     		movs	r2, #0
 1853 005a 83F86820 		strb	r2, [r3, #104]
1061:Drivers/STM32F3xx_HAL_Driver/Src/stm32f3xx_hal_uart.c **** 
1062:Drivers/STM32F3xx_HAL_Driver/Src/stm32f3xx_hal_uart.c ****   return HAL_OK;
 1854              		.loc 1 1062 0
 1855 005e 0023     		movs	r3, #0
 1856              	.L100:
1063:Drivers/STM32F3xx_HAL_Driver/Src/stm32f3xx_hal_uart.c **** }
 1857              		.loc 1 1063 0
 1858 0060 1846     		mov	r0, r3
 1859 0062 0C37     		adds	r7, r7, #12
 1860              	.LCFI72:
 1861              		.cfi_def_cfa_offset 4
 1862 0064 BD46     		mov	sp, r7
 1863              	.LCFI73:
 1864              		.cfi_def_cfa_register 13
 1865              		@ sp needed
 1866 0066 5DF8047B 		ldr	r7, [sp], #4
 1867              	.LCFI74:
 1868              		.cfi_restore 7
 1869              		.cfi_def_cfa_offset 0
ARM GAS  /var/folders/0z/_3zh0q697778kwks4bv8s9bh0000gn/T//ccPzatuz.s 			page 52


 1870 006a 7047     		bx	lr
 1871              		.cfi_endproc
 1872              	.LFE136:
 1874              		.section	.text.HAL_UART_DMAResume,"ax",%progbits
 1875              		.align	2
 1876              		.global	HAL_UART_DMAResume
 1877              		.thumb
 1878              		.thumb_func
 1880              	HAL_UART_DMAResume:
 1881              	.LFB137:
1064:Drivers/STM32F3xx_HAL_Driver/Src/stm32f3xx_hal_uart.c **** 
1065:Drivers/STM32F3xx_HAL_Driver/Src/stm32f3xx_hal_uart.c **** /**
1066:Drivers/STM32F3xx_HAL_Driver/Src/stm32f3xx_hal_uart.c ****   * @brief  Resume the DMA Transfer.
1067:Drivers/STM32F3xx_HAL_Driver/Src/stm32f3xx_hal_uart.c ****   * @param  huart: UART handle.
1068:Drivers/STM32F3xx_HAL_Driver/Src/stm32f3xx_hal_uart.c ****   * @retval HAL status
1069:Drivers/STM32F3xx_HAL_Driver/Src/stm32f3xx_hal_uart.c ****   */
1070:Drivers/STM32F3xx_HAL_Driver/Src/stm32f3xx_hal_uart.c **** HAL_StatusTypeDef HAL_UART_DMAResume(UART_HandleTypeDef *huart)
1071:Drivers/STM32F3xx_HAL_Driver/Src/stm32f3xx_hal_uart.c **** {
 1882              		.loc 1 1071 0
 1883              		.cfi_startproc
 1884              		@ args = 0, pretend = 0, frame = 8
 1885              		@ frame_needed = 1, uses_anonymous_args = 0
 1886              		@ link register save eliminated.
 1887 0000 80B4     		push	{r7}
 1888              	.LCFI75:
 1889              		.cfi_def_cfa_offset 4
 1890              		.cfi_offset 7, -4
 1891 0002 83B0     		sub	sp, sp, #12
 1892              	.LCFI76:
 1893              		.cfi_def_cfa_offset 16
 1894 0004 00AF     		add	r7, sp, #0
 1895              	.LCFI77:
 1896              		.cfi_def_cfa_register 7
 1897 0006 7860     		str	r0, [r7, #4]
1072:Drivers/STM32F3xx_HAL_Driver/Src/stm32f3xx_hal_uart.c ****   /* Process Locked */
1073:Drivers/STM32F3xx_HAL_Driver/Src/stm32f3xx_hal_uart.c ****   __HAL_LOCK(huart);
 1898              		.loc 1 1073 0
 1899 0008 7B68     		ldr	r3, [r7, #4]
 1900 000a 93F86830 		ldrb	r3, [r3, #104]	@ zero_extendqisi2
 1901 000e 012B     		cmp	r3, #1
 1902 0010 01D1     		bne	.L104
 1903              		.loc 1 1073 0 is_stmt 0 discriminator 1
 1904 0012 0223     		movs	r3, #2
 1905 0014 28E0     		b	.L105
 1906              	.L104:
 1907              		.loc 1 1073 0 discriminator 2
 1908 0016 7B68     		ldr	r3, [r7, #4]
 1909 0018 0122     		movs	r2, #1
 1910 001a 83F86820 		strb	r2, [r3, #104]
1074:Drivers/STM32F3xx_HAL_Driver/Src/stm32f3xx_hal_uart.c **** 
1075:Drivers/STM32F3xx_HAL_Driver/Src/stm32f3xx_hal_uart.c ****   if(huart->gState == HAL_UART_STATE_BUSY_TX)
 1911              		.loc 1 1075 0 is_stmt 1 discriminator 2
 1912 001e 7B68     		ldr	r3, [r7, #4]
 1913 0020 93F86930 		ldrb	r3, [r3, #105]
 1914 0024 DBB2     		uxtb	r3, r3
 1915 0026 212B     		cmp	r3, #33
 1916 0028 07D1     		bne	.L106
ARM GAS  /var/folders/0z/_3zh0q697778kwks4bv8s9bh0000gn/T//ccPzatuz.s 			page 53


1076:Drivers/STM32F3xx_HAL_Driver/Src/stm32f3xx_hal_uart.c ****   {
1077:Drivers/STM32F3xx_HAL_Driver/Src/stm32f3xx_hal_uart.c ****     /* Enable the UART DMA Tx request */
1078:Drivers/STM32F3xx_HAL_Driver/Src/stm32f3xx_hal_uart.c ****     huart->Instance->CR3 |= USART_CR3_DMAT;
 1917              		.loc 1 1078 0
 1918 002a 7B68     		ldr	r3, [r7, #4]
 1919 002c 1B68     		ldr	r3, [r3]
 1920 002e 7A68     		ldr	r2, [r7, #4]
 1921 0030 1268     		ldr	r2, [r2]
 1922 0032 9268     		ldr	r2, [r2, #8]
 1923 0034 42F08002 		orr	r2, r2, #128
 1924 0038 9A60     		str	r2, [r3, #8]
 1925              	.L106:
1079:Drivers/STM32F3xx_HAL_Driver/Src/stm32f3xx_hal_uart.c ****   }
1080:Drivers/STM32F3xx_HAL_Driver/Src/stm32f3xx_hal_uart.c ****   if(huart->RxState == HAL_UART_STATE_BUSY_RX)
 1926              		.loc 1 1080 0
 1927 003a 7B68     		ldr	r3, [r7, #4]
 1928 003c 93F86A30 		ldrb	r3, [r3, #106]
 1929 0040 DBB2     		uxtb	r3, r3
 1930 0042 222B     		cmp	r3, #34
 1931 0044 0BD1     		bne	.L107
1081:Drivers/STM32F3xx_HAL_Driver/Src/stm32f3xx_hal_uart.c ****   {
1082:Drivers/STM32F3xx_HAL_Driver/Src/stm32f3xx_hal_uart.c ****     /* Clear the Overrun flag before resumming the Rx transfer*/
1083:Drivers/STM32F3xx_HAL_Driver/Src/stm32f3xx_hal_uart.c ****     __HAL_UART_CLEAR_FLAG(huart, UART_CLEAR_OREF);
 1932              		.loc 1 1083 0
 1933 0046 7B68     		ldr	r3, [r7, #4]
 1934 0048 1B68     		ldr	r3, [r3]
 1935 004a 0822     		movs	r2, #8
 1936 004c 1A62     		str	r2, [r3, #32]
1084:Drivers/STM32F3xx_HAL_Driver/Src/stm32f3xx_hal_uart.c **** 
1085:Drivers/STM32F3xx_HAL_Driver/Src/stm32f3xx_hal_uart.c ****     /* Enable the UART DMA Rx request */
1086:Drivers/STM32F3xx_HAL_Driver/Src/stm32f3xx_hal_uart.c ****     huart->Instance->CR3 |= USART_CR3_DMAR;
 1937              		.loc 1 1086 0
 1938 004e 7B68     		ldr	r3, [r7, #4]
 1939 0050 1B68     		ldr	r3, [r3]
 1940 0052 7A68     		ldr	r2, [r7, #4]
 1941 0054 1268     		ldr	r2, [r2]
 1942 0056 9268     		ldr	r2, [r2, #8]
 1943 0058 42F04002 		orr	r2, r2, #64
 1944 005c 9A60     		str	r2, [r3, #8]
 1945              	.L107:
1087:Drivers/STM32F3xx_HAL_Driver/Src/stm32f3xx_hal_uart.c ****   }
1088:Drivers/STM32F3xx_HAL_Driver/Src/stm32f3xx_hal_uart.c **** 
1089:Drivers/STM32F3xx_HAL_Driver/Src/stm32f3xx_hal_uart.c ****   /* Process Unlocked */
1090:Drivers/STM32F3xx_HAL_Driver/Src/stm32f3xx_hal_uart.c ****   __HAL_UNLOCK(huart);
 1946              		.loc 1 1090 0
 1947 005e 7B68     		ldr	r3, [r7, #4]
 1948 0060 0022     		movs	r2, #0
 1949 0062 83F86820 		strb	r2, [r3, #104]
1091:Drivers/STM32F3xx_HAL_Driver/Src/stm32f3xx_hal_uart.c **** 
1092:Drivers/STM32F3xx_HAL_Driver/Src/stm32f3xx_hal_uart.c ****   return HAL_OK;
 1950              		.loc 1 1092 0
 1951 0066 0023     		movs	r3, #0
 1952              	.L105:
1093:Drivers/STM32F3xx_HAL_Driver/Src/stm32f3xx_hal_uart.c **** }
 1953              		.loc 1 1093 0
 1954 0068 1846     		mov	r0, r3
 1955 006a 0C37     		adds	r7, r7, #12
ARM GAS  /var/folders/0z/_3zh0q697778kwks4bv8s9bh0000gn/T//ccPzatuz.s 			page 54


 1956              	.LCFI78:
 1957              		.cfi_def_cfa_offset 4
 1958 006c BD46     		mov	sp, r7
 1959              	.LCFI79:
 1960              		.cfi_def_cfa_register 13
 1961              		@ sp needed
 1962 006e 5DF8047B 		ldr	r7, [sp], #4
 1963              	.LCFI80:
 1964              		.cfi_restore 7
 1965              		.cfi_def_cfa_offset 0
 1966 0072 7047     		bx	lr
 1967              		.cfi_endproc
 1968              	.LFE137:
 1970              		.section	.text.HAL_UART_DMAStop,"ax",%progbits
 1971              		.align	2
 1972              		.global	HAL_UART_DMAStop
 1973              		.thumb
 1974              		.thumb_func
 1976              	HAL_UART_DMAStop:
 1977              	.LFB138:
1094:Drivers/STM32F3xx_HAL_Driver/Src/stm32f3xx_hal_uart.c **** 
1095:Drivers/STM32F3xx_HAL_Driver/Src/stm32f3xx_hal_uart.c **** /**
1096:Drivers/STM32F3xx_HAL_Driver/Src/stm32f3xx_hal_uart.c ****   * @brief  Stop the DMA Transfer.
1097:Drivers/STM32F3xx_HAL_Driver/Src/stm32f3xx_hal_uart.c ****   * @param  huart: UART handle.
1098:Drivers/STM32F3xx_HAL_Driver/Src/stm32f3xx_hal_uart.c ****   * @retval HAL status
1099:Drivers/STM32F3xx_HAL_Driver/Src/stm32f3xx_hal_uart.c ****   */
1100:Drivers/STM32F3xx_HAL_Driver/Src/stm32f3xx_hal_uart.c **** HAL_StatusTypeDef HAL_UART_DMAStop(UART_HandleTypeDef *huart)
1101:Drivers/STM32F3xx_HAL_Driver/Src/stm32f3xx_hal_uart.c **** {
 1978              		.loc 1 1101 0
 1979              		.cfi_startproc
 1980              		@ args = 0, pretend = 0, frame = 8
 1981              		@ frame_needed = 1, uses_anonymous_args = 0
 1982 0000 80B5     		push	{r7, lr}
 1983              	.LCFI81:
 1984              		.cfi_def_cfa_offset 8
 1985              		.cfi_offset 7, -8
 1986              		.cfi_offset 14, -4
 1987 0002 82B0     		sub	sp, sp, #8
 1988              	.LCFI82:
 1989              		.cfi_def_cfa_offset 16
 1990 0004 00AF     		add	r7, sp, #0
 1991              	.LCFI83:
 1992              		.cfi_def_cfa_register 7
 1993 0006 7860     		str	r0, [r7, #4]
1102:Drivers/STM32F3xx_HAL_Driver/Src/stm32f3xx_hal_uart.c ****   /* The Lock is not implemented on this API to allow the user application
1103:Drivers/STM32F3xx_HAL_Driver/Src/stm32f3xx_hal_uart.c ****      to call the HAL UART API under callbacks HAL_UART_TxCpltCallback() / HAL_UART_RxCpltCallback()
1104:Drivers/STM32F3xx_HAL_Driver/Src/stm32f3xx_hal_uart.c ****      HAL_UART_TxHalfCpltCallback() / HAL_UART_RxHalfCpltCallback (): 
1105:Drivers/STM32F3xx_HAL_Driver/Src/stm32f3xx_hal_uart.c ****      indeed, when HAL_DMA_Abort() API is called, the DMA TX/RX Transfer or Half Transfer complete i
1106:Drivers/STM32F3xx_HAL_Driver/Src/stm32f3xx_hal_uart.c ****      generated if the DMA transfer interruption occurs at the middle or at the end of the stream
1107:Drivers/STM32F3xx_HAL_Driver/Src/stm32f3xx_hal_uart.c ****      and the corresponding call back is executed. 
1108:Drivers/STM32F3xx_HAL_Driver/Src/stm32f3xx_hal_uart.c ****      */
1109:Drivers/STM32F3xx_HAL_Driver/Src/stm32f3xx_hal_uart.c ****   
1110:Drivers/STM32F3xx_HAL_Driver/Src/stm32f3xx_hal_uart.c ****   /* Disable the UART Tx/Rx DMA requests */
1111:Drivers/STM32F3xx_HAL_Driver/Src/stm32f3xx_hal_uart.c ****   huart->Instance->CR3 &= ~USART_CR3_DMAT;
 1994              		.loc 1 1111 0
 1995 0008 7B68     		ldr	r3, [r7, #4]
 1996 000a 1B68     		ldr	r3, [r3]
ARM GAS  /var/folders/0z/_3zh0q697778kwks4bv8s9bh0000gn/T//ccPzatuz.s 			page 55


 1997 000c 7A68     		ldr	r2, [r7, #4]
 1998 000e 1268     		ldr	r2, [r2]
 1999 0010 9268     		ldr	r2, [r2, #8]
 2000 0012 22F08002 		bic	r2, r2, #128
 2001 0016 9A60     		str	r2, [r3, #8]
1112:Drivers/STM32F3xx_HAL_Driver/Src/stm32f3xx_hal_uart.c ****   huart->Instance->CR3 &= ~USART_CR3_DMAR;
 2002              		.loc 1 1112 0
 2003 0018 7B68     		ldr	r3, [r7, #4]
 2004 001a 1B68     		ldr	r3, [r3]
 2005 001c 7A68     		ldr	r2, [r7, #4]
 2006 001e 1268     		ldr	r2, [r2]
 2007 0020 9268     		ldr	r2, [r2, #8]
 2008 0022 22F04002 		bic	r2, r2, #64
 2009 0026 9A60     		str	r2, [r3, #8]
1113:Drivers/STM32F3xx_HAL_Driver/Src/stm32f3xx_hal_uart.c **** 
1114:Drivers/STM32F3xx_HAL_Driver/Src/stm32f3xx_hal_uart.c ****   /* Abort the UART DMA tx channel */
1115:Drivers/STM32F3xx_HAL_Driver/Src/stm32f3xx_hal_uart.c ****   if(huart->hdmatx != NULL)
 2010              		.loc 1 1115 0
 2011 0028 7B68     		ldr	r3, [r7, #4]
 2012 002a 1B6E     		ldr	r3, [r3, #96]
 2013 002c 002B     		cmp	r3, #0
 2014 002e 04D0     		beq	.L109
1116:Drivers/STM32F3xx_HAL_Driver/Src/stm32f3xx_hal_uart.c ****   {
1117:Drivers/STM32F3xx_HAL_Driver/Src/stm32f3xx_hal_uart.c ****     HAL_DMA_Abort(huart->hdmatx);
 2015              		.loc 1 1117 0
 2016 0030 7B68     		ldr	r3, [r7, #4]
 2017 0032 1B6E     		ldr	r3, [r3, #96]
 2018 0034 1846     		mov	r0, r3
 2019 0036 FFF7FEFF 		bl	HAL_DMA_Abort
 2020              	.L109:
1118:Drivers/STM32F3xx_HAL_Driver/Src/stm32f3xx_hal_uart.c ****   }
1119:Drivers/STM32F3xx_HAL_Driver/Src/stm32f3xx_hal_uart.c ****   /* Abort the UART DMA rx channel */
1120:Drivers/STM32F3xx_HAL_Driver/Src/stm32f3xx_hal_uart.c ****   if(huart->hdmarx != NULL)
 2021              		.loc 1 1120 0
 2022 003a 7B68     		ldr	r3, [r7, #4]
 2023 003c 5B6E     		ldr	r3, [r3, #100]
 2024 003e 002B     		cmp	r3, #0
 2025 0040 04D0     		beq	.L110
1121:Drivers/STM32F3xx_HAL_Driver/Src/stm32f3xx_hal_uart.c ****   {
1122:Drivers/STM32F3xx_HAL_Driver/Src/stm32f3xx_hal_uart.c ****     HAL_DMA_Abort(huart->hdmarx);
 2026              		.loc 1 1122 0
 2027 0042 7B68     		ldr	r3, [r7, #4]
 2028 0044 5B6E     		ldr	r3, [r3, #100]
 2029 0046 1846     		mov	r0, r3
 2030 0048 FFF7FEFF 		bl	HAL_DMA_Abort
 2031              	.L110:
1123:Drivers/STM32F3xx_HAL_Driver/Src/stm32f3xx_hal_uart.c ****   }
1124:Drivers/STM32F3xx_HAL_Driver/Src/stm32f3xx_hal_uart.c **** 
1125:Drivers/STM32F3xx_HAL_Driver/Src/stm32f3xx_hal_uart.c ****   huart->gState = HAL_UART_STATE_READY;
 2032              		.loc 1 1125 0
 2033 004c 7B68     		ldr	r3, [r7, #4]
 2034 004e 2022     		movs	r2, #32
 2035 0050 83F86920 		strb	r2, [r3, #105]
1126:Drivers/STM32F3xx_HAL_Driver/Src/stm32f3xx_hal_uart.c ****   huart->RxState = HAL_UART_STATE_READY;
 2036              		.loc 1 1126 0
 2037 0054 7B68     		ldr	r3, [r7, #4]
 2038 0056 2022     		movs	r2, #32
ARM GAS  /var/folders/0z/_3zh0q697778kwks4bv8s9bh0000gn/T//ccPzatuz.s 			page 56


 2039 0058 83F86A20 		strb	r2, [r3, #106]
1127:Drivers/STM32F3xx_HAL_Driver/Src/stm32f3xx_hal_uart.c **** 
1128:Drivers/STM32F3xx_HAL_Driver/Src/stm32f3xx_hal_uart.c ****   return HAL_OK;
 2040              		.loc 1 1128 0
 2041 005c 0023     		movs	r3, #0
1129:Drivers/STM32F3xx_HAL_Driver/Src/stm32f3xx_hal_uart.c **** }
 2042              		.loc 1 1129 0
 2043 005e 1846     		mov	r0, r3
 2044 0060 0837     		adds	r7, r7, #8
 2045              	.LCFI84:
 2046              		.cfi_def_cfa_offset 8
 2047 0062 BD46     		mov	sp, r7
 2048              	.LCFI85:
 2049              		.cfi_def_cfa_register 13
 2050              		@ sp needed
 2051 0064 80BD     		pop	{r7, pc}
 2052              		.cfi_endproc
 2053              	.LFE138:
 2055 0066 00BF     		.section	.text.HAL_UART_IRQHandler,"ax",%progbits
 2056              		.align	2
 2057              		.global	HAL_UART_IRQHandler
 2058              		.thumb
 2059              		.thumb_func
 2061              	HAL_UART_IRQHandler:
 2062              	.LFB139:
1130:Drivers/STM32F3xx_HAL_Driver/Src/stm32f3xx_hal_uart.c **** 
1131:Drivers/STM32F3xx_HAL_Driver/Src/stm32f3xx_hal_uart.c **** /**
1132:Drivers/STM32F3xx_HAL_Driver/Src/stm32f3xx_hal_uart.c ****   * @brief Handle UART interrupt request.
1133:Drivers/STM32F3xx_HAL_Driver/Src/stm32f3xx_hal_uart.c ****   * @param huart: UART handle.
1134:Drivers/STM32F3xx_HAL_Driver/Src/stm32f3xx_hal_uart.c ****   * @retval None
1135:Drivers/STM32F3xx_HAL_Driver/Src/stm32f3xx_hal_uart.c ****   */
1136:Drivers/STM32F3xx_HAL_Driver/Src/stm32f3xx_hal_uart.c **** void HAL_UART_IRQHandler(UART_HandleTypeDef *huart)
1137:Drivers/STM32F3xx_HAL_Driver/Src/stm32f3xx_hal_uart.c **** {
 2063              		.loc 1 1137 0
 2064              		.cfi_startproc
 2065              		@ args = 0, pretend = 0, frame = 8
 2066              		@ frame_needed = 1, uses_anonymous_args = 0
 2067 0000 80B5     		push	{r7, lr}
 2068              	.LCFI86:
 2069              		.cfi_def_cfa_offset 8
 2070              		.cfi_offset 7, -8
 2071              		.cfi_offset 14, -4
 2072 0002 82B0     		sub	sp, sp, #8
 2073              	.LCFI87:
 2074              		.cfi_def_cfa_offset 16
 2075 0004 00AF     		add	r7, sp, #0
 2076              	.LCFI88:
 2077              		.cfi_def_cfa_register 7
 2078 0006 7860     		str	r0, [r7, #4]
1138:Drivers/STM32F3xx_HAL_Driver/Src/stm32f3xx_hal_uart.c ****   /* UART parity error interrupt occurred -------------------------------------*/
1139:Drivers/STM32F3xx_HAL_Driver/Src/stm32f3xx_hal_uart.c ****   if((__HAL_UART_GET_IT(huart, UART_IT_PE) != RESET) && (__HAL_UART_GET_IT_SOURCE(huart, UART_IT_PE
 2079              		.loc 1 1139 0
 2080 0008 7B68     		ldr	r3, [r7, #4]
 2081 000a 1B68     		ldr	r3, [r3]
 2082 000c DB69     		ldr	r3, [r3, #28]
 2083 000e 03F00103 		and	r3, r3, #1
 2084 0012 002B     		cmp	r3, #0
ARM GAS  /var/folders/0z/_3zh0q697778kwks4bv8s9bh0000gn/T//ccPzatuz.s 			page 57


 2085 0014 10D0     		beq	.L113
 2086              		.loc 1 1139 0 is_stmt 0 discriminator 1
 2087 0016 7B68     		ldr	r3, [r7, #4]
 2088 0018 1B68     		ldr	r3, [r3]
 2089 001a 1B68     		ldr	r3, [r3]
 2090 001c 03F48073 		and	r3, r3, #256
 2091 0020 002B     		cmp	r3, #0
 2092 0022 09D0     		beq	.L113
1140:Drivers/STM32F3xx_HAL_Driver/Src/stm32f3xx_hal_uart.c ****   {
1141:Drivers/STM32F3xx_HAL_Driver/Src/stm32f3xx_hal_uart.c ****     __HAL_UART_CLEAR_IT(huart, UART_CLEAR_PEF);
 2093              		.loc 1 1141 0 is_stmt 1
 2094 0024 7B68     		ldr	r3, [r7, #4]
 2095 0026 1B68     		ldr	r3, [r3]
 2096 0028 0122     		movs	r2, #1
 2097 002a 1A62     		str	r2, [r3, #32]
1142:Drivers/STM32F3xx_HAL_Driver/Src/stm32f3xx_hal_uart.c **** 
1143:Drivers/STM32F3xx_HAL_Driver/Src/stm32f3xx_hal_uart.c ****     huart->ErrorCode |= HAL_UART_ERROR_PE;
 2098              		.loc 1 1143 0
 2099 002c 7B68     		ldr	r3, [r7, #4]
 2100 002e DB6E     		ldr	r3, [r3, #108]
 2101 0030 43F00102 		orr	r2, r3, #1
 2102 0034 7B68     		ldr	r3, [r7, #4]
 2103 0036 DA66     		str	r2, [r3, #108]
 2104              	.L113:
1144:Drivers/STM32F3xx_HAL_Driver/Src/stm32f3xx_hal_uart.c ****   }
1145:Drivers/STM32F3xx_HAL_Driver/Src/stm32f3xx_hal_uart.c **** 
1146:Drivers/STM32F3xx_HAL_Driver/Src/stm32f3xx_hal_uart.c ****   /* UART frame error interrupt occurred --------------------------------------*/
1147:Drivers/STM32F3xx_HAL_Driver/Src/stm32f3xx_hal_uart.c ****   if((__HAL_UART_GET_IT(huart, UART_IT_FE) != RESET) && (__HAL_UART_GET_IT_SOURCE(huart, UART_IT_ER
 2105              		.loc 1 1147 0
 2106 0038 7B68     		ldr	r3, [r7, #4]
 2107 003a 1B68     		ldr	r3, [r3]
 2108 003c DB69     		ldr	r3, [r3, #28]
 2109 003e 03F00203 		and	r3, r3, #2
 2110 0042 002B     		cmp	r3, #0
 2111 0044 10D0     		beq	.L114
 2112              		.loc 1 1147 0 is_stmt 0 discriminator 1
 2113 0046 7B68     		ldr	r3, [r7, #4]
 2114 0048 1B68     		ldr	r3, [r3]
 2115 004a 9B68     		ldr	r3, [r3, #8]
 2116 004c 03F00103 		and	r3, r3, #1
 2117 0050 002B     		cmp	r3, #0
 2118 0052 09D0     		beq	.L114
1148:Drivers/STM32F3xx_HAL_Driver/Src/stm32f3xx_hal_uart.c ****   {
1149:Drivers/STM32F3xx_HAL_Driver/Src/stm32f3xx_hal_uart.c ****     __HAL_UART_CLEAR_IT(huart, UART_CLEAR_FEF);
 2119              		.loc 1 1149 0 is_stmt 1
 2120 0054 7B68     		ldr	r3, [r7, #4]
 2121 0056 1B68     		ldr	r3, [r3]
 2122 0058 0222     		movs	r2, #2
 2123 005a 1A62     		str	r2, [r3, #32]
1150:Drivers/STM32F3xx_HAL_Driver/Src/stm32f3xx_hal_uart.c **** 
1151:Drivers/STM32F3xx_HAL_Driver/Src/stm32f3xx_hal_uart.c ****     huart->ErrorCode |= HAL_UART_ERROR_FE;
 2124              		.loc 1 1151 0
 2125 005c 7B68     		ldr	r3, [r7, #4]
 2126 005e DB6E     		ldr	r3, [r3, #108]
 2127 0060 43F00402 		orr	r2, r3, #4
 2128 0064 7B68     		ldr	r3, [r7, #4]
 2129 0066 DA66     		str	r2, [r3, #108]
ARM GAS  /var/folders/0z/_3zh0q697778kwks4bv8s9bh0000gn/T//ccPzatuz.s 			page 58


 2130              	.L114:
1152:Drivers/STM32F3xx_HAL_Driver/Src/stm32f3xx_hal_uart.c ****   }
1153:Drivers/STM32F3xx_HAL_Driver/Src/stm32f3xx_hal_uart.c **** 
1154:Drivers/STM32F3xx_HAL_Driver/Src/stm32f3xx_hal_uart.c ****   /* UART noise error interrupt occurred --------------------------------------*/
1155:Drivers/STM32F3xx_HAL_Driver/Src/stm32f3xx_hal_uart.c ****   if((__HAL_UART_GET_IT(huart, UART_IT_NE) != RESET) && (__HAL_UART_GET_IT_SOURCE(huart, UART_IT_ER
 2131              		.loc 1 1155 0
 2132 0068 7B68     		ldr	r3, [r7, #4]
 2133 006a 1B68     		ldr	r3, [r3]
 2134 006c DB69     		ldr	r3, [r3, #28]
 2135 006e 03F00403 		and	r3, r3, #4
 2136 0072 002B     		cmp	r3, #0
 2137 0074 10D0     		beq	.L115
 2138              		.loc 1 1155 0 is_stmt 0 discriminator 1
 2139 0076 7B68     		ldr	r3, [r7, #4]
 2140 0078 1B68     		ldr	r3, [r3]
 2141 007a 9B68     		ldr	r3, [r3, #8]
 2142 007c 03F00103 		and	r3, r3, #1
 2143 0080 002B     		cmp	r3, #0
 2144 0082 09D0     		beq	.L115
1156:Drivers/STM32F3xx_HAL_Driver/Src/stm32f3xx_hal_uart.c ****   {
1157:Drivers/STM32F3xx_HAL_Driver/Src/stm32f3xx_hal_uart.c ****     __HAL_UART_CLEAR_IT(huart, UART_CLEAR_NEF);
 2145              		.loc 1 1157 0 is_stmt 1
 2146 0084 7B68     		ldr	r3, [r7, #4]
 2147 0086 1B68     		ldr	r3, [r3]
 2148 0088 0422     		movs	r2, #4
 2149 008a 1A62     		str	r2, [r3, #32]
1158:Drivers/STM32F3xx_HAL_Driver/Src/stm32f3xx_hal_uart.c **** 
1159:Drivers/STM32F3xx_HAL_Driver/Src/stm32f3xx_hal_uart.c ****     huart->ErrorCode |= HAL_UART_ERROR_NE;
 2150              		.loc 1 1159 0
 2151 008c 7B68     		ldr	r3, [r7, #4]
 2152 008e DB6E     		ldr	r3, [r3, #108]
 2153 0090 43F00202 		orr	r2, r3, #2
 2154 0094 7B68     		ldr	r3, [r7, #4]
 2155 0096 DA66     		str	r2, [r3, #108]
 2156              	.L115:
1160:Drivers/STM32F3xx_HAL_Driver/Src/stm32f3xx_hal_uart.c ****   }
1161:Drivers/STM32F3xx_HAL_Driver/Src/stm32f3xx_hal_uart.c **** 
1162:Drivers/STM32F3xx_HAL_Driver/Src/stm32f3xx_hal_uart.c ****   /* UART Over-Run interrupt occurred -----------------------------------------*/
1163:Drivers/STM32F3xx_HAL_Driver/Src/stm32f3xx_hal_uart.c ****   if((__HAL_UART_GET_IT(huart, UART_IT_ORE) != RESET) && (__HAL_UART_GET_IT_SOURCE(huart, UART_IT_E
 2157              		.loc 1 1163 0
 2158 0098 7B68     		ldr	r3, [r7, #4]
 2159 009a 1B68     		ldr	r3, [r3]
 2160 009c DB69     		ldr	r3, [r3, #28]
 2161 009e 03F00803 		and	r3, r3, #8
 2162 00a2 002B     		cmp	r3, #0
 2163 00a4 10D0     		beq	.L116
 2164              		.loc 1 1163 0 is_stmt 0 discriminator 1
 2165 00a6 7B68     		ldr	r3, [r7, #4]
 2166 00a8 1B68     		ldr	r3, [r3]
 2167 00aa 9B68     		ldr	r3, [r3, #8]
 2168 00ac 03F00103 		and	r3, r3, #1
 2169 00b0 002B     		cmp	r3, #0
 2170 00b2 09D0     		beq	.L116
1164:Drivers/STM32F3xx_HAL_Driver/Src/stm32f3xx_hal_uart.c ****   {
1165:Drivers/STM32F3xx_HAL_Driver/Src/stm32f3xx_hal_uart.c ****     __HAL_UART_CLEAR_IT(huart, UART_CLEAR_OREF);
 2171              		.loc 1 1165 0 is_stmt 1
 2172 00b4 7B68     		ldr	r3, [r7, #4]
ARM GAS  /var/folders/0z/_3zh0q697778kwks4bv8s9bh0000gn/T//ccPzatuz.s 			page 59


 2173 00b6 1B68     		ldr	r3, [r3]
 2174 00b8 0822     		movs	r2, #8
 2175 00ba 1A62     		str	r2, [r3, #32]
1166:Drivers/STM32F3xx_HAL_Driver/Src/stm32f3xx_hal_uart.c **** 
1167:Drivers/STM32F3xx_HAL_Driver/Src/stm32f3xx_hal_uart.c ****     huart->ErrorCode |= HAL_UART_ERROR_ORE;
 2176              		.loc 1 1167 0
 2177 00bc 7B68     		ldr	r3, [r7, #4]
 2178 00be DB6E     		ldr	r3, [r3, #108]
 2179 00c0 43F00802 		orr	r2, r3, #8
 2180 00c4 7B68     		ldr	r3, [r7, #4]
 2181 00c6 DA66     		str	r2, [r3, #108]
 2182              	.L116:
1168:Drivers/STM32F3xx_HAL_Driver/Src/stm32f3xx_hal_uart.c ****   }
1169:Drivers/STM32F3xx_HAL_Driver/Src/stm32f3xx_hal_uart.c **** 
1170:Drivers/STM32F3xx_HAL_Driver/Src/stm32f3xx_hal_uart.c ****   /* UART wakeup from Stop mode interrupt occurred -------------------------------------*/
1171:Drivers/STM32F3xx_HAL_Driver/Src/stm32f3xx_hal_uart.c ****   if((__HAL_UART_GET_IT(huart, UART_IT_WUF) != RESET) && (__HAL_UART_GET_IT_SOURCE(huart, UART_IT_W
 2183              		.loc 1 1171 0
 2184 00c8 7B68     		ldr	r3, [r7, #4]
 2185 00ca 1B68     		ldr	r3, [r3]
 2186 00cc DB69     		ldr	r3, [r3, #28]
 2187 00ce 03F48013 		and	r3, r3, #1048576
 2188 00d2 002B     		cmp	r3, #0
 2189 00d4 16D0     		beq	.L117
 2190              		.loc 1 1171 0 is_stmt 0 discriminator 1
 2191 00d6 7B68     		ldr	r3, [r7, #4]
 2192 00d8 1B68     		ldr	r3, [r3]
 2193 00da 9B68     		ldr	r3, [r3, #8]
 2194 00dc 03F48003 		and	r3, r3, #4194304
 2195 00e0 002B     		cmp	r3, #0
 2196 00e2 0FD0     		beq	.L117
1172:Drivers/STM32F3xx_HAL_Driver/Src/stm32f3xx_hal_uart.c ****   {
1173:Drivers/STM32F3xx_HAL_Driver/Src/stm32f3xx_hal_uart.c ****     __HAL_UART_CLEAR_IT(huart, UART_CLEAR_WUF);
 2197              		.loc 1 1173 0 is_stmt 1
 2198 00e4 7B68     		ldr	r3, [r7, #4]
 2199 00e6 1B68     		ldr	r3, [r3]
 2200 00e8 4FF48012 		mov	r2, #1048576
 2201 00ec 1A62     		str	r2, [r3, #32]
1174:Drivers/STM32F3xx_HAL_Driver/Src/stm32f3xx_hal_uart.c ****     /* Set the UART state ready to be able to start again the process */
1175:Drivers/STM32F3xx_HAL_Driver/Src/stm32f3xx_hal_uart.c ****     huart->gState = HAL_UART_STATE_READY;
 2202              		.loc 1 1175 0
 2203 00ee 7B68     		ldr	r3, [r7, #4]
 2204 00f0 2022     		movs	r2, #32
 2205 00f2 83F86920 		strb	r2, [r3, #105]
1176:Drivers/STM32F3xx_HAL_Driver/Src/stm32f3xx_hal_uart.c ****     huart->RxState = HAL_UART_STATE_READY;
 2206              		.loc 1 1176 0
 2207 00f6 7B68     		ldr	r3, [r7, #4]
 2208 00f8 2022     		movs	r2, #32
 2209 00fa 83F86A20 		strb	r2, [r3, #106]
1177:Drivers/STM32F3xx_HAL_Driver/Src/stm32f3xx_hal_uart.c **** 
1178:Drivers/STM32F3xx_HAL_Driver/Src/stm32f3xx_hal_uart.c ****     HAL_UARTEx_WakeupCallback(huart);
 2210              		.loc 1 1178 0
 2211 00fe 7868     		ldr	r0, [r7, #4]
 2212 0100 FFF7FEFF 		bl	HAL_UARTEx_WakeupCallback
 2213              	.L117:
1179:Drivers/STM32F3xx_HAL_Driver/Src/stm32f3xx_hal_uart.c ****   }
1180:Drivers/STM32F3xx_HAL_Driver/Src/stm32f3xx_hal_uart.c **** 
1181:Drivers/STM32F3xx_HAL_Driver/Src/stm32f3xx_hal_uart.c ****   /* UART in mode Receiver ---------------------------------------------------*/
ARM GAS  /var/folders/0z/_3zh0q697778kwks4bv8s9bh0000gn/T//ccPzatuz.s 			page 60


1182:Drivers/STM32F3xx_HAL_Driver/Src/stm32f3xx_hal_uart.c ****   if((__HAL_UART_GET_IT(huart, UART_IT_RXNE) != RESET) && (__HAL_UART_GET_IT_SOURCE(huart, UART_IT_
 2214              		.loc 1 1182 0
 2215 0104 7B68     		ldr	r3, [r7, #4]
 2216 0106 1B68     		ldr	r3, [r3]
 2217 0108 DB69     		ldr	r3, [r3, #28]
 2218 010a 03F02003 		and	r3, r3, #32
 2219 010e 002B     		cmp	r3, #0
 2220 0110 09D0     		beq	.L118
 2221              		.loc 1 1182 0 is_stmt 0 discriminator 1
 2222 0112 7B68     		ldr	r3, [r7, #4]
 2223 0114 1B68     		ldr	r3, [r3]
 2224 0116 1B68     		ldr	r3, [r3]
 2225 0118 03F02003 		and	r3, r3, #32
 2226 011c 002B     		cmp	r3, #0
 2227 011e 02D0     		beq	.L118
1183:Drivers/STM32F3xx_HAL_Driver/Src/stm32f3xx_hal_uart.c ****   {
1184:Drivers/STM32F3xx_HAL_Driver/Src/stm32f3xx_hal_uart.c ****     UART_Receive_IT(huart);
 2228              		.loc 1 1184 0 is_stmt 1
 2229 0120 7868     		ldr	r0, [r7, #4]
 2230 0122 FFF7FEFF 		bl	UART_Receive_IT
 2231              	.L118:
1185:Drivers/STM32F3xx_HAL_Driver/Src/stm32f3xx_hal_uart.c ****   }
1186:Drivers/STM32F3xx_HAL_Driver/Src/stm32f3xx_hal_uart.c **** 
1187:Drivers/STM32F3xx_HAL_Driver/Src/stm32f3xx_hal_uart.c ****   /* UART in mode Transmitter ------------------------------------------------*/
1188:Drivers/STM32F3xx_HAL_Driver/Src/stm32f3xx_hal_uart.c ****   if((__HAL_UART_GET_IT(huart, UART_IT_TXE) != RESET) &&(__HAL_UART_GET_IT_SOURCE(huart, UART_IT_TX
 2232              		.loc 1 1188 0
 2233 0126 7B68     		ldr	r3, [r7, #4]
 2234 0128 1B68     		ldr	r3, [r3]
 2235 012a DB69     		ldr	r3, [r3, #28]
 2236 012c 03F08003 		and	r3, r3, #128
 2237 0130 002B     		cmp	r3, #0
 2238 0132 09D0     		beq	.L119
 2239              		.loc 1 1188 0 is_stmt 0 discriminator 1
 2240 0134 7B68     		ldr	r3, [r7, #4]
 2241 0136 1B68     		ldr	r3, [r3]
 2242 0138 1B68     		ldr	r3, [r3]
 2243 013a 03F08003 		and	r3, r3, #128
 2244 013e 002B     		cmp	r3, #0
 2245 0140 02D0     		beq	.L119
1189:Drivers/STM32F3xx_HAL_Driver/Src/stm32f3xx_hal_uart.c ****   {
1190:Drivers/STM32F3xx_HAL_Driver/Src/stm32f3xx_hal_uart.c ****     UART_Transmit_IT(huart);
 2246              		.loc 1 1190 0 is_stmt 1
 2247 0142 7868     		ldr	r0, [r7, #4]
 2248 0144 FFF7FEFF 		bl	UART_Transmit_IT
 2249              	.L119:
1191:Drivers/STM32F3xx_HAL_Driver/Src/stm32f3xx_hal_uart.c ****   }
1192:Drivers/STM32F3xx_HAL_Driver/Src/stm32f3xx_hal_uart.c **** 
1193:Drivers/STM32F3xx_HAL_Driver/Src/stm32f3xx_hal_uart.c ****   /* UART in mode Transmitter (transmission end) -----------------------------*/
1194:Drivers/STM32F3xx_HAL_Driver/Src/stm32f3xx_hal_uart.c ****   if((__HAL_UART_GET_IT(huart, UART_IT_TC) != RESET) &&(__HAL_UART_GET_IT_SOURCE(huart, UART_IT_TC)
 2250              		.loc 1 1194 0
 2251 0148 7B68     		ldr	r3, [r7, #4]
 2252 014a 1B68     		ldr	r3, [r3]
 2253 014c DB69     		ldr	r3, [r3, #28]
 2254 014e 03F04003 		and	r3, r3, #64
 2255 0152 002B     		cmp	r3, #0
 2256 0154 09D0     		beq	.L120
 2257              		.loc 1 1194 0 is_stmt 0 discriminator 1
ARM GAS  /var/folders/0z/_3zh0q697778kwks4bv8s9bh0000gn/T//ccPzatuz.s 			page 61


 2258 0156 7B68     		ldr	r3, [r7, #4]
 2259 0158 1B68     		ldr	r3, [r3]
 2260 015a 1B68     		ldr	r3, [r3]
 2261 015c 03F04003 		and	r3, r3, #64
 2262 0160 002B     		cmp	r3, #0
 2263 0162 02D0     		beq	.L120
1195:Drivers/STM32F3xx_HAL_Driver/Src/stm32f3xx_hal_uart.c ****   {
1196:Drivers/STM32F3xx_HAL_Driver/Src/stm32f3xx_hal_uart.c ****     UART_EndTransmit_IT(huart);
 2264              		.loc 1 1196 0 is_stmt 1
 2265 0164 7868     		ldr	r0, [r7, #4]
 2266 0166 FFF7FEFF 		bl	UART_EndTransmit_IT
 2267              	.L120:
1197:Drivers/STM32F3xx_HAL_Driver/Src/stm32f3xx_hal_uart.c ****   }
1198:Drivers/STM32F3xx_HAL_Driver/Src/stm32f3xx_hal_uart.c **** 
1199:Drivers/STM32F3xx_HAL_Driver/Src/stm32f3xx_hal_uart.c ****   if(huart->ErrorCode != HAL_UART_ERROR_NONE)
 2268              		.loc 1 1199 0
 2269 016a 7B68     		ldr	r3, [r7, #4]
 2270 016c DB6E     		ldr	r3, [r3, #108]
 2271 016e 002B     		cmp	r3, #0
 2272 0170 0AD0     		beq	.L112
1200:Drivers/STM32F3xx_HAL_Driver/Src/stm32f3xx_hal_uart.c ****   {
1201:Drivers/STM32F3xx_HAL_Driver/Src/stm32f3xx_hal_uart.c ****     /* Set the UART state ready to be able to start again the Tx/Rx process */
1202:Drivers/STM32F3xx_HAL_Driver/Src/stm32f3xx_hal_uart.c ****     huart->gState = HAL_UART_STATE_READY;
 2273              		.loc 1 1202 0
 2274 0172 7B68     		ldr	r3, [r7, #4]
 2275 0174 2022     		movs	r2, #32
 2276 0176 83F86920 		strb	r2, [r3, #105]
1203:Drivers/STM32F3xx_HAL_Driver/Src/stm32f3xx_hal_uart.c ****     huart->RxState = HAL_UART_STATE_READY;
 2277              		.loc 1 1203 0
 2278 017a 7B68     		ldr	r3, [r7, #4]
 2279 017c 2022     		movs	r2, #32
 2280 017e 83F86A20 		strb	r2, [r3, #106]
1204:Drivers/STM32F3xx_HAL_Driver/Src/stm32f3xx_hal_uart.c **** 
1205:Drivers/STM32F3xx_HAL_Driver/Src/stm32f3xx_hal_uart.c ****     HAL_UART_ErrorCallback(huart);
 2281              		.loc 1 1205 0
 2282 0182 7868     		ldr	r0, [r7, #4]
 2283 0184 FFF7FEFF 		bl	HAL_UART_ErrorCallback
 2284              	.L112:
1206:Drivers/STM32F3xx_HAL_Driver/Src/stm32f3xx_hal_uart.c ****   }  
1207:Drivers/STM32F3xx_HAL_Driver/Src/stm32f3xx_hal_uart.c **** }
 2285              		.loc 1 1207 0
 2286 0188 0837     		adds	r7, r7, #8
 2287              	.LCFI89:
 2288              		.cfi_def_cfa_offset 8
 2289 018a BD46     		mov	sp, r7
 2290              	.LCFI90:
 2291              		.cfi_def_cfa_register 13
 2292              		@ sp needed
 2293 018c 80BD     		pop	{r7, pc}
 2294              		.cfi_endproc
 2295              	.LFE139:
 2297 018e 00BF     		.section	.text.HAL_UART_TxCpltCallback,"ax",%progbits
 2298              		.align	2
 2299              		.weak	HAL_UART_TxCpltCallback
 2300              		.thumb
 2301              		.thumb_func
 2303              	HAL_UART_TxCpltCallback:
ARM GAS  /var/folders/0z/_3zh0q697778kwks4bv8s9bh0000gn/T//ccPzatuz.s 			page 62


 2304              	.LFB140:
1208:Drivers/STM32F3xx_HAL_Driver/Src/stm32f3xx_hal_uart.c **** 
1209:Drivers/STM32F3xx_HAL_Driver/Src/stm32f3xx_hal_uart.c **** /**
1210:Drivers/STM32F3xx_HAL_Driver/Src/stm32f3xx_hal_uart.c ****   * @brief Tx Transfer completed callback.
1211:Drivers/STM32F3xx_HAL_Driver/Src/stm32f3xx_hal_uart.c ****   * @param huart: UART handle.
1212:Drivers/STM32F3xx_HAL_Driver/Src/stm32f3xx_hal_uart.c ****   * @retval None
1213:Drivers/STM32F3xx_HAL_Driver/Src/stm32f3xx_hal_uart.c ****   */
1214:Drivers/STM32F3xx_HAL_Driver/Src/stm32f3xx_hal_uart.c ****  __weak void HAL_UART_TxCpltCallback(UART_HandleTypeDef *huart)
1215:Drivers/STM32F3xx_HAL_Driver/Src/stm32f3xx_hal_uart.c **** {
 2305              		.loc 1 1215 0
 2306              		.cfi_startproc
 2307              		@ args = 0, pretend = 0, frame = 8
 2308              		@ frame_needed = 1, uses_anonymous_args = 0
 2309              		@ link register save eliminated.
 2310 0000 80B4     		push	{r7}
 2311              	.LCFI91:
 2312              		.cfi_def_cfa_offset 4
 2313              		.cfi_offset 7, -4
 2314 0002 83B0     		sub	sp, sp, #12
 2315              	.LCFI92:
 2316              		.cfi_def_cfa_offset 16
 2317 0004 00AF     		add	r7, sp, #0
 2318              	.LCFI93:
 2319              		.cfi_def_cfa_register 7
 2320 0006 7860     		str	r0, [r7, #4]
1216:Drivers/STM32F3xx_HAL_Driver/Src/stm32f3xx_hal_uart.c ****   /* Prevent unused argument(s) compilation warning */
1217:Drivers/STM32F3xx_HAL_Driver/Src/stm32f3xx_hal_uart.c ****   UNUSED(huart);
1218:Drivers/STM32F3xx_HAL_Driver/Src/stm32f3xx_hal_uart.c **** 
1219:Drivers/STM32F3xx_HAL_Driver/Src/stm32f3xx_hal_uart.c ****   /* NOTE : This function should not be modified, when the callback is needed,
1220:Drivers/STM32F3xx_HAL_Driver/Src/stm32f3xx_hal_uart.c ****             the HAL_UART_TxCpltCallback can be implemented in the user file.
1221:Drivers/STM32F3xx_HAL_Driver/Src/stm32f3xx_hal_uart.c ****    */
1222:Drivers/STM32F3xx_HAL_Driver/Src/stm32f3xx_hal_uart.c **** }
 2321              		.loc 1 1222 0
 2322 0008 0C37     		adds	r7, r7, #12
 2323              	.LCFI94:
 2324              		.cfi_def_cfa_offset 4
 2325 000a BD46     		mov	sp, r7
 2326              	.LCFI95:
 2327              		.cfi_def_cfa_register 13
 2328              		@ sp needed
 2329 000c 5DF8047B 		ldr	r7, [sp], #4
 2330              	.LCFI96:
 2331              		.cfi_restore 7
 2332              		.cfi_def_cfa_offset 0
 2333 0010 7047     		bx	lr
 2334              		.cfi_endproc
 2335              	.LFE140:
 2337 0012 00BF     		.section	.text.HAL_UART_TxHalfCpltCallback,"ax",%progbits
 2338              		.align	2
 2339              		.weak	HAL_UART_TxHalfCpltCallback
 2340              		.thumb
 2341              		.thumb_func
 2343              	HAL_UART_TxHalfCpltCallback:
 2344              	.LFB141:
1223:Drivers/STM32F3xx_HAL_Driver/Src/stm32f3xx_hal_uart.c **** 
1224:Drivers/STM32F3xx_HAL_Driver/Src/stm32f3xx_hal_uart.c **** /**
1225:Drivers/STM32F3xx_HAL_Driver/Src/stm32f3xx_hal_uart.c ****   * @brief  Tx Half Transfer completed callback.
ARM GAS  /var/folders/0z/_3zh0q697778kwks4bv8s9bh0000gn/T//ccPzatuz.s 			page 63


1226:Drivers/STM32F3xx_HAL_Driver/Src/stm32f3xx_hal_uart.c ****   * @param  huart: UART handle.
1227:Drivers/STM32F3xx_HAL_Driver/Src/stm32f3xx_hal_uart.c ****   * @retval None
1228:Drivers/STM32F3xx_HAL_Driver/Src/stm32f3xx_hal_uart.c ****   */
1229:Drivers/STM32F3xx_HAL_Driver/Src/stm32f3xx_hal_uart.c ****  __weak void HAL_UART_TxHalfCpltCallback(UART_HandleTypeDef *huart)
1230:Drivers/STM32F3xx_HAL_Driver/Src/stm32f3xx_hal_uart.c **** {
 2345              		.loc 1 1230 0
 2346              		.cfi_startproc
 2347              		@ args = 0, pretend = 0, frame = 8
 2348              		@ frame_needed = 1, uses_anonymous_args = 0
 2349              		@ link register save eliminated.
 2350 0000 80B4     		push	{r7}
 2351              	.LCFI97:
 2352              		.cfi_def_cfa_offset 4
 2353              		.cfi_offset 7, -4
 2354 0002 83B0     		sub	sp, sp, #12
 2355              	.LCFI98:
 2356              		.cfi_def_cfa_offset 16
 2357 0004 00AF     		add	r7, sp, #0
 2358              	.LCFI99:
 2359              		.cfi_def_cfa_register 7
 2360 0006 7860     		str	r0, [r7, #4]
1231:Drivers/STM32F3xx_HAL_Driver/Src/stm32f3xx_hal_uart.c ****   /* Prevent unused argument(s) compilation warning */
1232:Drivers/STM32F3xx_HAL_Driver/Src/stm32f3xx_hal_uart.c ****   UNUSED(huart);
1233:Drivers/STM32F3xx_HAL_Driver/Src/stm32f3xx_hal_uart.c **** 
1234:Drivers/STM32F3xx_HAL_Driver/Src/stm32f3xx_hal_uart.c ****   /* NOTE: This function should not be modified, when the callback is needed,
1235:Drivers/STM32F3xx_HAL_Driver/Src/stm32f3xx_hal_uart.c ****            the HAL_UART_TxHalfCpltCallback can be implemented in the user file.
1236:Drivers/STM32F3xx_HAL_Driver/Src/stm32f3xx_hal_uart.c ****    */
1237:Drivers/STM32F3xx_HAL_Driver/Src/stm32f3xx_hal_uart.c **** }
 2361              		.loc 1 1237 0
 2362 0008 0C37     		adds	r7, r7, #12
 2363              	.LCFI100:
 2364              		.cfi_def_cfa_offset 4
 2365 000a BD46     		mov	sp, r7
 2366              	.LCFI101:
 2367              		.cfi_def_cfa_register 13
 2368              		@ sp needed
 2369 000c 5DF8047B 		ldr	r7, [sp], #4
 2370              	.LCFI102:
 2371              		.cfi_restore 7
 2372              		.cfi_def_cfa_offset 0
 2373 0010 7047     		bx	lr
 2374              		.cfi_endproc
 2375              	.LFE141:
 2377 0012 00BF     		.section	.text.HAL_UART_RxCpltCallback,"ax",%progbits
 2378              		.align	2
 2379              		.weak	HAL_UART_RxCpltCallback
 2380              		.thumb
 2381              		.thumb_func
 2383              	HAL_UART_RxCpltCallback:
 2384              	.LFB142:
1238:Drivers/STM32F3xx_HAL_Driver/Src/stm32f3xx_hal_uart.c **** 
1239:Drivers/STM32F3xx_HAL_Driver/Src/stm32f3xx_hal_uart.c **** /**
1240:Drivers/STM32F3xx_HAL_Driver/Src/stm32f3xx_hal_uart.c ****   * @brief Rx Transfer completed callback.
1241:Drivers/STM32F3xx_HAL_Driver/Src/stm32f3xx_hal_uart.c ****   * @param huart: UART handle.
1242:Drivers/STM32F3xx_HAL_Driver/Src/stm32f3xx_hal_uart.c ****   * @retval None
1243:Drivers/STM32F3xx_HAL_Driver/Src/stm32f3xx_hal_uart.c ****   */
1244:Drivers/STM32F3xx_HAL_Driver/Src/stm32f3xx_hal_uart.c **** __weak void HAL_UART_RxCpltCallback(UART_HandleTypeDef *huart)
ARM GAS  /var/folders/0z/_3zh0q697778kwks4bv8s9bh0000gn/T//ccPzatuz.s 			page 64


1245:Drivers/STM32F3xx_HAL_Driver/Src/stm32f3xx_hal_uart.c **** {
 2385              		.loc 1 1245 0
 2386              		.cfi_startproc
 2387              		@ args = 0, pretend = 0, frame = 8
 2388              		@ frame_needed = 1, uses_anonymous_args = 0
 2389              		@ link register save eliminated.
 2390 0000 80B4     		push	{r7}
 2391              	.LCFI103:
 2392              		.cfi_def_cfa_offset 4
 2393              		.cfi_offset 7, -4
 2394 0002 83B0     		sub	sp, sp, #12
 2395              	.LCFI104:
 2396              		.cfi_def_cfa_offset 16
 2397 0004 00AF     		add	r7, sp, #0
 2398              	.LCFI105:
 2399              		.cfi_def_cfa_register 7
 2400 0006 7860     		str	r0, [r7, #4]
1246:Drivers/STM32F3xx_HAL_Driver/Src/stm32f3xx_hal_uart.c ****   /* Prevent unused argument(s) compilation warning */
1247:Drivers/STM32F3xx_HAL_Driver/Src/stm32f3xx_hal_uart.c ****   UNUSED(huart);
1248:Drivers/STM32F3xx_HAL_Driver/Src/stm32f3xx_hal_uart.c **** 
1249:Drivers/STM32F3xx_HAL_Driver/Src/stm32f3xx_hal_uart.c ****   /* NOTE : This function should not be modified, when the callback is needed,
1250:Drivers/STM32F3xx_HAL_Driver/Src/stm32f3xx_hal_uart.c ****             the HAL_UART_RxCpltCallback can be implemented in the user file.
1251:Drivers/STM32F3xx_HAL_Driver/Src/stm32f3xx_hal_uart.c ****    */
1252:Drivers/STM32F3xx_HAL_Driver/Src/stm32f3xx_hal_uart.c **** }
 2401              		.loc 1 1252 0
 2402 0008 0C37     		adds	r7, r7, #12
 2403              	.LCFI106:
 2404              		.cfi_def_cfa_offset 4
 2405 000a BD46     		mov	sp, r7
 2406              	.LCFI107:
 2407              		.cfi_def_cfa_register 13
 2408              		@ sp needed
 2409 000c 5DF8047B 		ldr	r7, [sp], #4
 2410              	.LCFI108:
 2411              		.cfi_restore 7
 2412              		.cfi_def_cfa_offset 0
 2413 0010 7047     		bx	lr
 2414              		.cfi_endproc
 2415              	.LFE142:
 2417 0012 00BF     		.section	.text.HAL_UART_RxHalfCpltCallback,"ax",%progbits
 2418              		.align	2
 2419              		.weak	HAL_UART_RxHalfCpltCallback
 2420              		.thumb
 2421              		.thumb_func
 2423              	HAL_UART_RxHalfCpltCallback:
 2424              	.LFB143:
1253:Drivers/STM32F3xx_HAL_Driver/Src/stm32f3xx_hal_uart.c **** 
1254:Drivers/STM32F3xx_HAL_Driver/Src/stm32f3xx_hal_uart.c **** /**
1255:Drivers/STM32F3xx_HAL_Driver/Src/stm32f3xx_hal_uart.c ****   * @brief  Rx Half Transfer completed callback.
1256:Drivers/STM32F3xx_HAL_Driver/Src/stm32f3xx_hal_uart.c ****   * @param  huart: UART handle.
1257:Drivers/STM32F3xx_HAL_Driver/Src/stm32f3xx_hal_uart.c ****   * @retval None
1258:Drivers/STM32F3xx_HAL_Driver/Src/stm32f3xx_hal_uart.c ****   */
1259:Drivers/STM32F3xx_HAL_Driver/Src/stm32f3xx_hal_uart.c **** __weak void HAL_UART_RxHalfCpltCallback(UART_HandleTypeDef *huart)
1260:Drivers/STM32F3xx_HAL_Driver/Src/stm32f3xx_hal_uart.c **** {
 2425              		.loc 1 1260 0
 2426              		.cfi_startproc
 2427              		@ args = 0, pretend = 0, frame = 8
ARM GAS  /var/folders/0z/_3zh0q697778kwks4bv8s9bh0000gn/T//ccPzatuz.s 			page 65


 2428              		@ frame_needed = 1, uses_anonymous_args = 0
 2429              		@ link register save eliminated.
 2430 0000 80B4     		push	{r7}
 2431              	.LCFI109:
 2432              		.cfi_def_cfa_offset 4
 2433              		.cfi_offset 7, -4
 2434 0002 83B0     		sub	sp, sp, #12
 2435              	.LCFI110:
 2436              		.cfi_def_cfa_offset 16
 2437 0004 00AF     		add	r7, sp, #0
 2438              	.LCFI111:
 2439              		.cfi_def_cfa_register 7
 2440 0006 7860     		str	r0, [r7, #4]
1261:Drivers/STM32F3xx_HAL_Driver/Src/stm32f3xx_hal_uart.c ****   /* Prevent unused argument(s) compilation warning */
1262:Drivers/STM32F3xx_HAL_Driver/Src/stm32f3xx_hal_uart.c ****   UNUSED(huart);
1263:Drivers/STM32F3xx_HAL_Driver/Src/stm32f3xx_hal_uart.c **** 
1264:Drivers/STM32F3xx_HAL_Driver/Src/stm32f3xx_hal_uart.c ****   /* NOTE: This function should not be modified, when the callback is needed,
1265:Drivers/STM32F3xx_HAL_Driver/Src/stm32f3xx_hal_uart.c ****            the HAL_UART_RxHalfCpltCallback can be implemented in the user file.
1266:Drivers/STM32F3xx_HAL_Driver/Src/stm32f3xx_hal_uart.c ****    */
1267:Drivers/STM32F3xx_HAL_Driver/Src/stm32f3xx_hal_uart.c **** }
 2441              		.loc 1 1267 0
 2442 0008 0C37     		adds	r7, r7, #12
 2443              	.LCFI112:
 2444              		.cfi_def_cfa_offset 4
 2445 000a BD46     		mov	sp, r7
 2446              	.LCFI113:
 2447              		.cfi_def_cfa_register 13
 2448              		@ sp needed
 2449 000c 5DF8047B 		ldr	r7, [sp], #4
 2450              	.LCFI114:
 2451              		.cfi_restore 7
 2452              		.cfi_def_cfa_offset 0
 2453 0010 7047     		bx	lr
 2454              		.cfi_endproc
 2455              	.LFE143:
 2457 0012 00BF     		.section	.text.HAL_UART_ErrorCallback,"ax",%progbits
 2458              		.align	2
 2459              		.weak	HAL_UART_ErrorCallback
 2460              		.thumb
 2461              		.thumb_func
 2463              	HAL_UART_ErrorCallback:
 2464              	.LFB144:
1268:Drivers/STM32F3xx_HAL_Driver/Src/stm32f3xx_hal_uart.c **** 
1269:Drivers/STM32F3xx_HAL_Driver/Src/stm32f3xx_hal_uart.c **** /**
1270:Drivers/STM32F3xx_HAL_Driver/Src/stm32f3xx_hal_uart.c ****   * @brief UART error callback.
1271:Drivers/STM32F3xx_HAL_Driver/Src/stm32f3xx_hal_uart.c ****   * @param huart: UART handle.
1272:Drivers/STM32F3xx_HAL_Driver/Src/stm32f3xx_hal_uart.c ****   * @retval None
1273:Drivers/STM32F3xx_HAL_Driver/Src/stm32f3xx_hal_uart.c ****   */
1274:Drivers/STM32F3xx_HAL_Driver/Src/stm32f3xx_hal_uart.c ****  __weak void HAL_UART_ErrorCallback(UART_HandleTypeDef *huart)
1275:Drivers/STM32F3xx_HAL_Driver/Src/stm32f3xx_hal_uart.c **** {
 2465              		.loc 1 1275 0
 2466              		.cfi_startproc
 2467              		@ args = 0, pretend = 0, frame = 8
 2468              		@ frame_needed = 1, uses_anonymous_args = 0
 2469              		@ link register save eliminated.
 2470 0000 80B4     		push	{r7}
 2471              	.LCFI115:
ARM GAS  /var/folders/0z/_3zh0q697778kwks4bv8s9bh0000gn/T//ccPzatuz.s 			page 66


 2472              		.cfi_def_cfa_offset 4
 2473              		.cfi_offset 7, -4
 2474 0002 83B0     		sub	sp, sp, #12
 2475              	.LCFI116:
 2476              		.cfi_def_cfa_offset 16
 2477 0004 00AF     		add	r7, sp, #0
 2478              	.LCFI117:
 2479              		.cfi_def_cfa_register 7
 2480 0006 7860     		str	r0, [r7, #4]
1276:Drivers/STM32F3xx_HAL_Driver/Src/stm32f3xx_hal_uart.c ****   /* Prevent unused argument(s) compilation warning */
1277:Drivers/STM32F3xx_HAL_Driver/Src/stm32f3xx_hal_uart.c ****   UNUSED(huart);
1278:Drivers/STM32F3xx_HAL_Driver/Src/stm32f3xx_hal_uart.c **** 
1279:Drivers/STM32F3xx_HAL_Driver/Src/stm32f3xx_hal_uart.c ****   /* NOTE : This function should not be modified, when the callback is needed,
1280:Drivers/STM32F3xx_HAL_Driver/Src/stm32f3xx_hal_uart.c ****             the HAL_UART_ErrorCallback can be implemented in the user file.
1281:Drivers/STM32F3xx_HAL_Driver/Src/stm32f3xx_hal_uart.c ****    */
1282:Drivers/STM32F3xx_HAL_Driver/Src/stm32f3xx_hal_uart.c **** }
 2481              		.loc 1 1282 0
 2482 0008 0C37     		adds	r7, r7, #12
 2483              	.LCFI118:
 2484              		.cfi_def_cfa_offset 4
 2485 000a BD46     		mov	sp, r7
 2486              	.LCFI119:
 2487              		.cfi_def_cfa_register 13
 2488              		@ sp needed
 2489 000c 5DF8047B 		ldr	r7, [sp], #4
 2490              	.LCFI120:
 2491              		.cfi_restore 7
 2492              		.cfi_def_cfa_offset 0
 2493 0010 7047     		bx	lr
 2494              		.cfi_endproc
 2495              	.LFE144:
 2497 0012 00BF     		.section	.text.HAL_MultiProcessor_EnableMuteMode,"ax",%progbits
 2498              		.align	2
 2499              		.global	HAL_MultiProcessor_EnableMuteMode
 2500              		.thumb
 2501              		.thumb_func
 2503              	HAL_MultiProcessor_EnableMuteMode:
 2504              	.LFB145:
1283:Drivers/STM32F3xx_HAL_Driver/Src/stm32f3xx_hal_uart.c **** 
1284:Drivers/STM32F3xx_HAL_Driver/Src/stm32f3xx_hal_uart.c **** /**
1285:Drivers/STM32F3xx_HAL_Driver/Src/stm32f3xx_hal_uart.c ****   * @}
1286:Drivers/STM32F3xx_HAL_Driver/Src/stm32f3xx_hal_uart.c ****   */
1287:Drivers/STM32F3xx_HAL_Driver/Src/stm32f3xx_hal_uart.c **** 
1288:Drivers/STM32F3xx_HAL_Driver/Src/stm32f3xx_hal_uart.c **** /** @defgroup UART_Exported_Functions_Group3 Peripheral Control functions
1289:Drivers/STM32F3xx_HAL_Driver/Src/stm32f3xx_hal_uart.c ****   *  @brief   UART control functions
1290:Drivers/STM32F3xx_HAL_Driver/Src/stm32f3xx_hal_uart.c ****   *
1291:Drivers/STM32F3xx_HAL_Driver/Src/stm32f3xx_hal_uart.c **** @verbatim
1292:Drivers/STM32F3xx_HAL_Driver/Src/stm32f3xx_hal_uart.c ****  ===============================================================================
1293:Drivers/STM32F3xx_HAL_Driver/Src/stm32f3xx_hal_uart.c ****                       ##### Peripheral Control functions #####
1294:Drivers/STM32F3xx_HAL_Driver/Src/stm32f3xx_hal_uart.c ****  ===============================================================================
1295:Drivers/STM32F3xx_HAL_Driver/Src/stm32f3xx_hal_uart.c ****     [..]
1296:Drivers/STM32F3xx_HAL_Driver/Src/stm32f3xx_hal_uart.c ****     This subsection provides a set of functions allowing to control the UART.
1297:Drivers/STM32F3xx_HAL_Driver/Src/stm32f3xx_hal_uart.c ****      (+) HAL_MultiProcessor_EnableMuteMode() API enables mute mode
1298:Drivers/STM32F3xx_HAL_Driver/Src/stm32f3xx_hal_uart.c ****      (+) HAL_MultiProcessor_DisableMuteMode() API disables mute mode
1299:Drivers/STM32F3xx_HAL_Driver/Src/stm32f3xx_hal_uart.c ****      (+) HAL_MultiProcessor_EnterMuteMode() API enters mute mode
1300:Drivers/STM32F3xx_HAL_Driver/Src/stm32f3xx_hal_uart.c ****      (+) HAL_HalfDuplex_EnableTransmitter() API disables receiver and enables transmitter
1301:Drivers/STM32F3xx_HAL_Driver/Src/stm32f3xx_hal_uart.c ****      (+) HAL_HalfDuplex_EnableReceiver() API disables transmitter and enables receiver
ARM GAS  /var/folders/0z/_3zh0q697778kwks4bv8s9bh0000gn/T//ccPzatuz.s 			page 67


1302:Drivers/STM32F3xx_HAL_Driver/Src/stm32f3xx_hal_uart.c ****      (+) HAL_LIN_SendBreak() API transmits the break characters
1303:Drivers/STM32F3xx_HAL_Driver/Src/stm32f3xx_hal_uart.c **** @endverbatim
1304:Drivers/STM32F3xx_HAL_Driver/Src/stm32f3xx_hal_uart.c ****   * @{
1305:Drivers/STM32F3xx_HAL_Driver/Src/stm32f3xx_hal_uart.c ****   */
1306:Drivers/STM32F3xx_HAL_Driver/Src/stm32f3xx_hal_uart.c **** 
1307:Drivers/STM32F3xx_HAL_Driver/Src/stm32f3xx_hal_uart.c **** /**
1308:Drivers/STM32F3xx_HAL_Driver/Src/stm32f3xx_hal_uart.c ****   * @brief Enable UART in mute mode (does not mean UART enters mute mode;
1309:Drivers/STM32F3xx_HAL_Driver/Src/stm32f3xx_hal_uart.c ****   * to enter mute mode, HAL_MultiProcessor_EnterMuteMode() API must be called).
1310:Drivers/STM32F3xx_HAL_Driver/Src/stm32f3xx_hal_uart.c ****   * @param huart: UART handle.
1311:Drivers/STM32F3xx_HAL_Driver/Src/stm32f3xx_hal_uart.c ****   * @retval HAL status
1312:Drivers/STM32F3xx_HAL_Driver/Src/stm32f3xx_hal_uart.c ****   */
1313:Drivers/STM32F3xx_HAL_Driver/Src/stm32f3xx_hal_uart.c **** HAL_StatusTypeDef HAL_MultiProcessor_EnableMuteMode(UART_HandleTypeDef *huart)
1314:Drivers/STM32F3xx_HAL_Driver/Src/stm32f3xx_hal_uart.c **** {
 2505              		.loc 1 1314 0
 2506              		.cfi_startproc
 2507              		@ args = 0, pretend = 0, frame = 8
 2508              		@ frame_needed = 1, uses_anonymous_args = 0
 2509 0000 80B5     		push	{r7, lr}
 2510              	.LCFI121:
 2511              		.cfi_def_cfa_offset 8
 2512              		.cfi_offset 7, -8
 2513              		.cfi_offset 14, -4
 2514 0002 82B0     		sub	sp, sp, #8
 2515              	.LCFI122:
 2516              		.cfi_def_cfa_offset 16
 2517 0004 00AF     		add	r7, sp, #0
 2518              	.LCFI123:
 2519              		.cfi_def_cfa_register 7
 2520 0006 7860     		str	r0, [r7, #4]
1315:Drivers/STM32F3xx_HAL_Driver/Src/stm32f3xx_hal_uart.c ****   /* Process Locked */
1316:Drivers/STM32F3xx_HAL_Driver/Src/stm32f3xx_hal_uart.c ****   __HAL_LOCK(huart);
 2521              		.loc 1 1316 0
 2522 0008 7B68     		ldr	r3, [r7, #4]
 2523 000a 93F86830 		ldrb	r3, [r3, #104]	@ zero_extendqisi2
 2524 000e 012B     		cmp	r3, #1
 2525 0010 01D1     		bne	.L128
 2526              		.loc 1 1316 0 is_stmt 0 discriminator 1
 2527 0012 0223     		movs	r3, #2
 2528 0014 17E0     		b	.L129
 2529              	.L128:
 2530              		.loc 1 1316 0 discriminator 2
 2531 0016 7B68     		ldr	r3, [r7, #4]
 2532 0018 0122     		movs	r2, #1
 2533 001a 83F86820 		strb	r2, [r3, #104]
1317:Drivers/STM32F3xx_HAL_Driver/Src/stm32f3xx_hal_uart.c **** 
1318:Drivers/STM32F3xx_HAL_Driver/Src/stm32f3xx_hal_uart.c ****   huart->gState = HAL_UART_STATE_BUSY;
 2534              		.loc 1 1318 0 is_stmt 1 discriminator 2
 2535 001e 7B68     		ldr	r3, [r7, #4]
 2536 0020 2422     		movs	r2, #36
 2537 0022 83F86920 		strb	r2, [r3, #105]
1319:Drivers/STM32F3xx_HAL_Driver/Src/stm32f3xx_hal_uart.c **** 
1320:Drivers/STM32F3xx_HAL_Driver/Src/stm32f3xx_hal_uart.c ****   /* Enable USART mute mode by setting the MME bit in the CR1 register */
1321:Drivers/STM32F3xx_HAL_Driver/Src/stm32f3xx_hal_uart.c ****   huart->Instance->CR1 |= USART_CR1_MME;
 2538              		.loc 1 1321 0 discriminator 2
 2539 0026 7B68     		ldr	r3, [r7, #4]
 2540 0028 1B68     		ldr	r3, [r3]
 2541 002a 7A68     		ldr	r2, [r7, #4]
ARM GAS  /var/folders/0z/_3zh0q697778kwks4bv8s9bh0000gn/T//ccPzatuz.s 			page 68


 2542 002c 1268     		ldr	r2, [r2]
 2543 002e 1268     		ldr	r2, [r2]
 2544 0030 42F40052 		orr	r2, r2, #8192
 2545 0034 1A60     		str	r2, [r3]
1322:Drivers/STM32F3xx_HAL_Driver/Src/stm32f3xx_hal_uart.c **** 
1323:Drivers/STM32F3xx_HAL_Driver/Src/stm32f3xx_hal_uart.c ****   huart->gState = HAL_UART_STATE_READY;
 2546              		.loc 1 1323 0 discriminator 2
 2547 0036 7B68     		ldr	r3, [r7, #4]
 2548 0038 2022     		movs	r2, #32
 2549 003a 83F86920 		strb	r2, [r3, #105]
1324:Drivers/STM32F3xx_HAL_Driver/Src/stm32f3xx_hal_uart.c **** 
1325:Drivers/STM32F3xx_HAL_Driver/Src/stm32f3xx_hal_uart.c ****   return (UART_CheckIdleState(huart));
 2550              		.loc 1 1325 0 discriminator 2
 2551 003e 7868     		ldr	r0, [r7, #4]
 2552 0040 FFF7FEFF 		bl	UART_CheckIdleState
 2553 0044 0346     		mov	r3, r0
 2554              	.L129:
1326:Drivers/STM32F3xx_HAL_Driver/Src/stm32f3xx_hal_uart.c **** }
 2555              		.loc 1 1326 0
 2556 0046 1846     		mov	r0, r3
 2557 0048 0837     		adds	r7, r7, #8
 2558              	.LCFI124:
 2559              		.cfi_def_cfa_offset 8
 2560 004a BD46     		mov	sp, r7
 2561              	.LCFI125:
 2562              		.cfi_def_cfa_register 13
 2563              		@ sp needed
 2564 004c 80BD     		pop	{r7, pc}
 2565              		.cfi_endproc
 2566              	.LFE145:
 2568 004e 00BF     		.section	.text.HAL_MultiProcessor_DisableMuteMode,"ax",%progbits
 2569              		.align	2
 2570              		.global	HAL_MultiProcessor_DisableMuteMode
 2571              		.thumb
 2572              		.thumb_func
 2574              	HAL_MultiProcessor_DisableMuteMode:
 2575              	.LFB146:
1327:Drivers/STM32F3xx_HAL_Driver/Src/stm32f3xx_hal_uart.c **** 
1328:Drivers/STM32F3xx_HAL_Driver/Src/stm32f3xx_hal_uart.c **** /**
1329:Drivers/STM32F3xx_HAL_Driver/Src/stm32f3xx_hal_uart.c ****   * @brief  Disable UART mute mode (does not mean the UART actually exits mute mode
1330:Drivers/STM32F3xx_HAL_Driver/Src/stm32f3xx_hal_uart.c ****   *         as it may not have been in mute mode at this very moment).
1331:Drivers/STM32F3xx_HAL_Driver/Src/stm32f3xx_hal_uart.c ****   * @param  huart: UART handle.
1332:Drivers/STM32F3xx_HAL_Driver/Src/stm32f3xx_hal_uart.c ****   * @retval HAL status
1333:Drivers/STM32F3xx_HAL_Driver/Src/stm32f3xx_hal_uart.c ****   */
1334:Drivers/STM32F3xx_HAL_Driver/Src/stm32f3xx_hal_uart.c **** HAL_StatusTypeDef HAL_MultiProcessor_DisableMuteMode(UART_HandleTypeDef *huart)
1335:Drivers/STM32F3xx_HAL_Driver/Src/stm32f3xx_hal_uart.c **** {
 2576              		.loc 1 1335 0
 2577              		.cfi_startproc
 2578              		@ args = 0, pretend = 0, frame = 8
 2579              		@ frame_needed = 1, uses_anonymous_args = 0
 2580 0000 80B5     		push	{r7, lr}
 2581              	.LCFI126:
 2582              		.cfi_def_cfa_offset 8
 2583              		.cfi_offset 7, -8
 2584              		.cfi_offset 14, -4
 2585 0002 82B0     		sub	sp, sp, #8
 2586              	.LCFI127:
ARM GAS  /var/folders/0z/_3zh0q697778kwks4bv8s9bh0000gn/T//ccPzatuz.s 			page 69


 2587              		.cfi_def_cfa_offset 16
 2588 0004 00AF     		add	r7, sp, #0
 2589              	.LCFI128:
 2590              		.cfi_def_cfa_register 7
 2591 0006 7860     		str	r0, [r7, #4]
1336:Drivers/STM32F3xx_HAL_Driver/Src/stm32f3xx_hal_uart.c ****   /* Process Locked */
1337:Drivers/STM32F3xx_HAL_Driver/Src/stm32f3xx_hal_uart.c ****   __HAL_LOCK(huart);
 2592              		.loc 1 1337 0
 2593 0008 7B68     		ldr	r3, [r7, #4]
 2594 000a 93F86830 		ldrb	r3, [r3, #104]	@ zero_extendqisi2
 2595 000e 012B     		cmp	r3, #1
 2596 0010 01D1     		bne	.L131
 2597              		.loc 1 1337 0 is_stmt 0 discriminator 1
 2598 0012 0223     		movs	r3, #2
 2599 0014 17E0     		b	.L132
 2600              	.L131:
 2601              		.loc 1 1337 0 discriminator 2
 2602 0016 7B68     		ldr	r3, [r7, #4]
 2603 0018 0122     		movs	r2, #1
 2604 001a 83F86820 		strb	r2, [r3, #104]
1338:Drivers/STM32F3xx_HAL_Driver/Src/stm32f3xx_hal_uart.c **** 
1339:Drivers/STM32F3xx_HAL_Driver/Src/stm32f3xx_hal_uart.c ****   huart->gState = HAL_UART_STATE_BUSY;
 2605              		.loc 1 1339 0 is_stmt 1 discriminator 2
 2606 001e 7B68     		ldr	r3, [r7, #4]
 2607 0020 2422     		movs	r2, #36
 2608 0022 83F86920 		strb	r2, [r3, #105]
1340:Drivers/STM32F3xx_HAL_Driver/Src/stm32f3xx_hal_uart.c **** 
1341:Drivers/STM32F3xx_HAL_Driver/Src/stm32f3xx_hal_uart.c ****    /* Disable USART mute mode by clearing the MME bit in the CR1 register */
1342:Drivers/STM32F3xx_HAL_Driver/Src/stm32f3xx_hal_uart.c ****   huart->Instance->CR1 &= ~(USART_CR1_MME);
 2609              		.loc 1 1342 0 discriminator 2
 2610 0026 7B68     		ldr	r3, [r7, #4]
 2611 0028 1B68     		ldr	r3, [r3]
 2612 002a 7A68     		ldr	r2, [r7, #4]
 2613 002c 1268     		ldr	r2, [r2]
 2614 002e 1268     		ldr	r2, [r2]
 2615 0030 22F40052 		bic	r2, r2, #8192
 2616 0034 1A60     		str	r2, [r3]
1343:Drivers/STM32F3xx_HAL_Driver/Src/stm32f3xx_hal_uart.c **** 
1344:Drivers/STM32F3xx_HAL_Driver/Src/stm32f3xx_hal_uart.c ****   huart->gState = HAL_UART_STATE_READY;
 2617              		.loc 1 1344 0 discriminator 2
 2618 0036 7B68     		ldr	r3, [r7, #4]
 2619 0038 2022     		movs	r2, #32
 2620 003a 83F86920 		strb	r2, [r3, #105]
1345:Drivers/STM32F3xx_HAL_Driver/Src/stm32f3xx_hal_uart.c **** 
1346:Drivers/STM32F3xx_HAL_Driver/Src/stm32f3xx_hal_uart.c ****   return (UART_CheckIdleState(huart));
 2621              		.loc 1 1346 0 discriminator 2
 2622 003e 7868     		ldr	r0, [r7, #4]
 2623 0040 FFF7FEFF 		bl	UART_CheckIdleState
 2624 0044 0346     		mov	r3, r0
 2625              	.L132:
1347:Drivers/STM32F3xx_HAL_Driver/Src/stm32f3xx_hal_uart.c **** }
 2626              		.loc 1 1347 0
 2627 0046 1846     		mov	r0, r3
 2628 0048 0837     		adds	r7, r7, #8
 2629              	.LCFI129:
 2630              		.cfi_def_cfa_offset 8
 2631 004a BD46     		mov	sp, r7
ARM GAS  /var/folders/0z/_3zh0q697778kwks4bv8s9bh0000gn/T//ccPzatuz.s 			page 70


 2632              	.LCFI130:
 2633              		.cfi_def_cfa_register 13
 2634              		@ sp needed
 2635 004c 80BD     		pop	{r7, pc}
 2636              		.cfi_endproc
 2637              	.LFE146:
 2639 004e 00BF     		.section	.text.HAL_MultiProcessor_EnterMuteMode,"ax",%progbits
 2640              		.align	2
 2641              		.global	HAL_MultiProcessor_EnterMuteMode
 2642              		.thumb
 2643              		.thumb_func
 2645              	HAL_MultiProcessor_EnterMuteMode:
 2646              	.LFB147:
1348:Drivers/STM32F3xx_HAL_Driver/Src/stm32f3xx_hal_uart.c **** 
1349:Drivers/STM32F3xx_HAL_Driver/Src/stm32f3xx_hal_uart.c **** /**
1350:Drivers/STM32F3xx_HAL_Driver/Src/stm32f3xx_hal_uart.c ****   * @brief Enter UART mute mode (means UART actually enters mute mode).
1351:Drivers/STM32F3xx_HAL_Driver/Src/stm32f3xx_hal_uart.c ****   * @note  To exit from mute mode, HAL_MultiProcessor_DisableMuteMode() API must be called.
1352:Drivers/STM32F3xx_HAL_Driver/Src/stm32f3xx_hal_uart.c ****   * @param huart: UART handle.
1353:Drivers/STM32F3xx_HAL_Driver/Src/stm32f3xx_hal_uart.c ****   * @retval None
1354:Drivers/STM32F3xx_HAL_Driver/Src/stm32f3xx_hal_uart.c ****   */
1355:Drivers/STM32F3xx_HAL_Driver/Src/stm32f3xx_hal_uart.c **** void HAL_MultiProcessor_EnterMuteMode(UART_HandleTypeDef *huart)
1356:Drivers/STM32F3xx_HAL_Driver/Src/stm32f3xx_hal_uart.c **** {
 2647              		.loc 1 1356 0
 2648              		.cfi_startproc
 2649              		@ args = 0, pretend = 0, frame = 8
 2650              		@ frame_needed = 1, uses_anonymous_args = 0
 2651              		@ link register save eliminated.
 2652 0000 80B4     		push	{r7}
 2653              	.LCFI131:
 2654              		.cfi_def_cfa_offset 4
 2655              		.cfi_offset 7, -4
 2656 0002 83B0     		sub	sp, sp, #12
 2657              	.LCFI132:
 2658              		.cfi_def_cfa_offset 16
 2659 0004 00AF     		add	r7, sp, #0
 2660              	.LCFI133:
 2661              		.cfi_def_cfa_register 7
 2662 0006 7860     		str	r0, [r7, #4]
1357:Drivers/STM32F3xx_HAL_Driver/Src/stm32f3xx_hal_uart.c ****   __HAL_UART_SEND_REQ(huart, UART_MUTE_MODE_REQUEST);
 2663              		.loc 1 1357 0
 2664 0008 7B68     		ldr	r3, [r7, #4]
 2665 000a 1B68     		ldr	r3, [r3]
 2666 000c 7A68     		ldr	r2, [r7, #4]
 2667 000e 1268     		ldr	r2, [r2]
 2668 0010 9269     		ldr	r2, [r2, #24]
 2669 0012 42F00402 		orr	r2, r2, #4
 2670 0016 9A61     		str	r2, [r3, #24]
1358:Drivers/STM32F3xx_HAL_Driver/Src/stm32f3xx_hal_uart.c **** }
 2671              		.loc 1 1358 0
 2672 0018 0C37     		adds	r7, r7, #12
 2673              	.LCFI134:
 2674              		.cfi_def_cfa_offset 4
 2675 001a BD46     		mov	sp, r7
 2676              	.LCFI135:
 2677              		.cfi_def_cfa_register 13
 2678              		@ sp needed
 2679 001c 5DF8047B 		ldr	r7, [sp], #4
ARM GAS  /var/folders/0z/_3zh0q697778kwks4bv8s9bh0000gn/T//ccPzatuz.s 			page 71


 2680              	.LCFI136:
 2681              		.cfi_restore 7
 2682              		.cfi_def_cfa_offset 0
 2683 0020 7047     		bx	lr
 2684              		.cfi_endproc
 2685              	.LFE147:
 2687 0022 00BF     		.section	.text.HAL_HalfDuplex_EnableTransmitter,"ax",%progbits
 2688              		.align	2
 2689              		.global	HAL_HalfDuplex_EnableTransmitter
 2690              		.thumb
 2691              		.thumb_func
 2693              	HAL_HalfDuplex_EnableTransmitter:
 2694              	.LFB148:
1359:Drivers/STM32F3xx_HAL_Driver/Src/stm32f3xx_hal_uart.c **** 
1360:Drivers/STM32F3xx_HAL_Driver/Src/stm32f3xx_hal_uart.c **** /**
1361:Drivers/STM32F3xx_HAL_Driver/Src/stm32f3xx_hal_uart.c ****   * @brief  Enable the UART transmitter and disable the UART receiver.
1362:Drivers/STM32F3xx_HAL_Driver/Src/stm32f3xx_hal_uart.c ****   * @param  huart: UART handle.
1363:Drivers/STM32F3xx_HAL_Driver/Src/stm32f3xx_hal_uart.c ****   * @retval HAL status
1364:Drivers/STM32F3xx_HAL_Driver/Src/stm32f3xx_hal_uart.c ****   */
1365:Drivers/STM32F3xx_HAL_Driver/Src/stm32f3xx_hal_uart.c **** HAL_StatusTypeDef HAL_HalfDuplex_EnableTransmitter(UART_HandleTypeDef *huart)
1366:Drivers/STM32F3xx_HAL_Driver/Src/stm32f3xx_hal_uart.c **** {
 2695              		.loc 1 1366 0
 2696              		.cfi_startproc
 2697              		@ args = 0, pretend = 0, frame = 8
 2698              		@ frame_needed = 1, uses_anonymous_args = 0
 2699              		@ link register save eliminated.
 2700 0000 80B4     		push	{r7}
 2701              	.LCFI137:
 2702              		.cfi_def_cfa_offset 4
 2703              		.cfi_offset 7, -4
 2704 0002 83B0     		sub	sp, sp, #12
 2705              	.LCFI138:
 2706              		.cfi_def_cfa_offset 16
 2707 0004 00AF     		add	r7, sp, #0
 2708              	.LCFI139:
 2709              		.cfi_def_cfa_register 7
 2710 0006 7860     		str	r0, [r7, #4]
1367:Drivers/STM32F3xx_HAL_Driver/Src/stm32f3xx_hal_uart.c ****   /* Process Locked */
1368:Drivers/STM32F3xx_HAL_Driver/Src/stm32f3xx_hal_uart.c ****   __HAL_LOCK(huart);
 2711              		.loc 1 1368 0
 2712 0008 7B68     		ldr	r3, [r7, #4]
 2713 000a 93F86830 		ldrb	r3, [r3, #104]	@ zero_extendqisi2
 2714 000e 012B     		cmp	r3, #1
 2715 0010 01D1     		bne	.L135
 2716              		.loc 1 1368 0 is_stmt 0 discriminator 1
 2717 0012 0223     		movs	r3, #2
 2718 0014 20E0     		b	.L136
 2719              	.L135:
 2720              		.loc 1 1368 0 discriminator 2
 2721 0016 7B68     		ldr	r3, [r7, #4]
 2722 0018 0122     		movs	r2, #1
 2723 001a 83F86820 		strb	r2, [r3, #104]
1369:Drivers/STM32F3xx_HAL_Driver/Src/stm32f3xx_hal_uart.c ****   huart->gState = HAL_UART_STATE_BUSY;
 2724              		.loc 1 1369 0 is_stmt 1 discriminator 2
 2725 001e 7B68     		ldr	r3, [r7, #4]
 2726 0020 2422     		movs	r2, #36
 2727 0022 83F86920 		strb	r2, [r3, #105]
ARM GAS  /var/folders/0z/_3zh0q697778kwks4bv8s9bh0000gn/T//ccPzatuz.s 			page 72


1370:Drivers/STM32F3xx_HAL_Driver/Src/stm32f3xx_hal_uart.c **** 
1371:Drivers/STM32F3xx_HAL_Driver/Src/stm32f3xx_hal_uart.c ****   /* Clear TE and RE bits */
1372:Drivers/STM32F3xx_HAL_Driver/Src/stm32f3xx_hal_uart.c ****   CLEAR_BIT(huart->Instance->CR1, (USART_CR1_TE | USART_CR1_RE));
 2728              		.loc 1 1372 0 discriminator 2
 2729 0026 7B68     		ldr	r3, [r7, #4]
 2730 0028 1B68     		ldr	r3, [r3]
 2731 002a 7A68     		ldr	r2, [r7, #4]
 2732 002c 1268     		ldr	r2, [r2]
 2733 002e 1268     		ldr	r2, [r2]
 2734 0030 22F00C02 		bic	r2, r2, #12
 2735 0034 1A60     		str	r2, [r3]
1373:Drivers/STM32F3xx_HAL_Driver/Src/stm32f3xx_hal_uart.c ****   /* Enable the USART's transmit interface by setting the TE bit in the USART CR1 register */
1374:Drivers/STM32F3xx_HAL_Driver/Src/stm32f3xx_hal_uart.c ****   SET_BIT(huart->Instance->CR1, USART_CR1_TE);
 2736              		.loc 1 1374 0 discriminator 2
 2737 0036 7B68     		ldr	r3, [r7, #4]
 2738 0038 1B68     		ldr	r3, [r3]
 2739 003a 7A68     		ldr	r2, [r7, #4]
 2740 003c 1268     		ldr	r2, [r2]
 2741 003e 1268     		ldr	r2, [r2]
 2742 0040 42F00802 		orr	r2, r2, #8
 2743 0044 1A60     		str	r2, [r3]
1375:Drivers/STM32F3xx_HAL_Driver/Src/stm32f3xx_hal_uart.c **** 
1376:Drivers/STM32F3xx_HAL_Driver/Src/stm32f3xx_hal_uart.c ****   huart->gState = HAL_UART_STATE_READY;
 2744              		.loc 1 1376 0 discriminator 2
 2745 0046 7B68     		ldr	r3, [r7, #4]
 2746 0048 2022     		movs	r2, #32
 2747 004a 83F86920 		strb	r2, [r3, #105]
1377:Drivers/STM32F3xx_HAL_Driver/Src/stm32f3xx_hal_uart.c **** 
1378:Drivers/STM32F3xx_HAL_Driver/Src/stm32f3xx_hal_uart.c ****   /* Process Unlocked */
1379:Drivers/STM32F3xx_HAL_Driver/Src/stm32f3xx_hal_uart.c ****   __HAL_UNLOCK(huart);
 2748              		.loc 1 1379 0 discriminator 2
 2749 004e 7B68     		ldr	r3, [r7, #4]
 2750 0050 0022     		movs	r2, #0
 2751 0052 83F86820 		strb	r2, [r3, #104]
1380:Drivers/STM32F3xx_HAL_Driver/Src/stm32f3xx_hal_uart.c **** 
1381:Drivers/STM32F3xx_HAL_Driver/Src/stm32f3xx_hal_uart.c ****   return HAL_OK;
 2752              		.loc 1 1381 0 discriminator 2
 2753 0056 0023     		movs	r3, #0
 2754              	.L136:
1382:Drivers/STM32F3xx_HAL_Driver/Src/stm32f3xx_hal_uart.c **** }
 2755              		.loc 1 1382 0
 2756 0058 1846     		mov	r0, r3
 2757 005a 0C37     		adds	r7, r7, #12
 2758              	.LCFI140:
 2759              		.cfi_def_cfa_offset 4
 2760 005c BD46     		mov	sp, r7
 2761              	.LCFI141:
 2762              		.cfi_def_cfa_register 13
 2763              		@ sp needed
 2764 005e 5DF8047B 		ldr	r7, [sp], #4
 2765              	.LCFI142:
 2766              		.cfi_restore 7
 2767              		.cfi_def_cfa_offset 0
 2768 0062 7047     		bx	lr
 2769              		.cfi_endproc
 2770              	.LFE148:
 2772              		.section	.text.HAL_HalfDuplex_EnableReceiver,"ax",%progbits
ARM GAS  /var/folders/0z/_3zh0q697778kwks4bv8s9bh0000gn/T//ccPzatuz.s 			page 73


 2773              		.align	2
 2774              		.global	HAL_HalfDuplex_EnableReceiver
 2775              		.thumb
 2776              		.thumb_func
 2778              	HAL_HalfDuplex_EnableReceiver:
 2779              	.LFB149:
1383:Drivers/STM32F3xx_HAL_Driver/Src/stm32f3xx_hal_uart.c **** 
1384:Drivers/STM32F3xx_HAL_Driver/Src/stm32f3xx_hal_uart.c **** /**
1385:Drivers/STM32F3xx_HAL_Driver/Src/stm32f3xx_hal_uart.c ****   * @brief  Enable the UART receiver and disable the UART transmitter.
1386:Drivers/STM32F3xx_HAL_Driver/Src/stm32f3xx_hal_uart.c ****   * @param  huart: UART handle.
1387:Drivers/STM32F3xx_HAL_Driver/Src/stm32f3xx_hal_uart.c ****   * @retval HAL status.
1388:Drivers/STM32F3xx_HAL_Driver/Src/stm32f3xx_hal_uart.c ****   */
1389:Drivers/STM32F3xx_HAL_Driver/Src/stm32f3xx_hal_uart.c **** HAL_StatusTypeDef HAL_HalfDuplex_EnableReceiver(UART_HandleTypeDef *huart)
1390:Drivers/STM32F3xx_HAL_Driver/Src/stm32f3xx_hal_uart.c **** {
 2780              		.loc 1 1390 0
 2781              		.cfi_startproc
 2782              		@ args = 0, pretend = 0, frame = 8
 2783              		@ frame_needed = 1, uses_anonymous_args = 0
 2784              		@ link register save eliminated.
 2785 0000 80B4     		push	{r7}
 2786              	.LCFI143:
 2787              		.cfi_def_cfa_offset 4
 2788              		.cfi_offset 7, -4
 2789 0002 83B0     		sub	sp, sp, #12
 2790              	.LCFI144:
 2791              		.cfi_def_cfa_offset 16
 2792 0004 00AF     		add	r7, sp, #0
 2793              	.LCFI145:
 2794              		.cfi_def_cfa_register 7
 2795 0006 7860     		str	r0, [r7, #4]
1391:Drivers/STM32F3xx_HAL_Driver/Src/stm32f3xx_hal_uart.c ****   /* Process Locked */
1392:Drivers/STM32F3xx_HAL_Driver/Src/stm32f3xx_hal_uart.c ****   __HAL_LOCK(huart);
 2796              		.loc 1 1392 0
 2797 0008 7B68     		ldr	r3, [r7, #4]
 2798 000a 93F86830 		ldrb	r3, [r3, #104]	@ zero_extendqisi2
 2799 000e 012B     		cmp	r3, #1
 2800 0010 01D1     		bne	.L138
 2801              		.loc 1 1392 0 is_stmt 0 discriminator 1
 2802 0012 0223     		movs	r3, #2
 2803 0014 20E0     		b	.L139
 2804              	.L138:
 2805              		.loc 1 1392 0 discriminator 2
 2806 0016 7B68     		ldr	r3, [r7, #4]
 2807 0018 0122     		movs	r2, #1
 2808 001a 83F86820 		strb	r2, [r3, #104]
1393:Drivers/STM32F3xx_HAL_Driver/Src/stm32f3xx_hal_uart.c ****   huart->gState = HAL_UART_STATE_BUSY;
 2809              		.loc 1 1393 0 is_stmt 1 discriminator 2
 2810 001e 7B68     		ldr	r3, [r7, #4]
 2811 0020 2422     		movs	r2, #36
 2812 0022 83F86920 		strb	r2, [r3, #105]
1394:Drivers/STM32F3xx_HAL_Driver/Src/stm32f3xx_hal_uart.c **** 
1395:Drivers/STM32F3xx_HAL_Driver/Src/stm32f3xx_hal_uart.c ****   /* Clear TE and RE bits */
1396:Drivers/STM32F3xx_HAL_Driver/Src/stm32f3xx_hal_uart.c ****   CLEAR_BIT(huart->Instance->CR1, (USART_CR1_TE | USART_CR1_RE));
 2813              		.loc 1 1396 0 discriminator 2
 2814 0026 7B68     		ldr	r3, [r7, #4]
 2815 0028 1B68     		ldr	r3, [r3]
 2816 002a 7A68     		ldr	r2, [r7, #4]
ARM GAS  /var/folders/0z/_3zh0q697778kwks4bv8s9bh0000gn/T//ccPzatuz.s 			page 74


 2817 002c 1268     		ldr	r2, [r2]
 2818 002e 1268     		ldr	r2, [r2]
 2819 0030 22F00C02 		bic	r2, r2, #12
 2820 0034 1A60     		str	r2, [r3]
1397:Drivers/STM32F3xx_HAL_Driver/Src/stm32f3xx_hal_uart.c ****   /* Enable the USART's receive interface by setting the RE bit in the USART CR1 register */
1398:Drivers/STM32F3xx_HAL_Driver/Src/stm32f3xx_hal_uart.c ****   SET_BIT(huart->Instance->CR1, USART_CR1_RE);
 2821              		.loc 1 1398 0 discriminator 2
 2822 0036 7B68     		ldr	r3, [r7, #4]
 2823 0038 1B68     		ldr	r3, [r3]
 2824 003a 7A68     		ldr	r2, [r7, #4]
 2825 003c 1268     		ldr	r2, [r2]
 2826 003e 1268     		ldr	r2, [r2]
 2827 0040 42F00402 		orr	r2, r2, #4
 2828 0044 1A60     		str	r2, [r3]
1399:Drivers/STM32F3xx_HAL_Driver/Src/stm32f3xx_hal_uart.c **** 
1400:Drivers/STM32F3xx_HAL_Driver/Src/stm32f3xx_hal_uart.c ****   huart->gState = HAL_UART_STATE_READY;
 2829              		.loc 1 1400 0 discriminator 2
 2830 0046 7B68     		ldr	r3, [r7, #4]
 2831 0048 2022     		movs	r2, #32
 2832 004a 83F86920 		strb	r2, [r3, #105]
1401:Drivers/STM32F3xx_HAL_Driver/Src/stm32f3xx_hal_uart.c ****   /* Process Unlocked */
1402:Drivers/STM32F3xx_HAL_Driver/Src/stm32f3xx_hal_uart.c ****   __HAL_UNLOCK(huart);
 2833              		.loc 1 1402 0 discriminator 2
 2834 004e 7B68     		ldr	r3, [r7, #4]
 2835 0050 0022     		movs	r2, #0
 2836 0052 83F86820 		strb	r2, [r3, #104]
1403:Drivers/STM32F3xx_HAL_Driver/Src/stm32f3xx_hal_uart.c **** 
1404:Drivers/STM32F3xx_HAL_Driver/Src/stm32f3xx_hal_uart.c ****   return HAL_OK;
 2837              		.loc 1 1404 0 discriminator 2
 2838 0056 0023     		movs	r3, #0
 2839              	.L139:
1405:Drivers/STM32F3xx_HAL_Driver/Src/stm32f3xx_hal_uart.c **** }
 2840              		.loc 1 1405 0
 2841 0058 1846     		mov	r0, r3
 2842 005a 0C37     		adds	r7, r7, #12
 2843              	.LCFI146:
 2844              		.cfi_def_cfa_offset 4
 2845 005c BD46     		mov	sp, r7
 2846              	.LCFI147:
 2847              		.cfi_def_cfa_register 13
 2848              		@ sp needed
 2849 005e 5DF8047B 		ldr	r7, [sp], #4
 2850              	.LCFI148:
 2851              		.cfi_restore 7
 2852              		.cfi_def_cfa_offset 0
 2853 0062 7047     		bx	lr
 2854              		.cfi_endproc
 2855              	.LFE149:
 2857              		.section	.text.HAL_LIN_SendBreak,"ax",%progbits
 2858              		.align	2
 2859              		.global	HAL_LIN_SendBreak
 2860              		.thumb
 2861              		.thumb_func
 2863              	HAL_LIN_SendBreak:
 2864              	.LFB150:
1406:Drivers/STM32F3xx_HAL_Driver/Src/stm32f3xx_hal_uart.c **** 
1407:Drivers/STM32F3xx_HAL_Driver/Src/stm32f3xx_hal_uart.c **** 
ARM GAS  /var/folders/0z/_3zh0q697778kwks4bv8s9bh0000gn/T//ccPzatuz.s 			page 75


1408:Drivers/STM32F3xx_HAL_Driver/Src/stm32f3xx_hal_uart.c **** /**
1409:Drivers/STM32F3xx_HAL_Driver/Src/stm32f3xx_hal_uart.c ****   * @brief  Transmit break characters.
1410:Drivers/STM32F3xx_HAL_Driver/Src/stm32f3xx_hal_uart.c ****   * @param  huart: UART handle.
1411:Drivers/STM32F3xx_HAL_Driver/Src/stm32f3xx_hal_uart.c ****   * @retval HAL status
1412:Drivers/STM32F3xx_HAL_Driver/Src/stm32f3xx_hal_uart.c ****   */
