ARM GAS  /var/folders/0z/_3zh0q697778kwks4bv8s9bh0000gn/T//ccJVqLQz.s 			page 1


   1              		.syntax unified
   2              		.cpu cortex-m4
   3              		.eabi_attribute 27, 1
   4              		.eabi_attribute 28, 1
   5              		.fpu fpv4-sp-d16
   6              		.eabi_attribute 20, 1
   7              		.eabi_attribute 21, 1
   8              		.eabi_attribute 23, 3
   9              		.eabi_attribute 24, 1
  10              		.eabi_attribute 25, 1
  11              		.eabi_attribute 26, 1
  12              		.eabi_attribute 30, 6
  13              		.eabi_attribute 34, 1
  14              		.eabi_attribute 18, 4
  15              		.thumb
  16              		.file	"stm32f3xx_hal_rcc.c"
  17              		.text
  18              	.Ltext0:
  19              		.cfi_sections	.debug_frame
  20              		.global	aPLLMULFactorTable
  21              		.section	.rodata.aPLLMULFactorTable,"a",%progbits
  22              		.align	2
  25              	aPLLMULFactorTable:
  26 0000 02       		.byte	2
  27 0001 03       		.byte	3
  28 0002 04       		.byte	4
  29 0003 05       		.byte	5
  30 0004 06       		.byte	6
  31 0005 07       		.byte	7
  32 0006 08       		.byte	8
  33 0007 09       		.byte	9
  34 0008 0A       		.byte	10
  35 0009 0B       		.byte	11
  36 000a 0C       		.byte	12
  37 000b 0D       		.byte	13
  38 000c 0E       		.byte	14
  39 000d 0F       		.byte	15
  40 000e 10       		.byte	16
  41 000f 10       		.byte	16
  42              		.global	aPredivFactorTable
  43              		.section	.rodata.aPredivFactorTable,"a",%progbits
  44              		.align	2
  47              	aPredivFactorTable:
  48 0000 01       		.byte	1
  49 0001 02       		.byte	2
  50 0002 03       		.byte	3
  51 0003 04       		.byte	4
  52 0004 05       		.byte	5
  53 0005 06       		.byte	6
  54 0006 07       		.byte	7
  55 0007 08       		.byte	8
  56 0008 09       		.byte	9
  57 0009 0A       		.byte	10
  58 000a 0B       		.byte	11
  59 000b 0C       		.byte	12
  60 000c 0D       		.byte	13
  61 000d 0E       		.byte	14
ARM GAS  /var/folders/0z/_3zh0q697778kwks4bv8s9bh0000gn/T//ccJVqLQz.s 			page 2


  62 000e 0F       		.byte	15
  63 000f 10       		.byte	16
  64              		.section	.text.HAL_RCC_DeInit,"ax",%progbits
  65              		.align	2
  66              		.global	HAL_RCC_DeInit
  67              		.thumb
  68              		.thumb_func
  70              	HAL_RCC_DeInit:
  71              	.LFB123:
  72              		.file 1 "Drivers/STM32F3xx_HAL_Driver/Src/stm32f3xx_hal_rcc.c"
   1:Drivers/STM32F3xx_HAL_Driver/Src/stm32f3xx_hal_rcc.c **** /**
   2:Drivers/STM32F3xx_HAL_Driver/Src/stm32f3xx_hal_rcc.c ****   ******************************************************************************
   3:Drivers/STM32F3xx_HAL_Driver/Src/stm32f3xx_hal_rcc.c ****   * @file    stm32f3xx_hal_rcc.c
   4:Drivers/STM32F3xx_HAL_Driver/Src/stm32f3xx_hal_rcc.c ****   * @author  MCD Application Team
   5:Drivers/STM32F3xx_HAL_Driver/Src/stm32f3xx_hal_rcc.c ****   * @version V1.3.0
   6:Drivers/STM32F3xx_HAL_Driver/Src/stm32f3xx_hal_rcc.c ****   * @date    01-July-2016
   7:Drivers/STM32F3xx_HAL_Driver/Src/stm32f3xx_hal_rcc.c ****   * @brief   RCC HAL module driver.
   8:Drivers/STM32F3xx_HAL_Driver/Src/stm32f3xx_hal_rcc.c ****   *          This file provides firmware functions to manage the following 
   9:Drivers/STM32F3xx_HAL_Driver/Src/stm32f3xx_hal_rcc.c ****   *          functionalities of the Reset and Clock Control (RCC) peripheral:
  10:Drivers/STM32F3xx_HAL_Driver/Src/stm32f3xx_hal_rcc.c ****   *           + Initialization and de-initialization functions
  11:Drivers/STM32F3xx_HAL_Driver/Src/stm32f3xx_hal_rcc.c ****   *           + Peripheral Control functions
  12:Drivers/STM32F3xx_HAL_Driver/Src/stm32f3xx_hal_rcc.c ****   *       
  13:Drivers/STM32F3xx_HAL_Driver/Src/stm32f3xx_hal_rcc.c ****   @verbatim                
  14:Drivers/STM32F3xx_HAL_Driver/Src/stm32f3xx_hal_rcc.c ****   ==============================================================================
  15:Drivers/STM32F3xx_HAL_Driver/Src/stm32f3xx_hal_rcc.c ****                       ##### RCC specific features #####
  16:Drivers/STM32F3xx_HAL_Driver/Src/stm32f3xx_hal_rcc.c ****   ==============================================================================
  17:Drivers/STM32F3xx_HAL_Driver/Src/stm32f3xx_hal_rcc.c ****     [..]  
  18:Drivers/STM32F3xx_HAL_Driver/Src/stm32f3xx_hal_rcc.c ****       After reset the device is running from Internal High Speed oscillator
  19:Drivers/STM32F3xx_HAL_Driver/Src/stm32f3xx_hal_rcc.c ****       (HSI 8MHz) with Flash 0 wait state, Flash prefetch buffer is enabled, 
  20:Drivers/STM32F3xx_HAL_Driver/Src/stm32f3xx_hal_rcc.c ****       and all peripherals are off except internal SRAM, Flash and JTAG.
  21:Drivers/STM32F3xx_HAL_Driver/Src/stm32f3xx_hal_rcc.c ****       (+) There is no prescaler on High speed (AHB) and Low speed (APB) buses;
  22:Drivers/STM32F3xx_HAL_Driver/Src/stm32f3xx_hal_rcc.c ****           all peripherals mapped on these buses are running at HSI speed.
  23:Drivers/STM32F3xx_HAL_Driver/Src/stm32f3xx_hal_rcc.c ****       (+) The clock for all peripherals is switched off, except the SRAM and FLASH.
  24:Drivers/STM32F3xx_HAL_Driver/Src/stm32f3xx_hal_rcc.c ****       (+) All GPIOs are in input floating state, except the JTAG pins which
  25:Drivers/STM32F3xx_HAL_Driver/Src/stm32f3xx_hal_rcc.c ****           are assigned to be used for debug purpose.
  26:Drivers/STM32F3xx_HAL_Driver/Src/stm32f3xx_hal_rcc.c ****     [..] Once the device started from reset, the user application has to:
  27:Drivers/STM32F3xx_HAL_Driver/Src/stm32f3xx_hal_rcc.c ****       (+) Configure the clock source to be used to drive the System clock
  28:Drivers/STM32F3xx_HAL_Driver/Src/stm32f3xx_hal_rcc.c ****           (if the application needs higher frequency/performance)
  29:Drivers/STM32F3xx_HAL_Driver/Src/stm32f3xx_hal_rcc.c ****       (+) Configure the System clock frequency and Flash settings  
  30:Drivers/STM32F3xx_HAL_Driver/Src/stm32f3xx_hal_rcc.c ****       (+) Configure the AHB and APB buses prescalers
  31:Drivers/STM32F3xx_HAL_Driver/Src/stm32f3xx_hal_rcc.c ****       (+) Enable the clock for the peripheral(s) to be used
  32:Drivers/STM32F3xx_HAL_Driver/Src/stm32f3xx_hal_rcc.c ****       (+) Configure the clock source(s) for peripherals whose clocks are not
  33:Drivers/STM32F3xx_HAL_Driver/Src/stm32f3xx_hal_rcc.c ****           derived from the System clock (RTC, ADC, I2C, I2S, TIM, USB FS)
  34:Drivers/STM32F3xx_HAL_Driver/Src/stm32f3xx_hal_rcc.c **** 
  35:Drivers/STM32F3xx_HAL_Driver/Src/stm32f3xx_hal_rcc.c ****                       ##### RCC Limitations #####
  36:Drivers/STM32F3xx_HAL_Driver/Src/stm32f3xx_hal_rcc.c ****   ==============================================================================
  37:Drivers/STM32F3xx_HAL_Driver/Src/stm32f3xx_hal_rcc.c ****     [..]  
  38:Drivers/STM32F3xx_HAL_Driver/Src/stm32f3xx_hal_rcc.c ****       A delay between an RCC peripheral clock enable and the effective peripheral 
  39:Drivers/STM32F3xx_HAL_Driver/Src/stm32f3xx_hal_rcc.c ****       enabling should be taken into account in order to manage the peripheral read/write 
  40:Drivers/STM32F3xx_HAL_Driver/Src/stm32f3xx_hal_rcc.c ****       from/to registers.
  41:Drivers/STM32F3xx_HAL_Driver/Src/stm32f3xx_hal_rcc.c ****       (+) This delay depends on the peripheral mapping.
  42:Drivers/STM32F3xx_HAL_Driver/Src/stm32f3xx_hal_rcc.c ****         (++) AHB & APB peripherals, 1 dummy read is necessary
  43:Drivers/STM32F3xx_HAL_Driver/Src/stm32f3xx_hal_rcc.c **** 
  44:Drivers/STM32F3xx_HAL_Driver/Src/stm32f3xx_hal_rcc.c ****     [..]  
  45:Drivers/STM32F3xx_HAL_Driver/Src/stm32f3xx_hal_rcc.c ****       Workarounds:
  46:Drivers/STM32F3xx_HAL_Driver/Src/stm32f3xx_hal_rcc.c ****       (#) For AHB & APB peripherals, a dummy read to the peripheral register has been
  47:Drivers/STM32F3xx_HAL_Driver/Src/stm32f3xx_hal_rcc.c ****           inserted in each __HAL_RCC_PPP_CLK_ENABLE() macro.
ARM GAS  /var/folders/0z/_3zh0q697778kwks4bv8s9bh0000gn/T//ccJVqLQz.s 			page 3


  48:Drivers/STM32F3xx_HAL_Driver/Src/stm32f3xx_hal_rcc.c **** 
  49:Drivers/STM32F3xx_HAL_Driver/Src/stm32f3xx_hal_rcc.c ****   @endverbatim
  50:Drivers/STM32F3xx_HAL_Driver/Src/stm32f3xx_hal_rcc.c ****   ******************************************************************************
  51:Drivers/STM32F3xx_HAL_Driver/Src/stm32f3xx_hal_rcc.c ****   * @attention
  52:Drivers/STM32F3xx_HAL_Driver/Src/stm32f3xx_hal_rcc.c ****   *
  53:Drivers/STM32F3xx_HAL_Driver/Src/stm32f3xx_hal_rcc.c ****   * <h2><center>&copy; COPYRIGHT(c) 2016 STMicroelectronics</center></h2>
  54:Drivers/STM32F3xx_HAL_Driver/Src/stm32f3xx_hal_rcc.c ****   *
  55:Drivers/STM32F3xx_HAL_Driver/Src/stm32f3xx_hal_rcc.c ****   * Redistribution and use in source and binary forms, with or without modification,
  56:Drivers/STM32F3xx_HAL_Driver/Src/stm32f3xx_hal_rcc.c ****   * are permitted provided that the following conditions are met:
  57:Drivers/STM32F3xx_HAL_Driver/Src/stm32f3xx_hal_rcc.c ****   *   1. Redistributions of source code must retain the above copyright notice,
  58:Drivers/STM32F3xx_HAL_Driver/Src/stm32f3xx_hal_rcc.c ****   *      this list of conditions and the following disclaimer.
  59:Drivers/STM32F3xx_HAL_Driver/Src/stm32f3xx_hal_rcc.c ****   *   2. Redistributions in binary form must reproduce the above copyright notice,
  60:Drivers/STM32F3xx_HAL_Driver/Src/stm32f3xx_hal_rcc.c ****   *      this list of conditions and the following disclaimer in the documentation
  61:Drivers/STM32F3xx_HAL_Driver/Src/stm32f3xx_hal_rcc.c ****   *      and/or other materials provided with the distribution.
  62:Drivers/STM32F3xx_HAL_Driver/Src/stm32f3xx_hal_rcc.c ****   *   3. Neither the name of STMicroelectronics nor the names of its contributors
  63:Drivers/STM32F3xx_HAL_Driver/Src/stm32f3xx_hal_rcc.c ****   *      may be used to endorse or promote products derived from this software
  64:Drivers/STM32F3xx_HAL_Driver/Src/stm32f3xx_hal_rcc.c ****   *      without specific prior written permission.
  65:Drivers/STM32F3xx_HAL_Driver/Src/stm32f3xx_hal_rcc.c ****   *
  66:Drivers/STM32F3xx_HAL_Driver/Src/stm32f3xx_hal_rcc.c ****   * THIS SOFTWARE IS PROVIDED BY THE COPYRIGHT HOLDERS AND CONTRIBUTORS "AS IS"
  67:Drivers/STM32F3xx_HAL_Driver/Src/stm32f3xx_hal_rcc.c ****   * AND ANY EXPRESS OR IMPLIED WARRANTIES, INCLUDING, BUT NOT LIMITED TO, THE
  68:Drivers/STM32F3xx_HAL_Driver/Src/stm32f3xx_hal_rcc.c ****   * IMPLIED WARRANTIES OF MERCHANTABILITY AND FITNESS FOR A PARTICULAR PURPOSE ARE
  69:Drivers/STM32F3xx_HAL_Driver/Src/stm32f3xx_hal_rcc.c ****   * DISCLAIMED. IN NO EVENT SHALL THE COPYRIGHT HOLDER OR CONTRIBUTORS BE LIABLE
  70:Drivers/STM32F3xx_HAL_Driver/Src/stm32f3xx_hal_rcc.c ****   * FOR ANY DIRECT, INDIRECT, INCIDENTAL, SPECIAL, EXEMPLARY, OR CONSEQUENTIAL
  71:Drivers/STM32F3xx_HAL_Driver/Src/stm32f3xx_hal_rcc.c ****   * DAMAGES (INCLUDING, BUT NOT LIMITED TO, PROCUREMENT OF SUBSTITUTE GOODS OR
  72:Drivers/STM32F3xx_HAL_Driver/Src/stm32f3xx_hal_rcc.c ****   * SERVICES; LOSS OF USE, DATA, OR PROFITS; OR BUSINESS INTERRUPTION) HOWEVER
  73:Drivers/STM32F3xx_HAL_Driver/Src/stm32f3xx_hal_rcc.c ****   * CAUSED AND ON ANY THEORY OF LIABILITY, WHETHER IN CONTRACT, STRICT LIABILITY,
  74:Drivers/STM32F3xx_HAL_Driver/Src/stm32f3xx_hal_rcc.c ****   * OR TORT (INCLUDING NEGLIGENCE OR OTHERWISE) ARISING IN ANY WAY OUT OF THE USE
  75:Drivers/STM32F3xx_HAL_Driver/Src/stm32f3xx_hal_rcc.c ****   * OF THIS SOFTWARE, EVEN IF ADVISED OF THE POSSIBILITY OF SUCH DAMAGE.
  76:Drivers/STM32F3xx_HAL_Driver/Src/stm32f3xx_hal_rcc.c ****   *
  77:Drivers/STM32F3xx_HAL_Driver/Src/stm32f3xx_hal_rcc.c ****   ******************************************************************************  
  78:Drivers/STM32F3xx_HAL_Driver/Src/stm32f3xx_hal_rcc.c **** */
  79:Drivers/STM32F3xx_HAL_Driver/Src/stm32f3xx_hal_rcc.c **** 
  80:Drivers/STM32F3xx_HAL_Driver/Src/stm32f3xx_hal_rcc.c **** /* Includes ------------------------------------------------------------------*/
  81:Drivers/STM32F3xx_HAL_Driver/Src/stm32f3xx_hal_rcc.c **** #include "stm32f3xx_hal.h"
  82:Drivers/STM32F3xx_HAL_Driver/Src/stm32f3xx_hal_rcc.c **** 
  83:Drivers/STM32F3xx_HAL_Driver/Src/stm32f3xx_hal_rcc.c **** /** @addtogroup STM32F3xx_HAL_Driver
  84:Drivers/STM32F3xx_HAL_Driver/Src/stm32f3xx_hal_rcc.c ****   * @{
  85:Drivers/STM32F3xx_HAL_Driver/Src/stm32f3xx_hal_rcc.c ****   */
  86:Drivers/STM32F3xx_HAL_Driver/Src/stm32f3xx_hal_rcc.c **** 
  87:Drivers/STM32F3xx_HAL_Driver/Src/stm32f3xx_hal_rcc.c **** /** @defgroup RCC RCC
  88:Drivers/STM32F3xx_HAL_Driver/Src/stm32f3xx_hal_rcc.c **** * @brief RCC HAL module driver
  89:Drivers/STM32F3xx_HAL_Driver/Src/stm32f3xx_hal_rcc.c ****   * @{
  90:Drivers/STM32F3xx_HAL_Driver/Src/stm32f3xx_hal_rcc.c ****   */
  91:Drivers/STM32F3xx_HAL_Driver/Src/stm32f3xx_hal_rcc.c **** 
  92:Drivers/STM32F3xx_HAL_Driver/Src/stm32f3xx_hal_rcc.c **** #ifdef HAL_RCC_MODULE_ENABLED
  93:Drivers/STM32F3xx_HAL_Driver/Src/stm32f3xx_hal_rcc.c **** 
  94:Drivers/STM32F3xx_HAL_Driver/Src/stm32f3xx_hal_rcc.c **** /* Private typedef -----------------------------------------------------------*/
  95:Drivers/STM32F3xx_HAL_Driver/Src/stm32f3xx_hal_rcc.c **** /* Private define ------------------------------------------------------------*/
  96:Drivers/STM32F3xx_HAL_Driver/Src/stm32f3xx_hal_rcc.c **** /** @defgroup RCC_Private_Constants RCC Private Constants
  97:Drivers/STM32F3xx_HAL_Driver/Src/stm32f3xx_hal_rcc.c ****  * @{
  98:Drivers/STM32F3xx_HAL_Driver/Src/stm32f3xx_hal_rcc.c ****  */
  99:Drivers/STM32F3xx_HAL_Driver/Src/stm32f3xx_hal_rcc.c **** /* Bits position in  in the CFGR register */
 100:Drivers/STM32F3xx_HAL_Driver/Src/stm32f3xx_hal_rcc.c **** #define RCC_CFGR_HPRE_BITNUMBER           POSITION_VAL(RCC_CFGR_HPRE)
 101:Drivers/STM32F3xx_HAL_Driver/Src/stm32f3xx_hal_rcc.c **** #define RCC_CFGR_PPRE1_BITNUMBER          POSITION_VAL(RCC_CFGR_PPRE1)
 102:Drivers/STM32F3xx_HAL_Driver/Src/stm32f3xx_hal_rcc.c **** #define RCC_CFGR_PPRE2_BITNUMBER          POSITION_VAL(RCC_CFGR_PPRE2)
 103:Drivers/STM32F3xx_HAL_Driver/Src/stm32f3xx_hal_rcc.c **** /**
 104:Drivers/STM32F3xx_HAL_Driver/Src/stm32f3xx_hal_rcc.c ****   * @}
ARM GAS  /var/folders/0z/_3zh0q697778kwks4bv8s9bh0000gn/T//ccJVqLQz.s 			page 4


 105:Drivers/STM32F3xx_HAL_Driver/Src/stm32f3xx_hal_rcc.c ****   */
 106:Drivers/STM32F3xx_HAL_Driver/Src/stm32f3xx_hal_rcc.c **** /* Private macro -------------------------------------------------------------*/
 107:Drivers/STM32F3xx_HAL_Driver/Src/stm32f3xx_hal_rcc.c **** /** @defgroup RCC_Private_Macros RCC Private Macros
 108:Drivers/STM32F3xx_HAL_Driver/Src/stm32f3xx_hal_rcc.c ****   * @{
 109:Drivers/STM32F3xx_HAL_Driver/Src/stm32f3xx_hal_rcc.c ****   */
 110:Drivers/STM32F3xx_HAL_Driver/Src/stm32f3xx_hal_rcc.c **** 
 111:Drivers/STM32F3xx_HAL_Driver/Src/stm32f3xx_hal_rcc.c **** #define MCO1_CLK_ENABLE()     __HAL_RCC_GPIOA_CLK_ENABLE()
 112:Drivers/STM32F3xx_HAL_Driver/Src/stm32f3xx_hal_rcc.c **** #define MCO1_GPIO_PORT        GPIOA
 113:Drivers/STM32F3xx_HAL_Driver/Src/stm32f3xx_hal_rcc.c **** #define MCO1_PIN              GPIO_PIN_8
 114:Drivers/STM32F3xx_HAL_Driver/Src/stm32f3xx_hal_rcc.c **** 
 115:Drivers/STM32F3xx_HAL_Driver/Src/stm32f3xx_hal_rcc.c **** /**
 116:Drivers/STM32F3xx_HAL_Driver/Src/stm32f3xx_hal_rcc.c ****   * @}
 117:Drivers/STM32F3xx_HAL_Driver/Src/stm32f3xx_hal_rcc.c ****   */
 118:Drivers/STM32F3xx_HAL_Driver/Src/stm32f3xx_hal_rcc.c **** 
 119:Drivers/STM32F3xx_HAL_Driver/Src/stm32f3xx_hal_rcc.c **** /* Private variables ---------------------------------------------------------*/
 120:Drivers/STM32F3xx_HAL_Driver/Src/stm32f3xx_hal_rcc.c **** /** @defgroup RCC_Private_Variables RCC Private Variables
 121:Drivers/STM32F3xx_HAL_Driver/Src/stm32f3xx_hal_rcc.c ****   * @{
 122:Drivers/STM32F3xx_HAL_Driver/Src/stm32f3xx_hal_rcc.c ****   */
 123:Drivers/STM32F3xx_HAL_Driver/Src/stm32f3xx_hal_rcc.c **** const uint8_t aPLLMULFactorTable[16] = { 2,  3,  4,  5,  6,  7,  8,  9,
 124:Drivers/STM32F3xx_HAL_Driver/Src/stm32f3xx_hal_rcc.c ****                                        10, 11, 12, 13, 14, 15, 16, 16};
 125:Drivers/STM32F3xx_HAL_Driver/Src/stm32f3xx_hal_rcc.c **** const uint8_t aPredivFactorTable[16] = { 1, 2,  3,  4,  5,  6,  7,  8,
 126:Drivers/STM32F3xx_HAL_Driver/Src/stm32f3xx_hal_rcc.c ****                                          9,10, 11, 12, 13, 14, 15, 16};
 127:Drivers/STM32F3xx_HAL_Driver/Src/stm32f3xx_hal_rcc.c **** /**
 128:Drivers/STM32F3xx_HAL_Driver/Src/stm32f3xx_hal_rcc.c ****   * @}
 129:Drivers/STM32F3xx_HAL_Driver/Src/stm32f3xx_hal_rcc.c ****   */
 130:Drivers/STM32F3xx_HAL_Driver/Src/stm32f3xx_hal_rcc.c **** 
 131:Drivers/STM32F3xx_HAL_Driver/Src/stm32f3xx_hal_rcc.c **** /* Private function prototypes -----------------------------------------------*/
 132:Drivers/STM32F3xx_HAL_Driver/Src/stm32f3xx_hal_rcc.c **** /* Exported functions ---------------------------------------------------------*/
 133:Drivers/STM32F3xx_HAL_Driver/Src/stm32f3xx_hal_rcc.c **** 
 134:Drivers/STM32F3xx_HAL_Driver/Src/stm32f3xx_hal_rcc.c **** /** @defgroup RCC_Exported_Functions RCC Exported Functions
 135:Drivers/STM32F3xx_HAL_Driver/Src/stm32f3xx_hal_rcc.c ****   * @{
 136:Drivers/STM32F3xx_HAL_Driver/Src/stm32f3xx_hal_rcc.c ****   */
 137:Drivers/STM32F3xx_HAL_Driver/Src/stm32f3xx_hal_rcc.c **** 
 138:Drivers/STM32F3xx_HAL_Driver/Src/stm32f3xx_hal_rcc.c **** /** @defgroup RCC_Exported_Functions_Group1 Initialization and de-initialization functions 
 139:Drivers/STM32F3xx_HAL_Driver/Src/stm32f3xx_hal_rcc.c ****   *  @brief    Initialization and Configuration functions 
 140:Drivers/STM32F3xx_HAL_Driver/Src/stm32f3xx_hal_rcc.c ****   *
 141:Drivers/STM32F3xx_HAL_Driver/Src/stm32f3xx_hal_rcc.c ****   @verbatim    
 142:Drivers/STM32F3xx_HAL_Driver/Src/stm32f3xx_hal_rcc.c ****   ===============================================================================
 143:Drivers/STM32F3xx_HAL_Driver/Src/stm32f3xx_hal_rcc.c ****            ##### Initialization and de-initialization functions #####
 144:Drivers/STM32F3xx_HAL_Driver/Src/stm32f3xx_hal_rcc.c ****   ===============================================================================
 145:Drivers/STM32F3xx_HAL_Driver/Src/stm32f3xx_hal_rcc.c ****     [..]
 146:Drivers/STM32F3xx_HAL_Driver/Src/stm32f3xx_hal_rcc.c ****       This section provides functions allowing to configure the internal/external oscillators
 147:Drivers/STM32F3xx_HAL_Driver/Src/stm32f3xx_hal_rcc.c ****       (HSE, HSI, LSE, LSI, PLL, CSS and MCO) and the System buses clocks (SYSCLK, AHB, APB1
 148:Drivers/STM32F3xx_HAL_Driver/Src/stm32f3xx_hal_rcc.c ****       and APB2).
 149:Drivers/STM32F3xx_HAL_Driver/Src/stm32f3xx_hal_rcc.c **** 
 150:Drivers/STM32F3xx_HAL_Driver/Src/stm32f3xx_hal_rcc.c ****     [..] Internal/external clock and PLL configuration
 151:Drivers/STM32F3xx_HAL_Driver/Src/stm32f3xx_hal_rcc.c ****       (#) HSI (high-speed internal), 8 MHz factory-trimmed RC used directly or through
 152:Drivers/STM32F3xx_HAL_Driver/Src/stm32f3xx_hal_rcc.c ****           the PLL as System clock source.
 153:Drivers/STM32F3xx_HAL_Driver/Src/stm32f3xx_hal_rcc.c ****           The HSI clock can be used also to clock the USART and I2C peripherals.
 154:Drivers/STM32F3xx_HAL_Driver/Src/stm32f3xx_hal_rcc.c **** 
 155:Drivers/STM32F3xx_HAL_Driver/Src/stm32f3xx_hal_rcc.c ****       (#) LSI (low-speed internal), ~40 KHz low consumption RC used as IWDG and/or RTC
 156:Drivers/STM32F3xx_HAL_Driver/Src/stm32f3xx_hal_rcc.c ****           clock source.
 157:Drivers/STM32F3xx_HAL_Driver/Src/stm32f3xx_hal_rcc.c **** 
 158:Drivers/STM32F3xx_HAL_Driver/Src/stm32f3xx_hal_rcc.c ****       (#) HSE (high-speed external), 4 to 32 MHz crystal oscillator used directly or
 159:Drivers/STM32F3xx_HAL_Driver/Src/stm32f3xx_hal_rcc.c ****           through the PLL as System clock source. Can be used also as RTC clock source.
 160:Drivers/STM32F3xx_HAL_Driver/Src/stm32f3xx_hal_rcc.c **** 
 161:Drivers/STM32F3xx_HAL_Driver/Src/stm32f3xx_hal_rcc.c ****       (#) LSE (low-speed external), 32 KHz oscillator used as RTC clock source.   
ARM GAS  /var/folders/0z/_3zh0q697778kwks4bv8s9bh0000gn/T//ccJVqLQz.s 			page 5


 162:Drivers/STM32F3xx_HAL_Driver/Src/stm32f3xx_hal_rcc.c **** 
 163:Drivers/STM32F3xx_HAL_Driver/Src/stm32f3xx_hal_rcc.c ****       (#) PLL (clocked by HSI or HSE), featuring different output clocks:
 164:Drivers/STM32F3xx_HAL_Driver/Src/stm32f3xx_hal_rcc.c ****         (++) The first output is used to generate the high speed system clock (up to 72 MHz)
 165:Drivers/STM32F3xx_HAL_Driver/Src/stm32f3xx_hal_rcc.c ****         (++) The second output is used to generate the clock for the USB FS (48 MHz)
 166:Drivers/STM32F3xx_HAL_Driver/Src/stm32f3xx_hal_rcc.c ****         (++) The third output may be used to generate the clock for the ADC peripherals (up to 72 M
 167:Drivers/STM32F3xx_HAL_Driver/Src/stm32f3xx_hal_rcc.c ****         (++) The fourth output may be used to generate the clock for the TIM peripherals (144 MHz)
 168:Drivers/STM32F3xx_HAL_Driver/Src/stm32f3xx_hal_rcc.c **** 
 169:Drivers/STM32F3xx_HAL_Driver/Src/stm32f3xx_hal_rcc.c ****       (#) CSS (Clock security system), once enable using the macro __HAL_RCC_CSS_ENABLE()
 170:Drivers/STM32F3xx_HAL_Driver/Src/stm32f3xx_hal_rcc.c ****           and if a HSE clock failure occurs(HSE used directly or through PLL as System 
 171:Drivers/STM32F3xx_HAL_Driver/Src/stm32f3xx_hal_rcc.c ****           clock source), the System clocks automatically switched to HSI and an interrupt
 172:Drivers/STM32F3xx_HAL_Driver/Src/stm32f3xx_hal_rcc.c ****           is generated if enabled. The interrupt is linked to the Cortex-M4 NMI 
 173:Drivers/STM32F3xx_HAL_Driver/Src/stm32f3xx_hal_rcc.c ****           (Non-Maskable Interrupt) exception vector.   
 174:Drivers/STM32F3xx_HAL_Driver/Src/stm32f3xx_hal_rcc.c **** 
 175:Drivers/STM32F3xx_HAL_Driver/Src/stm32f3xx_hal_rcc.c ****       (#) MCO (microcontroller clock output), used to output SYSCLK, HSI, HSE, LSI, LSE or PLL
 176:Drivers/STM32F3xx_HAL_Driver/Src/stm32f3xx_hal_rcc.c ****           clock (divided by 2) output on pin (such as PA8 pin).
 177:Drivers/STM32F3xx_HAL_Driver/Src/stm32f3xx_hal_rcc.c **** 
 178:Drivers/STM32F3xx_HAL_Driver/Src/stm32f3xx_hal_rcc.c ****     [..] System, AHB and APB buses clocks configuration
 179:Drivers/STM32F3xx_HAL_Driver/Src/stm32f3xx_hal_rcc.c ****       (#) Several clock sources can be used to drive the System clock (SYSCLK): HSI,
 180:Drivers/STM32F3xx_HAL_Driver/Src/stm32f3xx_hal_rcc.c ****           HSE and PLL.
 181:Drivers/STM32F3xx_HAL_Driver/Src/stm32f3xx_hal_rcc.c ****           The AHB clock (HCLK) is derived from System clock through configurable
 182:Drivers/STM32F3xx_HAL_Driver/Src/stm32f3xx_hal_rcc.c ****           prescaler and used to clock the CPU, memory and peripherals mapped
 183:Drivers/STM32F3xx_HAL_Driver/Src/stm32f3xx_hal_rcc.c ****           on AHB bus (DMA, GPIO...). APB1 (PCLK1) and APB2 (PCLK2) clocks are derived
 184:Drivers/STM32F3xx_HAL_Driver/Src/stm32f3xx_hal_rcc.c ****           from AHB clock through configurable prescalers and used to clock
 185:Drivers/STM32F3xx_HAL_Driver/Src/stm32f3xx_hal_rcc.c ****           the peripherals mapped on these buses. You can use
 186:Drivers/STM32F3xx_HAL_Driver/Src/stm32f3xx_hal_rcc.c ****           "@ref HAL_RCC_GetSysClockFreq()" function to retrieve the frequencies of these clocks.
 187:Drivers/STM32F3xx_HAL_Driver/Src/stm32f3xx_hal_rcc.c **** 
 188:Drivers/STM32F3xx_HAL_Driver/Src/stm32f3xx_hal_rcc.c ****       (#) All the peripheral clocks are derived from the System clock (SYSCLK) except:
 189:Drivers/STM32F3xx_HAL_Driver/Src/stm32f3xx_hal_rcc.c ****         (++) The FLASH program/erase clock  which is always HSI 8MHz clock.
 190:Drivers/STM32F3xx_HAL_Driver/Src/stm32f3xx_hal_rcc.c ****         (++) The USB 48 MHz clock which is derived from the PLL VCO clock.
 191:Drivers/STM32F3xx_HAL_Driver/Src/stm32f3xx_hal_rcc.c ****         (++) The USART clock which can be derived as well from HSI 8MHz, LSI or LSE.
 192:Drivers/STM32F3xx_HAL_Driver/Src/stm32f3xx_hal_rcc.c ****         (++) The I2C clock which can be derived as well from HSI 8MHz clock.
 193:Drivers/STM32F3xx_HAL_Driver/Src/stm32f3xx_hal_rcc.c ****         (++) The ADC clock which is derived from PLL output.
 194:Drivers/STM32F3xx_HAL_Driver/Src/stm32f3xx_hal_rcc.c ****         (++) The RTC clock which is derived from the LSE, LSI or 1 MHz HSE_RTC
 195:Drivers/STM32F3xx_HAL_Driver/Src/stm32f3xx_hal_rcc.c ****              (HSE divided by a programmable prescaler). The System clock (SYSCLK)
 196:Drivers/STM32F3xx_HAL_Driver/Src/stm32f3xx_hal_rcc.c ****              frequency must be higher or equal to the RTC clock frequency.
 197:Drivers/STM32F3xx_HAL_Driver/Src/stm32f3xx_hal_rcc.c ****         (++) IWDG clock which is always the LSI clock.
 198:Drivers/STM32F3xx_HAL_Driver/Src/stm32f3xx_hal_rcc.c **** 
 199:Drivers/STM32F3xx_HAL_Driver/Src/stm32f3xx_hal_rcc.c ****          (#) For the STM32F3xx devices, the maximum frequency of the SYSCLK, HCLK, PCLK1 and PCLK2 
 200:Drivers/STM32F3xx_HAL_Driver/Src/stm32f3xx_hal_rcc.c ****              Depending on the SYSCLK frequency, the flash latency should be adapted accordingly.
 201:Drivers/STM32F3xx_HAL_Driver/Src/stm32f3xx_hal_rcc.c **** 
 202:Drivers/STM32F3xx_HAL_Driver/Src/stm32f3xx_hal_rcc.c ****          (#) After reset, the System clock source is the HSI (8 MHz) with 0 WS and
 203:Drivers/STM32F3xx_HAL_Driver/Src/stm32f3xx_hal_rcc.c ****              prefetch is disabled.
 204:Drivers/STM32F3xx_HAL_Driver/Src/stm32f3xx_hal_rcc.c ****   @endverbatim
 205:Drivers/STM32F3xx_HAL_Driver/Src/stm32f3xx_hal_rcc.c ****   * @{
 206:Drivers/STM32F3xx_HAL_Driver/Src/stm32f3xx_hal_rcc.c ****   */
 207:Drivers/STM32F3xx_HAL_Driver/Src/stm32f3xx_hal_rcc.c ****   
 208:Drivers/STM32F3xx_HAL_Driver/Src/stm32f3xx_hal_rcc.c **** /*
 209:Drivers/STM32F3xx_HAL_Driver/Src/stm32f3xx_hal_rcc.c ****   Additional consideration on the SYSCLK based on Latency settings:
 210:Drivers/STM32F3xx_HAL_Driver/Src/stm32f3xx_hal_rcc.c ****         +-----------------------------------------------+
 211:Drivers/STM32F3xx_HAL_Driver/Src/stm32f3xx_hal_rcc.c ****         | Latency       | SYSCLK clock frequency (MHz)  |
 212:Drivers/STM32F3xx_HAL_Driver/Src/stm32f3xx_hal_rcc.c ****         |---------------|-------------------------------|
 213:Drivers/STM32F3xx_HAL_Driver/Src/stm32f3xx_hal_rcc.c ****         |0WS(1CPU cycle)|       0 < SYSCLK <= 24        |
 214:Drivers/STM32F3xx_HAL_Driver/Src/stm32f3xx_hal_rcc.c ****         |---------------|-------------------------------|
 215:Drivers/STM32F3xx_HAL_Driver/Src/stm32f3xx_hal_rcc.c ****         |1WS(2CPU cycle)|      24 < SYSCLK <= 48        |
 216:Drivers/STM32F3xx_HAL_Driver/Src/stm32f3xx_hal_rcc.c ****         |---------------|-------------------------------|
 217:Drivers/STM32F3xx_HAL_Driver/Src/stm32f3xx_hal_rcc.c ****         |2WS(3CPU cycle)|      48 < SYSCLK <= 72        |
 218:Drivers/STM32F3xx_HAL_Driver/Src/stm32f3xx_hal_rcc.c ****         +-----------------------------------------------+
ARM GAS  /var/folders/0z/_3zh0q697778kwks4bv8s9bh0000gn/T//ccJVqLQz.s 			page 6


 219:Drivers/STM32F3xx_HAL_Driver/Src/stm32f3xx_hal_rcc.c ****   */
 220:Drivers/STM32F3xx_HAL_Driver/Src/stm32f3xx_hal_rcc.c **** 
 221:Drivers/STM32F3xx_HAL_Driver/Src/stm32f3xx_hal_rcc.c **** /**
 222:Drivers/STM32F3xx_HAL_Driver/Src/stm32f3xx_hal_rcc.c ****   * @brief  Resets the RCC clock configuration to the default reset state.
 223:Drivers/STM32F3xx_HAL_Driver/Src/stm32f3xx_hal_rcc.c ****   * @note   The default reset state of the clock configuration is given below:
 224:Drivers/STM32F3xx_HAL_Driver/Src/stm32f3xx_hal_rcc.c ****   *            - HSI ON and used as system clock source
 225:Drivers/STM32F3xx_HAL_Driver/Src/stm32f3xx_hal_rcc.c ****   *            - HSE and PLL OFF
 226:Drivers/STM32F3xx_HAL_Driver/Src/stm32f3xx_hal_rcc.c ****   *            - AHB, APB1 and APB2 prescaler set to 1.
 227:Drivers/STM32F3xx_HAL_Driver/Src/stm32f3xx_hal_rcc.c ****   *            - CSS and MCO1 OFF
 228:Drivers/STM32F3xx_HAL_Driver/Src/stm32f3xx_hal_rcc.c ****   *            - All interrupts disabled
 229:Drivers/STM32F3xx_HAL_Driver/Src/stm32f3xx_hal_rcc.c ****   * @note   This function does not modify the configuration of the
 230:Drivers/STM32F3xx_HAL_Driver/Src/stm32f3xx_hal_rcc.c ****   *            - Peripheral clocks
 231:Drivers/STM32F3xx_HAL_Driver/Src/stm32f3xx_hal_rcc.c ****   *            - LSI, LSE and RTC clocks
 232:Drivers/STM32F3xx_HAL_Driver/Src/stm32f3xx_hal_rcc.c ****   * @retval None
 233:Drivers/STM32F3xx_HAL_Driver/Src/stm32f3xx_hal_rcc.c ****   */
 234:Drivers/STM32F3xx_HAL_Driver/Src/stm32f3xx_hal_rcc.c **** void HAL_RCC_DeInit(void)
 235:Drivers/STM32F3xx_HAL_Driver/Src/stm32f3xx_hal_rcc.c **** {
  73              		.loc 1 235 0
  74              		.cfi_startproc
  75              		@ args = 0, pretend = 0, frame = 0
  76              		@ frame_needed = 1, uses_anonymous_args = 0
  77              		@ link register save eliminated.
  78 0000 80B4     		push	{r7}
  79              	.LCFI0:
  80              		.cfi_def_cfa_offset 4
  81              		.cfi_offset 7, -4
  82 0002 00AF     		add	r7, sp, #0
  83              	.LCFI1:
  84              		.cfi_def_cfa_register 7
 236:Drivers/STM32F3xx_HAL_Driver/Src/stm32f3xx_hal_rcc.c ****   /* Set HSION bit, HSITRIM[4:0] bits to the reset value*/
 237:Drivers/STM32F3xx_HAL_Driver/Src/stm32f3xx_hal_rcc.c ****   SET_BIT(RCC->CR, RCC_CR_HSION | RCC_CR_HSITRIM_4); 
  85              		.loc 1 237 0
  86 0004 164A     		ldr	r2, .L2
  87 0006 164B     		ldr	r3, .L2
  88 0008 1B68     		ldr	r3, [r3]
  89 000a 43F08103 		orr	r3, r3, #129
  90 000e 1360     		str	r3, [r2]
 238:Drivers/STM32F3xx_HAL_Driver/Src/stm32f3xx_hal_rcc.c **** 
 239:Drivers/STM32F3xx_HAL_Driver/Src/stm32f3xx_hal_rcc.c ****   /* Reset SW[1:0], HPRE[3:0], PPRE1[2:0], PPRE2[2:0] and MCOSEL[2:0] bits */
 240:Drivers/STM32F3xx_HAL_Driver/Src/stm32f3xx_hal_rcc.c ****   CLEAR_BIT(RCC->CFGR, RCC_CFGR_SW | RCC_CFGR_HPRE | RCC_CFGR_PPRE1 | RCC_CFGR_PPRE2 | RCC_CFGR_MCO
  91              		.loc 1 240 0
  92 0010 1349     		ldr	r1, .L2
  93 0012 134B     		ldr	r3, .L2
  94 0014 5A68     		ldr	r2, [r3, #4]
  95 0016 134B     		ldr	r3, .L2+4
  96 0018 1340     		ands	r3, r3, r2
  97 001a 4B60     		str	r3, [r1, #4]
 241:Drivers/STM32F3xx_HAL_Driver/Src/stm32f3xx_hal_rcc.c **** 
 242:Drivers/STM32F3xx_HAL_Driver/Src/stm32f3xx_hal_rcc.c ****   /* Reset HSEON, CSSON, PLLON bits */
 243:Drivers/STM32F3xx_HAL_Driver/Src/stm32f3xx_hal_rcc.c ****   CLEAR_BIT(RCC->CR, RCC_CR_PLLON | RCC_CR_CSSON | RCC_CR_HSEON);
  98              		.loc 1 243 0
  99 001c 104A     		ldr	r2, .L2
 100 001e 104B     		ldr	r3, .L2
 101 0020 1B68     		ldr	r3, [r3]
 102 0022 23F08473 		bic	r3, r3, #17301504
 103 0026 23F48033 		bic	r3, r3, #65536
 104 002a 1360     		str	r3, [r2]
ARM GAS  /var/folders/0z/_3zh0q697778kwks4bv8s9bh0000gn/T//ccJVqLQz.s 			page 7


 244:Drivers/STM32F3xx_HAL_Driver/Src/stm32f3xx_hal_rcc.c ****   
 245:Drivers/STM32F3xx_HAL_Driver/Src/stm32f3xx_hal_rcc.c ****   /* Reset HSEBYP bit */
 246:Drivers/STM32F3xx_HAL_Driver/Src/stm32f3xx_hal_rcc.c ****   CLEAR_BIT(RCC->CR, RCC_CR_HSEBYP);
 105              		.loc 1 246 0
 106 002c 0C4A     		ldr	r2, .L2
 107 002e 0C4B     		ldr	r3, .L2
 108 0030 1B68     		ldr	r3, [r3]
 109 0032 23F48023 		bic	r3, r3, #262144
 110 0036 1360     		str	r3, [r2]
 247:Drivers/STM32F3xx_HAL_Driver/Src/stm32f3xx_hal_rcc.c **** 
 248:Drivers/STM32F3xx_HAL_Driver/Src/stm32f3xx_hal_rcc.c ****   /* Reset CFGR register */
 249:Drivers/STM32F3xx_HAL_Driver/Src/stm32f3xx_hal_rcc.c ****   CLEAR_REG(RCC->CFGR);
 111              		.loc 1 249 0
 112 0038 094B     		ldr	r3, .L2
 113 003a 0022     		movs	r2, #0
 114 003c 5A60     		str	r2, [r3, #4]
 250:Drivers/STM32F3xx_HAL_Driver/Src/stm32f3xx_hal_rcc.c ****   
 251:Drivers/STM32F3xx_HAL_Driver/Src/stm32f3xx_hal_rcc.c ****   /* Reset CFGR2 register */
 252:Drivers/STM32F3xx_HAL_Driver/Src/stm32f3xx_hal_rcc.c ****   CLEAR_REG(RCC->CFGR2);
 115              		.loc 1 252 0
 116 003e 084B     		ldr	r3, .L2
 117 0040 0022     		movs	r2, #0
 118 0042 DA62     		str	r2, [r3, #44]
 253:Drivers/STM32F3xx_HAL_Driver/Src/stm32f3xx_hal_rcc.c ****   
 254:Drivers/STM32F3xx_HAL_Driver/Src/stm32f3xx_hal_rcc.c ****   /* Reset CFGR3 register */
 255:Drivers/STM32F3xx_HAL_Driver/Src/stm32f3xx_hal_rcc.c ****   CLEAR_REG(RCC->CFGR3);
 119              		.loc 1 255 0
 120 0044 064B     		ldr	r3, .L2
 121 0046 0022     		movs	r2, #0
 122 0048 1A63     		str	r2, [r3, #48]
 256:Drivers/STM32F3xx_HAL_Driver/Src/stm32f3xx_hal_rcc.c ****   
 257:Drivers/STM32F3xx_HAL_Driver/Src/stm32f3xx_hal_rcc.c ****   /* Disable all interrupts */
 258:Drivers/STM32F3xx_HAL_Driver/Src/stm32f3xx_hal_rcc.c ****   CLEAR_REG(RCC->CIR);
 123              		.loc 1 258 0
 124 004a 054B     		ldr	r3, .L2
 125 004c 0022     		movs	r2, #0
 126 004e 9A60     		str	r2, [r3, #8]
 259:Drivers/STM32F3xx_HAL_Driver/Src/stm32f3xx_hal_rcc.c **** 
 260:Drivers/STM32F3xx_HAL_Driver/Src/stm32f3xx_hal_rcc.c ****   /* Update the SystemCoreClock global variable */
 261:Drivers/STM32F3xx_HAL_Driver/Src/stm32f3xx_hal_rcc.c ****   SystemCoreClock = HSI_VALUE;
 127              		.loc 1 261 0
 128 0050 054B     		ldr	r3, .L2+8
 129 0052 064A     		ldr	r2, .L2+12
 130 0054 1A60     		str	r2, [r3]
 262:Drivers/STM32F3xx_HAL_Driver/Src/stm32f3xx_hal_rcc.c **** }
 131              		.loc 1 262 0
 132 0056 BD46     		mov	sp, r7
 133              	.LCFI2:
 134              		.cfi_def_cfa_register 13
 135              		@ sp needed
 136 0058 5DF8047B 		ldr	r7, [sp], #4
 137              	.LCFI3:
 138              		.cfi_restore 7
 139              		.cfi_def_cfa_offset 0
 140 005c 7047     		bx	lr
 141              	.L3:
 142 005e 00BF     		.align	2
ARM GAS  /var/folders/0z/_3zh0q697778kwks4bv8s9bh0000gn/T//ccJVqLQz.s 			page 8


 143              	.L2:
 144 0060 00100240 		.word	1073876992
 145 0064 0CC0FFF8 		.word	-117456884
 146 0068 00000000 		.word	SystemCoreClock
 147 006c 00127A00 		.word	8000000
 148              		.cfi_endproc
 149              	.LFE123:
 151              		.section	.text.HAL_RCC_OscConfig,"ax",%progbits
 152              		.align	2
 153              		.global	HAL_RCC_OscConfig
 154              		.thumb
 155              		.thumb_func
 157              	HAL_RCC_OscConfig:
 158              	.LFB124:
 263:Drivers/STM32F3xx_HAL_Driver/Src/stm32f3xx_hal_rcc.c **** 
 264:Drivers/STM32F3xx_HAL_Driver/Src/stm32f3xx_hal_rcc.c **** /**
 265:Drivers/STM32F3xx_HAL_Driver/Src/stm32f3xx_hal_rcc.c ****   * @brief  Initializes the RCC Oscillators according to the specified parameters in the
 266:Drivers/STM32F3xx_HAL_Driver/Src/stm32f3xx_hal_rcc.c ****   *         RCC_OscInitTypeDef.
 267:Drivers/STM32F3xx_HAL_Driver/Src/stm32f3xx_hal_rcc.c ****   * @param  RCC_OscInitStruct pointer to an RCC_OscInitTypeDef structure that
 268:Drivers/STM32F3xx_HAL_Driver/Src/stm32f3xx_hal_rcc.c ****   *         contains the configuration information for the RCC Oscillators.
 269:Drivers/STM32F3xx_HAL_Driver/Src/stm32f3xx_hal_rcc.c ****   * @note   The PLL is not disabled when used as system clock.
 270:Drivers/STM32F3xx_HAL_Driver/Src/stm32f3xx_hal_rcc.c ****   * @note   Transitions LSE Bypass to LSE On and LSE On to LSE Bypass are not
 271:Drivers/STM32F3xx_HAL_Driver/Src/stm32f3xx_hal_rcc.c ****   *         supported by this macro. User should request a transition to LSE Off
 272:Drivers/STM32F3xx_HAL_Driver/Src/stm32f3xx_hal_rcc.c ****   *         first and then LSE On or LSE Bypass.
 273:Drivers/STM32F3xx_HAL_Driver/Src/stm32f3xx_hal_rcc.c ****   * @note   Transition HSE Bypass to HSE On and HSE On to HSE Bypass are not
 274:Drivers/STM32F3xx_HAL_Driver/Src/stm32f3xx_hal_rcc.c ****   *         supported by this macro. User should request a transition to HSE Off
 275:Drivers/STM32F3xx_HAL_Driver/Src/stm32f3xx_hal_rcc.c ****   *         first and then HSE On or HSE Bypass.
 276:Drivers/STM32F3xx_HAL_Driver/Src/stm32f3xx_hal_rcc.c ****   * @retval HAL status
 277:Drivers/STM32F3xx_HAL_Driver/Src/stm32f3xx_hal_rcc.c ****   */
 278:Drivers/STM32F3xx_HAL_Driver/Src/stm32f3xx_hal_rcc.c **** HAL_StatusTypeDef HAL_RCC_OscConfig(RCC_OscInitTypeDef  *RCC_OscInitStruct)
 279:Drivers/STM32F3xx_HAL_Driver/Src/stm32f3xx_hal_rcc.c **** {
 159              		.loc 1 279 0
 160              		.cfi_startproc
 161              		@ args = 0, pretend = 0, frame = 512
 162              		@ frame_needed = 1, uses_anonymous_args = 0
 163 0000 80B5     		push	{r7, lr}
 164              	.LCFI4:
 165              		.cfi_def_cfa_offset 8
 166              		.cfi_offset 7, -8
 167              		.cfi_offset 14, -4
 168 0002 ADF5007D 		sub	sp, sp, #512
 169              	.LCFI5:
 170              		.cfi_def_cfa_offset 520
 171 0006 00AF     		add	r7, sp, #0
 172              	.LCFI6:
 173              		.cfi_def_cfa_register 7
 174 0008 3B1D     		adds	r3, r7, #4
 175 000a 1860     		str	r0, [r3]
 280:Drivers/STM32F3xx_HAL_Driver/Src/stm32f3xx_hal_rcc.c ****    uint32_t tickstart = 0U;
 176              		.loc 1 280 0
 177 000c 0023     		movs	r3, #0
 178 000e C7F8F831 		str	r3, [r7, #504]
 281:Drivers/STM32F3xx_HAL_Driver/Src/stm32f3xx_hal_rcc.c ****   
 282:Drivers/STM32F3xx_HAL_Driver/Src/stm32f3xx_hal_rcc.c ****   /* Check the parameters */
 283:Drivers/STM32F3xx_HAL_Driver/Src/stm32f3xx_hal_rcc.c ****   assert_param(RCC_OscInitStruct != NULL);
 284:Drivers/STM32F3xx_HAL_Driver/Src/stm32f3xx_hal_rcc.c ****   assert_param(IS_RCC_OSCILLATORTYPE(RCC_OscInitStruct->OscillatorType));
 285:Drivers/STM32F3xx_HAL_Driver/Src/stm32f3xx_hal_rcc.c **** 
ARM GAS  /var/folders/0z/_3zh0q697778kwks4bv8s9bh0000gn/T//ccJVqLQz.s 			page 9


 286:Drivers/STM32F3xx_HAL_Driver/Src/stm32f3xx_hal_rcc.c ****   /*------------------------------- HSE Configuration ------------------------*/ 
 287:Drivers/STM32F3xx_HAL_Driver/Src/stm32f3xx_hal_rcc.c ****   if(((RCC_OscInitStruct->OscillatorType) & RCC_OSCILLATORTYPE_HSE) == RCC_OSCILLATORTYPE_HSE)
 179              		.loc 1 287 0
 180 0012 3B1D     		adds	r3, r7, #4
 181 0014 1B68     		ldr	r3, [r3]
 182 0016 1B68     		ldr	r3, [r3]
 183 0018 03F00103 		and	r3, r3, #1
 184 001c 002B     		cmp	r3, #0
 185 001e 00F0C981 		beq	.L5
 288:Drivers/STM32F3xx_HAL_Driver/Src/stm32f3xx_hal_rcc.c ****   {
 289:Drivers/STM32F3xx_HAL_Driver/Src/stm32f3xx_hal_rcc.c ****     /* Check the parameters */
 290:Drivers/STM32F3xx_HAL_Driver/Src/stm32f3xx_hal_rcc.c ****     assert_param(IS_RCC_HSE(RCC_OscInitStruct->HSEState));
 291:Drivers/STM32F3xx_HAL_Driver/Src/stm32f3xx_hal_rcc.c **** 
 292:Drivers/STM32F3xx_HAL_Driver/Src/stm32f3xx_hal_rcc.c ****     /* When the HSE is used as system clock or clock source for PLL in these cases it is not allowe
 293:Drivers/STM32F3xx_HAL_Driver/Src/stm32f3xx_hal_rcc.c ****     if((__HAL_RCC_GET_SYSCLK_SOURCE() == RCC_SYSCLKSOURCE_STATUS_HSE) 
 186              		.loc 1 293 0
 187 0022 AE4B     		ldr	r3, .L197
 188 0024 5B68     		ldr	r3, [r3, #4]
 189 0026 03F00C03 		and	r3, r3, #12
 190 002a 042B     		cmp	r3, #4
 191 002c 0BD0     		beq	.L6
 294:Drivers/STM32F3xx_HAL_Driver/Src/stm32f3xx_hal_rcc.c ****        || ((__HAL_RCC_GET_SYSCLK_SOURCE() == RCC_SYSCLKSOURCE_STATUS_PLLCLK) && (__HAL_RCC_GET_PLL_
 192              		.loc 1 294 0
 193 002e AB4B     		ldr	r3, .L197
 194 0030 5B68     		ldr	r3, [r3, #4]
 195 0032 03F00C03 		and	r3, r3, #12
 196 0036 082B     		cmp	r3, #8
 197 0038 78D1     		bne	.L7
 198              		.loc 1 294 0 is_stmt 0 discriminator 1
 199 003a A84B     		ldr	r3, .L197
 200 003c 5B68     		ldr	r3, [r3, #4]
 201 003e 03F48033 		and	r3, r3, #65536
 202 0042 002B     		cmp	r3, #0
 203 0044 72D0     		beq	.L7
 204              	.L6:
 205 0046 4FF40033 		mov	r3, #131072
 206 004a C7F8F431 		str	r3, [r7, #500]
 207              	.LBB166:
 208              	.LBB167:
 209              		.file 2 "Drivers/CMSIS/Include/cmsis_gcc.h"
   1:Drivers/CMSIS/Include/cmsis_gcc.h **** /**************************************************************************//**
   2:Drivers/CMSIS/Include/cmsis_gcc.h ****  * @file     cmsis_gcc.h
   3:Drivers/CMSIS/Include/cmsis_gcc.h ****  * @brief    CMSIS Cortex-M Core Function/Instruction Header File
   4:Drivers/CMSIS/Include/cmsis_gcc.h ****  * @version  V4.30
   5:Drivers/CMSIS/Include/cmsis_gcc.h ****  * @date     20. October 2015
   6:Drivers/CMSIS/Include/cmsis_gcc.h ****  ******************************************************************************/
   7:Drivers/CMSIS/Include/cmsis_gcc.h **** /* Copyright (c) 2009 - 2015 ARM LIMITED
   8:Drivers/CMSIS/Include/cmsis_gcc.h **** 
   9:Drivers/CMSIS/Include/cmsis_gcc.h ****    All rights reserved.
  10:Drivers/CMSIS/Include/cmsis_gcc.h ****    Redistribution and use in source and binary forms, with or without
  11:Drivers/CMSIS/Include/cmsis_gcc.h ****    modification, are permitted provided that the following conditions are met:
  12:Drivers/CMSIS/Include/cmsis_gcc.h ****    - Redistributions of source code must retain the above copyright
  13:Drivers/CMSIS/Include/cmsis_gcc.h ****      notice, this list of conditions and the following disclaimer.
  14:Drivers/CMSIS/Include/cmsis_gcc.h ****    - Redistributions in binary form must reproduce the above copyright
  15:Drivers/CMSIS/Include/cmsis_gcc.h ****      notice, this list of conditions and the following disclaimer in the
  16:Drivers/CMSIS/Include/cmsis_gcc.h ****      documentation and/or other materials provided with the distribution.
  17:Drivers/CMSIS/Include/cmsis_gcc.h ****    - Neither the name of ARM nor the names of its contributors may be used
ARM GAS  /var/folders/0z/_3zh0q697778kwks4bv8s9bh0000gn/T//ccJVqLQz.s 			page 10


  18:Drivers/CMSIS/Include/cmsis_gcc.h ****      to endorse or promote products derived from this software without
  19:Drivers/CMSIS/Include/cmsis_gcc.h ****      specific prior written permission.
  20:Drivers/CMSIS/Include/cmsis_gcc.h ****    *
  21:Drivers/CMSIS/Include/cmsis_gcc.h ****    THIS SOFTWARE IS PROVIDED BY THE COPYRIGHT HOLDERS AND CONTRIBUTORS "AS IS"
  22:Drivers/CMSIS/Include/cmsis_gcc.h ****    AND ANY EXPRESS OR IMPLIED WARRANTIES, INCLUDING, BUT NOT LIMITED TO, THE
  23:Drivers/CMSIS/Include/cmsis_gcc.h ****    IMPLIED WARRANTIES OF MERCHANTABILITY AND FITNESS FOR A PARTICULAR PURPOSE
  24:Drivers/CMSIS/Include/cmsis_gcc.h ****    ARE DISCLAIMED. IN NO EVENT SHALL COPYRIGHT HOLDERS AND CONTRIBUTORS BE
  25:Drivers/CMSIS/Include/cmsis_gcc.h ****    LIABLE FOR ANY DIRECT, INDIRECT, INCIDENTAL, SPECIAL, EXEMPLARY, OR
  26:Drivers/CMSIS/Include/cmsis_gcc.h ****    CONSEQUENTIAL DAMAGES (INCLUDING, BUT NOT LIMITED TO, PROCUREMENT OF
  27:Drivers/CMSIS/Include/cmsis_gcc.h ****    SUBSTITUTE GOODS OR SERVICES; LOSS OF USE, DATA, OR PROFITS; OR BUSINESS
  28:Drivers/CMSIS/Include/cmsis_gcc.h ****    INTERRUPTION) HOWEVER CAUSED AND ON ANY THEORY OF LIABILITY, WHETHER IN
  29:Drivers/CMSIS/Include/cmsis_gcc.h ****    CONTRACT, STRICT LIABILITY, OR TORT (INCLUDING NEGLIGENCE OR OTHERWISE)
  30:Drivers/CMSIS/Include/cmsis_gcc.h ****    ARISING IN ANY WAY OUT OF THE USE OF THIS SOFTWARE, EVEN IF ADVISED OF THE
  31:Drivers/CMSIS/Include/cmsis_gcc.h ****    POSSIBILITY OF SUCH DAMAGE.
  32:Drivers/CMSIS/Include/cmsis_gcc.h ****    ---------------------------------------------------------------------------*/
  33:Drivers/CMSIS/Include/cmsis_gcc.h **** 
  34:Drivers/CMSIS/Include/cmsis_gcc.h **** 
  35:Drivers/CMSIS/Include/cmsis_gcc.h **** #ifndef __CMSIS_GCC_H
  36:Drivers/CMSIS/Include/cmsis_gcc.h **** #define __CMSIS_GCC_H
  37:Drivers/CMSIS/Include/cmsis_gcc.h **** 
  38:Drivers/CMSIS/Include/cmsis_gcc.h **** /* ignore some GCC warnings */
  39:Drivers/CMSIS/Include/cmsis_gcc.h **** #if defined ( __GNUC__ )
  40:Drivers/CMSIS/Include/cmsis_gcc.h **** #pragma GCC diagnostic push
  41:Drivers/CMSIS/Include/cmsis_gcc.h **** #pragma GCC diagnostic ignored "-Wsign-conversion"
  42:Drivers/CMSIS/Include/cmsis_gcc.h **** #pragma GCC diagnostic ignored "-Wconversion"
  43:Drivers/CMSIS/Include/cmsis_gcc.h **** #pragma GCC diagnostic ignored "-Wunused-parameter"
  44:Drivers/CMSIS/Include/cmsis_gcc.h **** #endif
  45:Drivers/CMSIS/Include/cmsis_gcc.h **** 
  46:Drivers/CMSIS/Include/cmsis_gcc.h **** 
  47:Drivers/CMSIS/Include/cmsis_gcc.h **** /* ###########################  Core Function Access  ########################### */
  48:Drivers/CMSIS/Include/cmsis_gcc.h **** /** \ingroup  CMSIS_Core_FunctionInterface
  49:Drivers/CMSIS/Include/cmsis_gcc.h ****     \defgroup CMSIS_Core_RegAccFunctions CMSIS Core Register Access Functions
  50:Drivers/CMSIS/Include/cmsis_gcc.h ****   @{
  51:Drivers/CMSIS/Include/cmsis_gcc.h ****  */
  52:Drivers/CMSIS/Include/cmsis_gcc.h **** 
  53:Drivers/CMSIS/Include/cmsis_gcc.h **** /**
  54:Drivers/CMSIS/Include/cmsis_gcc.h ****   \brief   Enable IRQ Interrupts
  55:Drivers/CMSIS/Include/cmsis_gcc.h ****   \details Enables IRQ interrupts by clearing the I-bit in the CPSR.
  56:Drivers/CMSIS/Include/cmsis_gcc.h ****            Can only be executed in Privileged modes.
  57:Drivers/CMSIS/Include/cmsis_gcc.h ****  */
  58:Drivers/CMSIS/Include/cmsis_gcc.h **** __attribute__( ( always_inline ) ) __STATIC_INLINE void __enable_irq(void)
  59:Drivers/CMSIS/Include/cmsis_gcc.h **** {
  60:Drivers/CMSIS/Include/cmsis_gcc.h ****   __ASM volatile ("cpsie i" : : : "memory");
  61:Drivers/CMSIS/Include/cmsis_gcc.h **** }
  62:Drivers/CMSIS/Include/cmsis_gcc.h **** 
  63:Drivers/CMSIS/Include/cmsis_gcc.h **** 
  64:Drivers/CMSIS/Include/cmsis_gcc.h **** /**
  65:Drivers/CMSIS/Include/cmsis_gcc.h ****   \brief   Disable IRQ Interrupts
  66:Drivers/CMSIS/Include/cmsis_gcc.h ****   \details Disables IRQ interrupts by setting the I-bit in the CPSR.
  67:Drivers/CMSIS/Include/cmsis_gcc.h ****   Can only be executed in Privileged modes.
  68:Drivers/CMSIS/Include/cmsis_gcc.h ****  */
  69:Drivers/CMSIS/Include/cmsis_gcc.h **** __attribute__( ( always_inline ) ) __STATIC_INLINE void __disable_irq(void)
  70:Drivers/CMSIS/Include/cmsis_gcc.h **** {
  71:Drivers/CMSIS/Include/cmsis_gcc.h ****   __ASM volatile ("cpsid i" : : : "memory");
  72:Drivers/CMSIS/Include/cmsis_gcc.h **** }
  73:Drivers/CMSIS/Include/cmsis_gcc.h **** 
  74:Drivers/CMSIS/Include/cmsis_gcc.h **** 
ARM GAS  /var/folders/0z/_3zh0q697778kwks4bv8s9bh0000gn/T//ccJVqLQz.s 			page 11


  75:Drivers/CMSIS/Include/cmsis_gcc.h **** /**
  76:Drivers/CMSIS/Include/cmsis_gcc.h ****   \brief   Get Control Register
  77:Drivers/CMSIS/Include/cmsis_gcc.h ****   \details Returns the content of the Control Register.
  78:Drivers/CMSIS/Include/cmsis_gcc.h ****   \return               Control Register value
  79:Drivers/CMSIS/Include/cmsis_gcc.h ****  */
  80:Drivers/CMSIS/Include/cmsis_gcc.h **** __attribute__( ( always_inline ) ) __STATIC_INLINE uint32_t __get_CONTROL(void)
  81:Drivers/CMSIS/Include/cmsis_gcc.h **** {
  82:Drivers/CMSIS/Include/cmsis_gcc.h ****   uint32_t result;
  83:Drivers/CMSIS/Include/cmsis_gcc.h **** 
  84:Drivers/CMSIS/Include/cmsis_gcc.h ****   __ASM volatile ("MRS %0, control" : "=r" (result) );
  85:Drivers/CMSIS/Include/cmsis_gcc.h ****   return(result);
  86:Drivers/CMSIS/Include/cmsis_gcc.h **** }
  87:Drivers/CMSIS/Include/cmsis_gcc.h **** 
  88:Drivers/CMSIS/Include/cmsis_gcc.h **** 
  89:Drivers/CMSIS/Include/cmsis_gcc.h **** /**
  90:Drivers/CMSIS/Include/cmsis_gcc.h ****   \brief   Set Control Register
  91:Drivers/CMSIS/Include/cmsis_gcc.h ****   \details Writes the given value to the Control Register.
  92:Drivers/CMSIS/Include/cmsis_gcc.h ****   \param [in]    control  Control Register value to set
  93:Drivers/CMSIS/Include/cmsis_gcc.h ****  */
  94:Drivers/CMSIS/Include/cmsis_gcc.h **** __attribute__( ( always_inline ) ) __STATIC_INLINE void __set_CONTROL(uint32_t control)
  95:Drivers/CMSIS/Include/cmsis_gcc.h **** {
  96:Drivers/CMSIS/Include/cmsis_gcc.h ****   __ASM volatile ("MSR control, %0" : : "r" (control) : "memory");
  97:Drivers/CMSIS/Include/cmsis_gcc.h **** }
  98:Drivers/CMSIS/Include/cmsis_gcc.h **** 
  99:Drivers/CMSIS/Include/cmsis_gcc.h **** 
 100:Drivers/CMSIS/Include/cmsis_gcc.h **** /**
 101:Drivers/CMSIS/Include/cmsis_gcc.h ****   \brief   Get IPSR Register
 102:Drivers/CMSIS/Include/cmsis_gcc.h ****   \details Returns the content of the IPSR Register.
 103:Drivers/CMSIS/Include/cmsis_gcc.h ****   \return               IPSR Register value
 104:Drivers/CMSIS/Include/cmsis_gcc.h ****  */
 105:Drivers/CMSIS/Include/cmsis_gcc.h **** __attribute__( ( always_inline ) ) __STATIC_INLINE uint32_t __get_IPSR(void)
 106:Drivers/CMSIS/Include/cmsis_gcc.h **** {
 107:Drivers/CMSIS/Include/cmsis_gcc.h ****   uint32_t result;
 108:Drivers/CMSIS/Include/cmsis_gcc.h **** 
 109:Drivers/CMSIS/Include/cmsis_gcc.h ****   __ASM volatile ("MRS %0, ipsr" : "=r" (result) );
 110:Drivers/CMSIS/Include/cmsis_gcc.h ****   return(result);
 111:Drivers/CMSIS/Include/cmsis_gcc.h **** }
 112:Drivers/CMSIS/Include/cmsis_gcc.h **** 
 113:Drivers/CMSIS/Include/cmsis_gcc.h **** 
 114:Drivers/CMSIS/Include/cmsis_gcc.h **** /**
 115:Drivers/CMSIS/Include/cmsis_gcc.h ****   \brief   Get APSR Register
 116:Drivers/CMSIS/Include/cmsis_gcc.h ****   \details Returns the content of the APSR Register.
 117:Drivers/CMSIS/Include/cmsis_gcc.h ****   \return               APSR Register value
 118:Drivers/CMSIS/Include/cmsis_gcc.h ****  */
 119:Drivers/CMSIS/Include/cmsis_gcc.h **** __attribute__( ( always_inline ) ) __STATIC_INLINE uint32_t __get_APSR(void)
 120:Drivers/CMSIS/Include/cmsis_gcc.h **** {
 121:Drivers/CMSIS/Include/cmsis_gcc.h ****   uint32_t result;
 122:Drivers/CMSIS/Include/cmsis_gcc.h **** 
 123:Drivers/CMSIS/Include/cmsis_gcc.h ****   __ASM volatile ("MRS %0, apsr" : "=r" (result) );
 124:Drivers/CMSIS/Include/cmsis_gcc.h ****   return(result);
 125:Drivers/CMSIS/Include/cmsis_gcc.h **** }
 126:Drivers/CMSIS/Include/cmsis_gcc.h **** 
 127:Drivers/CMSIS/Include/cmsis_gcc.h **** 
 128:Drivers/CMSIS/Include/cmsis_gcc.h **** /**
 129:Drivers/CMSIS/Include/cmsis_gcc.h ****   \brief   Get xPSR Register
 130:Drivers/CMSIS/Include/cmsis_gcc.h ****   \details Returns the content of the xPSR Register.
 131:Drivers/CMSIS/Include/cmsis_gcc.h **** 
ARM GAS  /var/folders/0z/_3zh0q697778kwks4bv8s9bh0000gn/T//ccJVqLQz.s 			page 12


 132:Drivers/CMSIS/Include/cmsis_gcc.h ****     \return               xPSR Register value
 133:Drivers/CMSIS/Include/cmsis_gcc.h ****  */
 134:Drivers/CMSIS/Include/cmsis_gcc.h **** __attribute__( ( always_inline ) ) __STATIC_INLINE uint32_t __get_xPSR(void)
 135:Drivers/CMSIS/Include/cmsis_gcc.h **** {
 136:Drivers/CMSIS/Include/cmsis_gcc.h ****   uint32_t result;
 137:Drivers/CMSIS/Include/cmsis_gcc.h **** 
 138:Drivers/CMSIS/Include/cmsis_gcc.h ****   __ASM volatile ("MRS %0, xpsr" : "=r" (result) );
 139:Drivers/CMSIS/Include/cmsis_gcc.h ****   return(result);
 140:Drivers/CMSIS/Include/cmsis_gcc.h **** }
 141:Drivers/CMSIS/Include/cmsis_gcc.h **** 
 142:Drivers/CMSIS/Include/cmsis_gcc.h **** 
 143:Drivers/CMSIS/Include/cmsis_gcc.h **** /**
 144:Drivers/CMSIS/Include/cmsis_gcc.h ****   \brief   Get Process Stack Pointer
 145:Drivers/CMSIS/Include/cmsis_gcc.h ****   \details Returns the current value of the Process Stack Pointer (PSP).
 146:Drivers/CMSIS/Include/cmsis_gcc.h ****   \return               PSP Register value
 147:Drivers/CMSIS/Include/cmsis_gcc.h ****  */
 148:Drivers/CMSIS/Include/cmsis_gcc.h **** __attribute__( ( always_inline ) ) __STATIC_INLINE uint32_t __get_PSP(void)
 149:Drivers/CMSIS/Include/cmsis_gcc.h **** {
 150:Drivers/CMSIS/Include/cmsis_gcc.h ****   register uint32_t result;
 151:Drivers/CMSIS/Include/cmsis_gcc.h **** 
 152:Drivers/CMSIS/Include/cmsis_gcc.h ****   __ASM volatile ("MRS %0, psp\n"  : "=r" (result) );
 153:Drivers/CMSIS/Include/cmsis_gcc.h ****   return(result);
 154:Drivers/CMSIS/Include/cmsis_gcc.h **** }
 155:Drivers/CMSIS/Include/cmsis_gcc.h **** 
 156:Drivers/CMSIS/Include/cmsis_gcc.h **** 
 157:Drivers/CMSIS/Include/cmsis_gcc.h **** /**
 158:Drivers/CMSIS/Include/cmsis_gcc.h ****   \brief   Set Process Stack Pointer
 159:Drivers/CMSIS/Include/cmsis_gcc.h ****   \details Assigns the given value to the Process Stack Pointer (PSP).
 160:Drivers/CMSIS/Include/cmsis_gcc.h ****   \param [in]    topOfProcStack  Process Stack Pointer value to set
 161:Drivers/CMSIS/Include/cmsis_gcc.h ****  */
 162:Drivers/CMSIS/Include/cmsis_gcc.h **** __attribute__( ( always_inline ) ) __STATIC_INLINE void __set_PSP(uint32_t topOfProcStack)
 163:Drivers/CMSIS/Include/cmsis_gcc.h **** {
 164:Drivers/CMSIS/Include/cmsis_gcc.h ****   __ASM volatile ("MSR psp, %0\n" : : "r" (topOfProcStack) : "sp");
 165:Drivers/CMSIS/Include/cmsis_gcc.h **** }
 166:Drivers/CMSIS/Include/cmsis_gcc.h **** 
 167:Drivers/CMSIS/Include/cmsis_gcc.h **** 
 168:Drivers/CMSIS/Include/cmsis_gcc.h **** /**
 169:Drivers/CMSIS/Include/cmsis_gcc.h ****   \brief   Get Main Stack Pointer
 170:Drivers/CMSIS/Include/cmsis_gcc.h ****   \details Returns the current value of the Main Stack Pointer (MSP).
 171:Drivers/CMSIS/Include/cmsis_gcc.h ****   \return               MSP Register value
 172:Drivers/CMSIS/Include/cmsis_gcc.h ****  */
 173:Drivers/CMSIS/Include/cmsis_gcc.h **** __attribute__( ( always_inline ) ) __STATIC_INLINE uint32_t __get_MSP(void)
 174:Drivers/CMSIS/Include/cmsis_gcc.h **** {
 175:Drivers/CMSIS/Include/cmsis_gcc.h ****   register uint32_t result;
 176:Drivers/CMSIS/Include/cmsis_gcc.h **** 
 177:Drivers/CMSIS/Include/cmsis_gcc.h ****   __ASM volatile ("MRS %0, msp\n" : "=r" (result) );
 178:Drivers/CMSIS/Include/cmsis_gcc.h ****   return(result);
 179:Drivers/CMSIS/Include/cmsis_gcc.h **** }
 180:Drivers/CMSIS/Include/cmsis_gcc.h **** 
 181:Drivers/CMSIS/Include/cmsis_gcc.h **** 
 182:Drivers/CMSIS/Include/cmsis_gcc.h **** /**
 183:Drivers/CMSIS/Include/cmsis_gcc.h ****   \brief   Set Main Stack Pointer
 184:Drivers/CMSIS/Include/cmsis_gcc.h ****   \details Assigns the given value to the Main Stack Pointer (MSP).
 185:Drivers/CMSIS/Include/cmsis_gcc.h **** 
 186:Drivers/CMSIS/Include/cmsis_gcc.h ****     \param [in]    topOfMainStack  Main Stack Pointer value to set
 187:Drivers/CMSIS/Include/cmsis_gcc.h ****  */
 188:Drivers/CMSIS/Include/cmsis_gcc.h **** __attribute__( ( always_inline ) ) __STATIC_INLINE void __set_MSP(uint32_t topOfMainStack)
ARM GAS  /var/folders/0z/_3zh0q697778kwks4bv8s9bh0000gn/T//ccJVqLQz.s 			page 13


 189:Drivers/CMSIS/Include/cmsis_gcc.h **** {
 190:Drivers/CMSIS/Include/cmsis_gcc.h ****   __ASM volatile ("MSR msp, %0\n" : : "r" (topOfMainStack) : "sp");
 191:Drivers/CMSIS/Include/cmsis_gcc.h **** }
 192:Drivers/CMSIS/Include/cmsis_gcc.h **** 
 193:Drivers/CMSIS/Include/cmsis_gcc.h **** 
 194:Drivers/CMSIS/Include/cmsis_gcc.h **** /**
 195:Drivers/CMSIS/Include/cmsis_gcc.h ****   \brief   Get Priority Mask
 196:Drivers/CMSIS/Include/cmsis_gcc.h ****   \details Returns the current state of the priority mask bit from the Priority Mask Register.
 197:Drivers/CMSIS/Include/cmsis_gcc.h ****   \return               Priority Mask value
 198:Drivers/CMSIS/Include/cmsis_gcc.h ****  */
 199:Drivers/CMSIS/Include/cmsis_gcc.h **** __attribute__( ( always_inline ) ) __STATIC_INLINE uint32_t __get_PRIMASK(void)
 200:Drivers/CMSIS/Include/cmsis_gcc.h **** {
 201:Drivers/CMSIS/Include/cmsis_gcc.h ****   uint32_t result;
 202:Drivers/CMSIS/Include/cmsis_gcc.h **** 
 203:Drivers/CMSIS/Include/cmsis_gcc.h ****   __ASM volatile ("MRS %0, primask" : "=r" (result) );
 204:Drivers/CMSIS/Include/cmsis_gcc.h ****   return(result);
 205:Drivers/CMSIS/Include/cmsis_gcc.h **** }
 206:Drivers/CMSIS/Include/cmsis_gcc.h **** 
 207:Drivers/CMSIS/Include/cmsis_gcc.h **** 
 208:Drivers/CMSIS/Include/cmsis_gcc.h **** /**
 209:Drivers/CMSIS/Include/cmsis_gcc.h ****   \brief   Set Priority Mask
 210:Drivers/CMSIS/Include/cmsis_gcc.h ****   \details Assigns the given value to the Priority Mask Register.
 211:Drivers/CMSIS/Include/cmsis_gcc.h ****   \param [in]    priMask  Priority Mask
 212:Drivers/CMSIS/Include/cmsis_gcc.h ****  */
 213:Drivers/CMSIS/Include/cmsis_gcc.h **** __attribute__( ( always_inline ) ) __STATIC_INLINE void __set_PRIMASK(uint32_t priMask)
 214:Drivers/CMSIS/Include/cmsis_gcc.h **** {
 215:Drivers/CMSIS/Include/cmsis_gcc.h ****   __ASM volatile ("MSR primask, %0" : : "r" (priMask) : "memory");
 216:Drivers/CMSIS/Include/cmsis_gcc.h **** }
 217:Drivers/CMSIS/Include/cmsis_gcc.h **** 
 218:Drivers/CMSIS/Include/cmsis_gcc.h **** 
 219:Drivers/CMSIS/Include/cmsis_gcc.h **** #if       (__CORTEX_M >= 0x03U)
 220:Drivers/CMSIS/Include/cmsis_gcc.h **** 
 221:Drivers/CMSIS/Include/cmsis_gcc.h **** /**
 222:Drivers/CMSIS/Include/cmsis_gcc.h ****   \brief   Enable FIQ
 223:Drivers/CMSIS/Include/cmsis_gcc.h ****   \details Enables FIQ interrupts by clearing the F-bit in the CPSR.
 224:Drivers/CMSIS/Include/cmsis_gcc.h ****            Can only be executed in Privileged modes.
 225:Drivers/CMSIS/Include/cmsis_gcc.h ****  */
 226:Drivers/CMSIS/Include/cmsis_gcc.h **** __attribute__( ( always_inline ) ) __STATIC_INLINE void __enable_fault_irq(void)
 227:Drivers/CMSIS/Include/cmsis_gcc.h **** {
 228:Drivers/CMSIS/Include/cmsis_gcc.h ****   __ASM volatile ("cpsie f" : : : "memory");
 229:Drivers/CMSIS/Include/cmsis_gcc.h **** }
 230:Drivers/CMSIS/Include/cmsis_gcc.h **** 
 231:Drivers/CMSIS/Include/cmsis_gcc.h **** 
 232:Drivers/CMSIS/Include/cmsis_gcc.h **** /**
 233:Drivers/CMSIS/Include/cmsis_gcc.h ****   \brief   Disable FIQ
 234:Drivers/CMSIS/Include/cmsis_gcc.h ****   \details Disables FIQ interrupts by setting the F-bit in the CPSR.
 235:Drivers/CMSIS/Include/cmsis_gcc.h ****            Can only be executed in Privileged modes.
 236:Drivers/CMSIS/Include/cmsis_gcc.h ****  */
 237:Drivers/CMSIS/Include/cmsis_gcc.h **** __attribute__( ( always_inline ) ) __STATIC_INLINE void __disable_fault_irq(void)
 238:Drivers/CMSIS/Include/cmsis_gcc.h **** {
 239:Drivers/CMSIS/Include/cmsis_gcc.h ****   __ASM volatile ("cpsid f" : : : "memory");
 240:Drivers/CMSIS/Include/cmsis_gcc.h **** }
 241:Drivers/CMSIS/Include/cmsis_gcc.h **** 
 242:Drivers/CMSIS/Include/cmsis_gcc.h **** 
 243:Drivers/CMSIS/Include/cmsis_gcc.h **** /**
 244:Drivers/CMSIS/Include/cmsis_gcc.h ****   \brief   Get Base Priority
 245:Drivers/CMSIS/Include/cmsis_gcc.h ****   \details Returns the current value of the Base Priority register.
ARM GAS  /var/folders/0z/_3zh0q697778kwks4bv8s9bh0000gn/T//ccJVqLQz.s 			page 14


 246:Drivers/CMSIS/Include/cmsis_gcc.h ****   \return               Base Priority register value
 247:Drivers/CMSIS/Include/cmsis_gcc.h ****  */
 248:Drivers/CMSIS/Include/cmsis_gcc.h **** __attribute__( ( always_inline ) ) __STATIC_INLINE uint32_t __get_BASEPRI(void)
 249:Drivers/CMSIS/Include/cmsis_gcc.h **** {
 250:Drivers/CMSIS/Include/cmsis_gcc.h ****   uint32_t result;
 251:Drivers/CMSIS/Include/cmsis_gcc.h **** 
 252:Drivers/CMSIS/Include/cmsis_gcc.h ****   __ASM volatile ("MRS %0, basepri" : "=r" (result) );
 253:Drivers/CMSIS/Include/cmsis_gcc.h ****   return(result);
 254:Drivers/CMSIS/Include/cmsis_gcc.h **** }
 255:Drivers/CMSIS/Include/cmsis_gcc.h **** 
 256:Drivers/CMSIS/Include/cmsis_gcc.h **** 
 257:Drivers/CMSIS/Include/cmsis_gcc.h **** /**
 258:Drivers/CMSIS/Include/cmsis_gcc.h ****   \brief   Set Base Priority
 259:Drivers/CMSIS/Include/cmsis_gcc.h ****   \details Assigns the given value to the Base Priority register.
 260:Drivers/CMSIS/Include/cmsis_gcc.h ****   \param [in]    basePri  Base Priority value to set
 261:Drivers/CMSIS/Include/cmsis_gcc.h ****  */
 262:Drivers/CMSIS/Include/cmsis_gcc.h **** __attribute__( ( always_inline ) ) __STATIC_INLINE void __set_BASEPRI(uint32_t value)
 263:Drivers/CMSIS/Include/cmsis_gcc.h **** {
 264:Drivers/CMSIS/Include/cmsis_gcc.h ****   __ASM volatile ("MSR basepri, %0" : : "r" (value) : "memory");
 265:Drivers/CMSIS/Include/cmsis_gcc.h **** }
 266:Drivers/CMSIS/Include/cmsis_gcc.h **** 
 267:Drivers/CMSIS/Include/cmsis_gcc.h **** 
 268:Drivers/CMSIS/Include/cmsis_gcc.h **** /**
 269:Drivers/CMSIS/Include/cmsis_gcc.h ****   \brief   Set Base Priority with condition
 270:Drivers/CMSIS/Include/cmsis_gcc.h ****   \details Assigns the given value to the Base Priority register only if BASEPRI masking is disable
 271:Drivers/CMSIS/Include/cmsis_gcc.h ****            or the new value increases the BASEPRI priority level.
 272:Drivers/CMSIS/Include/cmsis_gcc.h ****   \param [in]    basePri  Base Priority value to set
 273:Drivers/CMSIS/Include/cmsis_gcc.h ****  */
 274:Drivers/CMSIS/Include/cmsis_gcc.h **** __attribute__( ( always_inline ) ) __STATIC_INLINE void __set_BASEPRI_MAX(uint32_t value)
 275:Drivers/CMSIS/Include/cmsis_gcc.h **** {
 276:Drivers/CMSIS/Include/cmsis_gcc.h ****   __ASM volatile ("MSR basepri_max, %0" : : "r" (value) : "memory");
 277:Drivers/CMSIS/Include/cmsis_gcc.h **** }
 278:Drivers/CMSIS/Include/cmsis_gcc.h **** 
 279:Drivers/CMSIS/Include/cmsis_gcc.h **** 
 280:Drivers/CMSIS/Include/cmsis_gcc.h **** /**
 281:Drivers/CMSIS/Include/cmsis_gcc.h ****   \brief   Get Fault Mask
 282:Drivers/CMSIS/Include/cmsis_gcc.h ****   \details Returns the current value of the Fault Mask register.
 283:Drivers/CMSIS/Include/cmsis_gcc.h ****   \return               Fault Mask register value
 284:Drivers/CMSIS/Include/cmsis_gcc.h ****  */
 285:Drivers/CMSIS/Include/cmsis_gcc.h **** __attribute__( ( always_inline ) ) __STATIC_INLINE uint32_t __get_FAULTMASK(void)
 286:Drivers/CMSIS/Include/cmsis_gcc.h **** {
 287:Drivers/CMSIS/Include/cmsis_gcc.h ****   uint32_t result;
 288:Drivers/CMSIS/Include/cmsis_gcc.h **** 
 289:Drivers/CMSIS/Include/cmsis_gcc.h ****   __ASM volatile ("MRS %0, faultmask" : "=r" (result) );
 290:Drivers/CMSIS/Include/cmsis_gcc.h ****   return(result);
 291:Drivers/CMSIS/Include/cmsis_gcc.h **** }
 292:Drivers/CMSIS/Include/cmsis_gcc.h **** 
 293:Drivers/CMSIS/Include/cmsis_gcc.h **** 
 294:Drivers/CMSIS/Include/cmsis_gcc.h **** /**
 295:Drivers/CMSIS/Include/cmsis_gcc.h ****   \brief   Set Fault Mask
 296:Drivers/CMSIS/Include/cmsis_gcc.h ****   \details Assigns the given value to the Fault Mask register.
 297:Drivers/CMSIS/Include/cmsis_gcc.h ****   \param [in]    faultMask  Fault Mask value to set
 298:Drivers/CMSIS/Include/cmsis_gcc.h ****  */
 299:Drivers/CMSIS/Include/cmsis_gcc.h **** __attribute__( ( always_inline ) ) __STATIC_INLINE void __set_FAULTMASK(uint32_t faultMask)
 300:Drivers/CMSIS/Include/cmsis_gcc.h **** {
 301:Drivers/CMSIS/Include/cmsis_gcc.h ****   __ASM volatile ("MSR faultmask, %0" : : "r" (faultMask) : "memory");
 302:Drivers/CMSIS/Include/cmsis_gcc.h **** }
ARM GAS  /var/folders/0z/_3zh0q697778kwks4bv8s9bh0000gn/T//ccJVqLQz.s 			page 15


 303:Drivers/CMSIS/Include/cmsis_gcc.h **** 
 304:Drivers/CMSIS/Include/cmsis_gcc.h **** #endif /* (__CORTEX_M >= 0x03U) */
 305:Drivers/CMSIS/Include/cmsis_gcc.h **** 
 306:Drivers/CMSIS/Include/cmsis_gcc.h **** 
 307:Drivers/CMSIS/Include/cmsis_gcc.h **** #if       (__CORTEX_M == 0x04U) || (__CORTEX_M == 0x07U)
 308:Drivers/CMSIS/Include/cmsis_gcc.h **** 
 309:Drivers/CMSIS/Include/cmsis_gcc.h **** /**
 310:Drivers/CMSIS/Include/cmsis_gcc.h ****   \brief   Get FPSCR
 311:Drivers/CMSIS/Include/cmsis_gcc.h ****   \details Returns the current value of the Floating Point Status/Control register.
 312:Drivers/CMSIS/Include/cmsis_gcc.h ****   \return               Floating Point Status/Control register value
 313:Drivers/CMSIS/Include/cmsis_gcc.h ****  */
 314:Drivers/CMSIS/Include/cmsis_gcc.h **** __attribute__( ( always_inline ) ) __STATIC_INLINE uint32_t __get_FPSCR(void)
 315:Drivers/CMSIS/Include/cmsis_gcc.h **** {
 316:Drivers/CMSIS/Include/cmsis_gcc.h **** #if (__FPU_PRESENT == 1U) && (__FPU_USED == 1U)
 317:Drivers/CMSIS/Include/cmsis_gcc.h ****   uint32_t result;
 318:Drivers/CMSIS/Include/cmsis_gcc.h **** 
 319:Drivers/CMSIS/Include/cmsis_gcc.h ****   /* Empty asm statement works as a scheduling barrier */
 320:Drivers/CMSIS/Include/cmsis_gcc.h ****   __ASM volatile ("");
 321:Drivers/CMSIS/Include/cmsis_gcc.h ****   __ASM volatile ("VMRS %0, fpscr" : "=r" (result) );
 322:Drivers/CMSIS/Include/cmsis_gcc.h ****   __ASM volatile ("");
 323:Drivers/CMSIS/Include/cmsis_gcc.h ****   return(result);
 324:Drivers/CMSIS/Include/cmsis_gcc.h **** #else
 325:Drivers/CMSIS/Include/cmsis_gcc.h ****    return(0);
 326:Drivers/CMSIS/Include/cmsis_gcc.h **** #endif
 327:Drivers/CMSIS/Include/cmsis_gcc.h **** }
 328:Drivers/CMSIS/Include/cmsis_gcc.h **** 
 329:Drivers/CMSIS/Include/cmsis_gcc.h **** 
 330:Drivers/CMSIS/Include/cmsis_gcc.h **** /**
 331:Drivers/CMSIS/Include/cmsis_gcc.h ****   \brief   Set FPSCR
 332:Drivers/CMSIS/Include/cmsis_gcc.h ****   \details Assigns the given value to the Floating Point Status/Control register.
 333:Drivers/CMSIS/Include/cmsis_gcc.h ****   \param [in]    fpscr  Floating Point Status/Control value to set
 334:Drivers/CMSIS/Include/cmsis_gcc.h ****  */
 335:Drivers/CMSIS/Include/cmsis_gcc.h **** __attribute__( ( always_inline ) ) __STATIC_INLINE void __set_FPSCR(uint32_t fpscr)
 336:Drivers/CMSIS/Include/cmsis_gcc.h **** {
 337:Drivers/CMSIS/Include/cmsis_gcc.h **** #if (__FPU_PRESENT == 1U) && (__FPU_USED == 1U)
 338:Drivers/CMSIS/Include/cmsis_gcc.h ****   /* Empty asm statement works as a scheduling barrier */
 339:Drivers/CMSIS/Include/cmsis_gcc.h ****   __ASM volatile ("");
 340:Drivers/CMSIS/Include/cmsis_gcc.h ****   __ASM volatile ("VMSR fpscr, %0" : : "r" (fpscr) : "vfpcc");
 341:Drivers/CMSIS/Include/cmsis_gcc.h ****   __ASM volatile ("");
 342:Drivers/CMSIS/Include/cmsis_gcc.h **** #endif
 343:Drivers/CMSIS/Include/cmsis_gcc.h **** }
 344:Drivers/CMSIS/Include/cmsis_gcc.h **** 
 345:Drivers/CMSIS/Include/cmsis_gcc.h **** #endif /* (__CORTEX_M == 0x04U) || (__CORTEX_M == 0x07U) */
 346:Drivers/CMSIS/Include/cmsis_gcc.h **** 
 347:Drivers/CMSIS/Include/cmsis_gcc.h **** 
 348:Drivers/CMSIS/Include/cmsis_gcc.h **** 
 349:Drivers/CMSIS/Include/cmsis_gcc.h **** /*@} end of CMSIS_Core_RegAccFunctions */
 350:Drivers/CMSIS/Include/cmsis_gcc.h **** 
 351:Drivers/CMSIS/Include/cmsis_gcc.h **** 
 352:Drivers/CMSIS/Include/cmsis_gcc.h **** /* ##########################  Core Instruction Access  ######################### */
 353:Drivers/CMSIS/Include/cmsis_gcc.h **** /** \defgroup CMSIS_Core_InstructionInterface CMSIS Core Instruction Interface
 354:Drivers/CMSIS/Include/cmsis_gcc.h ****   Access to dedicated instructions
 355:Drivers/CMSIS/Include/cmsis_gcc.h ****   @{
 356:Drivers/CMSIS/Include/cmsis_gcc.h **** */
 357:Drivers/CMSIS/Include/cmsis_gcc.h **** 
 358:Drivers/CMSIS/Include/cmsis_gcc.h **** /* Define macros for porting to both thumb1 and thumb2.
 359:Drivers/CMSIS/Include/cmsis_gcc.h ****  * For thumb1, use low register (r0-r7), specified by constraint "l"
ARM GAS  /var/folders/0z/_3zh0q697778kwks4bv8s9bh0000gn/T//ccJVqLQz.s 			page 16


 360:Drivers/CMSIS/Include/cmsis_gcc.h ****  * Otherwise, use general registers, specified by constraint "r" */
 361:Drivers/CMSIS/Include/cmsis_gcc.h **** #if defined (__thumb__) && !defined (__thumb2__)
 362:Drivers/CMSIS/Include/cmsis_gcc.h **** #define __CMSIS_GCC_OUT_REG(r) "=l" (r)
 363:Drivers/CMSIS/Include/cmsis_gcc.h **** #define __CMSIS_GCC_USE_REG(r) "l" (r)
 364:Drivers/CMSIS/Include/cmsis_gcc.h **** #else
 365:Drivers/CMSIS/Include/cmsis_gcc.h **** #define __CMSIS_GCC_OUT_REG(r) "=r" (r)
 366:Drivers/CMSIS/Include/cmsis_gcc.h **** #define __CMSIS_GCC_USE_REG(r) "r" (r)
 367:Drivers/CMSIS/Include/cmsis_gcc.h **** #endif
 368:Drivers/CMSIS/Include/cmsis_gcc.h **** 
 369:Drivers/CMSIS/Include/cmsis_gcc.h **** /**
 370:Drivers/CMSIS/Include/cmsis_gcc.h ****   \brief   No Operation
 371:Drivers/CMSIS/Include/cmsis_gcc.h ****   \details No Operation does nothing. This instruction can be used for code alignment purposes.
 372:Drivers/CMSIS/Include/cmsis_gcc.h ****  */
 373:Drivers/CMSIS/Include/cmsis_gcc.h **** __attribute__((always_inline)) __STATIC_INLINE void __NOP(void)
 374:Drivers/CMSIS/Include/cmsis_gcc.h **** {
 375:Drivers/CMSIS/Include/cmsis_gcc.h ****   __ASM volatile ("nop");
 376:Drivers/CMSIS/Include/cmsis_gcc.h **** }
 377:Drivers/CMSIS/Include/cmsis_gcc.h **** 
 378:Drivers/CMSIS/Include/cmsis_gcc.h **** 
 379:Drivers/CMSIS/Include/cmsis_gcc.h **** /**
 380:Drivers/CMSIS/Include/cmsis_gcc.h ****   \brief   Wait For Interrupt
 381:Drivers/CMSIS/Include/cmsis_gcc.h ****   \details Wait For Interrupt is a hint instruction that suspends execution until one of a number o
 382:Drivers/CMSIS/Include/cmsis_gcc.h ****  */
 383:Drivers/CMSIS/Include/cmsis_gcc.h **** __attribute__((always_inline)) __STATIC_INLINE void __WFI(void)
 384:Drivers/CMSIS/Include/cmsis_gcc.h **** {
 385:Drivers/CMSIS/Include/cmsis_gcc.h ****   __ASM volatile ("wfi");
 386:Drivers/CMSIS/Include/cmsis_gcc.h **** }
 387:Drivers/CMSIS/Include/cmsis_gcc.h **** 
 388:Drivers/CMSIS/Include/cmsis_gcc.h **** 
 389:Drivers/CMSIS/Include/cmsis_gcc.h **** /**
 390:Drivers/CMSIS/Include/cmsis_gcc.h ****   \brief   Wait For Event
 391:Drivers/CMSIS/Include/cmsis_gcc.h ****   \details Wait For Event is a hint instruction that permits the processor to enter
 392:Drivers/CMSIS/Include/cmsis_gcc.h ****     a low-power state until one of a number of events occurs.
 393:Drivers/CMSIS/Include/cmsis_gcc.h ****  */
 394:Drivers/CMSIS/Include/cmsis_gcc.h **** __attribute__((always_inline)) __STATIC_INLINE void __WFE(void)
 395:Drivers/CMSIS/Include/cmsis_gcc.h **** {
 396:Drivers/CMSIS/Include/cmsis_gcc.h ****   __ASM volatile ("wfe");
 397:Drivers/CMSIS/Include/cmsis_gcc.h **** }
 398:Drivers/CMSIS/Include/cmsis_gcc.h **** 
 399:Drivers/CMSIS/Include/cmsis_gcc.h **** 
 400:Drivers/CMSIS/Include/cmsis_gcc.h **** /**
 401:Drivers/CMSIS/Include/cmsis_gcc.h ****   \brief   Send Event
 402:Drivers/CMSIS/Include/cmsis_gcc.h ****   \details Send Event is a hint instruction. It causes an event to be signaled to the CPU.
 403:Drivers/CMSIS/Include/cmsis_gcc.h ****  */
 404:Drivers/CMSIS/Include/cmsis_gcc.h **** __attribute__((always_inline)) __STATIC_INLINE void __SEV(void)
 405:Drivers/CMSIS/Include/cmsis_gcc.h **** {
 406:Drivers/CMSIS/Include/cmsis_gcc.h ****   __ASM volatile ("sev");
 407:Drivers/CMSIS/Include/cmsis_gcc.h **** }
 408:Drivers/CMSIS/Include/cmsis_gcc.h **** 
 409:Drivers/CMSIS/Include/cmsis_gcc.h **** 
 410:Drivers/CMSIS/Include/cmsis_gcc.h **** /**
 411:Drivers/CMSIS/Include/cmsis_gcc.h ****   \brief   Instruction Synchronization Barrier
 412:Drivers/CMSIS/Include/cmsis_gcc.h ****   \details Instruction Synchronization Barrier flushes the pipeline in the processor,
 413:Drivers/CMSIS/Include/cmsis_gcc.h ****            so that all instructions following the ISB are fetched from cache or memory,
 414:Drivers/CMSIS/Include/cmsis_gcc.h ****            after the instruction has been completed.
 415:Drivers/CMSIS/Include/cmsis_gcc.h ****  */
 416:Drivers/CMSIS/Include/cmsis_gcc.h **** __attribute__((always_inline)) __STATIC_INLINE void __ISB(void)
ARM GAS  /var/folders/0z/_3zh0q697778kwks4bv8s9bh0000gn/T//ccJVqLQz.s 			page 17


 417:Drivers/CMSIS/Include/cmsis_gcc.h **** {
 418:Drivers/CMSIS/Include/cmsis_gcc.h ****   __ASM volatile ("isb 0xF":::"memory");
 419:Drivers/CMSIS/Include/cmsis_gcc.h **** }
 420:Drivers/CMSIS/Include/cmsis_gcc.h **** 
 421:Drivers/CMSIS/Include/cmsis_gcc.h **** 
 422:Drivers/CMSIS/Include/cmsis_gcc.h **** /**
 423:Drivers/CMSIS/Include/cmsis_gcc.h ****   \brief   Data Synchronization Barrier
 424:Drivers/CMSIS/Include/cmsis_gcc.h ****   \details Acts as a special kind of Data Memory Barrier.
 425:Drivers/CMSIS/Include/cmsis_gcc.h ****            It completes when all explicit memory accesses before this instruction complete.
 426:Drivers/CMSIS/Include/cmsis_gcc.h ****  */
 427:Drivers/CMSIS/Include/cmsis_gcc.h **** __attribute__((always_inline)) __STATIC_INLINE void __DSB(void)
 428:Drivers/CMSIS/Include/cmsis_gcc.h **** {
 429:Drivers/CMSIS/Include/cmsis_gcc.h ****   __ASM volatile ("dsb 0xF":::"memory");
 430:Drivers/CMSIS/Include/cmsis_gcc.h **** }
 431:Drivers/CMSIS/Include/cmsis_gcc.h **** 
 432:Drivers/CMSIS/Include/cmsis_gcc.h **** 
 433:Drivers/CMSIS/Include/cmsis_gcc.h **** /**
 434:Drivers/CMSIS/Include/cmsis_gcc.h ****   \brief   Data Memory Barrier
 435:Drivers/CMSIS/Include/cmsis_gcc.h ****   \details Ensures the apparent order of the explicit memory operations before
 436:Drivers/CMSIS/Include/cmsis_gcc.h ****            and after the instruction, without ensuring their completion.
 437:Drivers/CMSIS/Include/cmsis_gcc.h ****  */
 438:Drivers/CMSIS/Include/cmsis_gcc.h **** __attribute__((always_inline)) __STATIC_INLINE void __DMB(void)
 439:Drivers/CMSIS/Include/cmsis_gcc.h **** {
 440:Drivers/CMSIS/Include/cmsis_gcc.h ****   __ASM volatile ("dmb 0xF":::"memory");
 441:Drivers/CMSIS/Include/cmsis_gcc.h **** }
 442:Drivers/CMSIS/Include/cmsis_gcc.h **** 
 443:Drivers/CMSIS/Include/cmsis_gcc.h **** 
 444:Drivers/CMSIS/Include/cmsis_gcc.h **** /**
 445:Drivers/CMSIS/Include/cmsis_gcc.h ****   \brief   Reverse byte order (32 bit)
 446:Drivers/CMSIS/Include/cmsis_gcc.h ****   \details Reverses the byte order in integer value.
 447:Drivers/CMSIS/Include/cmsis_gcc.h ****   \param [in]    value  Value to reverse
 448:Drivers/CMSIS/Include/cmsis_gcc.h ****   \return               Reversed value
 449:Drivers/CMSIS/Include/cmsis_gcc.h ****  */
 450:Drivers/CMSIS/Include/cmsis_gcc.h **** __attribute__((always_inline)) __STATIC_INLINE uint32_t __REV(uint32_t value)
 451:Drivers/CMSIS/Include/cmsis_gcc.h **** {
 452:Drivers/CMSIS/Include/cmsis_gcc.h **** #if (__GNUC__ > 4) || (__GNUC__ == 4 && __GNUC_MINOR__ >= 5)
 453:Drivers/CMSIS/Include/cmsis_gcc.h ****   return __builtin_bswap32(value);
 454:Drivers/CMSIS/Include/cmsis_gcc.h **** #else
 455:Drivers/CMSIS/Include/cmsis_gcc.h ****   uint32_t result;
 456:Drivers/CMSIS/Include/cmsis_gcc.h **** 
 457:Drivers/CMSIS/Include/cmsis_gcc.h ****   __ASM volatile ("rev %0, %1" : __CMSIS_GCC_OUT_REG (result) : __CMSIS_GCC_USE_REG (value) );
 458:Drivers/CMSIS/Include/cmsis_gcc.h ****   return(result);
 459:Drivers/CMSIS/Include/cmsis_gcc.h **** #endif
 460:Drivers/CMSIS/Include/cmsis_gcc.h **** }
 461:Drivers/CMSIS/Include/cmsis_gcc.h **** 
 462:Drivers/CMSIS/Include/cmsis_gcc.h **** 
 463:Drivers/CMSIS/Include/cmsis_gcc.h **** /**
 464:Drivers/CMSIS/Include/cmsis_gcc.h ****   \brief   Reverse byte order (16 bit)
 465:Drivers/CMSIS/Include/cmsis_gcc.h ****   \details Reverses the byte order in two unsigned short values.
 466:Drivers/CMSIS/Include/cmsis_gcc.h ****   \param [in]    value  Value to reverse
 467:Drivers/CMSIS/Include/cmsis_gcc.h ****   \return               Reversed value
 468:Drivers/CMSIS/Include/cmsis_gcc.h ****  */
 469:Drivers/CMSIS/Include/cmsis_gcc.h **** __attribute__((always_inline)) __STATIC_INLINE uint32_t __REV16(uint32_t value)
 470:Drivers/CMSIS/Include/cmsis_gcc.h **** {
 471:Drivers/CMSIS/Include/cmsis_gcc.h ****   uint32_t result;
 472:Drivers/CMSIS/Include/cmsis_gcc.h **** 
 473:Drivers/CMSIS/Include/cmsis_gcc.h ****   __ASM volatile ("rev16 %0, %1" : __CMSIS_GCC_OUT_REG (result) : __CMSIS_GCC_USE_REG (value) );
ARM GAS  /var/folders/0z/_3zh0q697778kwks4bv8s9bh0000gn/T//ccJVqLQz.s 			page 18


 474:Drivers/CMSIS/Include/cmsis_gcc.h ****   return(result);
 475:Drivers/CMSIS/Include/cmsis_gcc.h **** }
 476:Drivers/CMSIS/Include/cmsis_gcc.h **** 
 477:Drivers/CMSIS/Include/cmsis_gcc.h **** 
 478:Drivers/CMSIS/Include/cmsis_gcc.h **** /**
 479:Drivers/CMSIS/Include/cmsis_gcc.h ****   \brief   Reverse byte order in signed short value
 480:Drivers/CMSIS/Include/cmsis_gcc.h ****   \details Reverses the byte order in a signed short value with sign extension to integer.
 481:Drivers/CMSIS/Include/cmsis_gcc.h ****   \param [in]    value  Value to reverse
 482:Drivers/CMSIS/Include/cmsis_gcc.h ****   \return               Reversed value
 483:Drivers/CMSIS/Include/cmsis_gcc.h ****  */
 484:Drivers/CMSIS/Include/cmsis_gcc.h **** __attribute__((always_inline)) __STATIC_INLINE int32_t __REVSH(int32_t value)
 485:Drivers/CMSIS/Include/cmsis_gcc.h **** {
 486:Drivers/CMSIS/Include/cmsis_gcc.h **** #if (__GNUC__ > 4) || (__GNUC__ == 4 && __GNUC_MINOR__ >= 8)
 487:Drivers/CMSIS/Include/cmsis_gcc.h ****   return (short)__builtin_bswap16(value);
 488:Drivers/CMSIS/Include/cmsis_gcc.h **** #else
 489:Drivers/CMSIS/Include/cmsis_gcc.h ****   int32_t result;
 490:Drivers/CMSIS/Include/cmsis_gcc.h **** 
 491:Drivers/CMSIS/Include/cmsis_gcc.h ****   __ASM volatile ("revsh %0, %1" : __CMSIS_GCC_OUT_REG (result) : __CMSIS_GCC_USE_REG (value) );
 492:Drivers/CMSIS/Include/cmsis_gcc.h ****   return(result);
 493:Drivers/CMSIS/Include/cmsis_gcc.h **** #endif
 494:Drivers/CMSIS/Include/cmsis_gcc.h **** }
 495:Drivers/CMSIS/Include/cmsis_gcc.h **** 
 496:Drivers/CMSIS/Include/cmsis_gcc.h **** 
 497:Drivers/CMSIS/Include/cmsis_gcc.h **** /**
 498:Drivers/CMSIS/Include/cmsis_gcc.h ****   \brief   Rotate Right in unsigned value (32 bit)
 499:Drivers/CMSIS/Include/cmsis_gcc.h ****   \details Rotate Right (immediate) provides the value of the contents of a register rotated by a v
 500:Drivers/CMSIS/Include/cmsis_gcc.h ****   \param [in]    value  Value to rotate
 501:Drivers/CMSIS/Include/cmsis_gcc.h ****   \param [in]    value  Number of Bits to rotate
 502:Drivers/CMSIS/Include/cmsis_gcc.h ****   \return               Rotated value
 503:Drivers/CMSIS/Include/cmsis_gcc.h ****  */
 504:Drivers/CMSIS/Include/cmsis_gcc.h **** __attribute__((always_inline)) __STATIC_INLINE uint32_t __ROR(uint32_t op1, uint32_t op2)
 505:Drivers/CMSIS/Include/cmsis_gcc.h **** {
 506:Drivers/CMSIS/Include/cmsis_gcc.h ****   return (op1 >> op2) | (op1 << (32U - op2));
 507:Drivers/CMSIS/Include/cmsis_gcc.h **** }
 508:Drivers/CMSIS/Include/cmsis_gcc.h **** 
 509:Drivers/CMSIS/Include/cmsis_gcc.h **** 
 510:Drivers/CMSIS/Include/cmsis_gcc.h **** /**
 511:Drivers/CMSIS/Include/cmsis_gcc.h ****   \brief   Breakpoint
 512:Drivers/CMSIS/Include/cmsis_gcc.h ****   \details Causes the processor to enter Debug state.
 513:Drivers/CMSIS/Include/cmsis_gcc.h ****            Debug tools can use this to investigate system state when the instruction at a particula
 514:Drivers/CMSIS/Include/cmsis_gcc.h ****   \param [in]    value  is ignored by the processor.
 515:Drivers/CMSIS/Include/cmsis_gcc.h ****                  If required, a debugger can use it to store additional information about the break
 516:Drivers/CMSIS/Include/cmsis_gcc.h ****  */
 517:Drivers/CMSIS/Include/cmsis_gcc.h **** #define __BKPT(value)                       __ASM volatile ("bkpt "#value)
 518:Drivers/CMSIS/Include/cmsis_gcc.h **** 
 519:Drivers/CMSIS/Include/cmsis_gcc.h **** 
 520:Drivers/CMSIS/Include/cmsis_gcc.h **** /**
 521:Drivers/CMSIS/Include/cmsis_gcc.h ****   \brief   Reverse bit order of value
 522:Drivers/CMSIS/Include/cmsis_gcc.h ****   \details Reverses the bit order of the given value.
 523:Drivers/CMSIS/Include/cmsis_gcc.h ****   \param [in]    value  Value to reverse
 524:Drivers/CMSIS/Include/cmsis_gcc.h ****   \return               Reversed value
 525:Drivers/CMSIS/Include/cmsis_gcc.h ****  */
 526:Drivers/CMSIS/Include/cmsis_gcc.h **** __attribute__((always_inline)) __STATIC_INLINE uint32_t __RBIT(uint32_t value)
 527:Drivers/CMSIS/Include/cmsis_gcc.h **** {
 528:Drivers/CMSIS/Include/cmsis_gcc.h ****   uint32_t result;
 529:Drivers/CMSIS/Include/cmsis_gcc.h **** 
 530:Drivers/CMSIS/Include/cmsis_gcc.h **** #if       (__CORTEX_M >= 0x03U) || (__CORTEX_SC >= 300U)
ARM GAS  /var/folders/0z/_3zh0q697778kwks4bv8s9bh0000gn/T//ccJVqLQz.s 			page 19


 531:Drivers/CMSIS/Include/cmsis_gcc.h ****    __ASM volatile ("rbit %0, %1" : "=r" (result) : "r" (value) );
 210              		.loc 2 531 0 is_stmt 1
 211 004e D7F8F431 		ldr	r3, [r7, #500]
 212              	@ 531 "Drivers/CMSIS/Include/cmsis_gcc.h" 1
 213 0052 93FAA3F3 		rbit r3, r3
 214              	@ 0 "" 2
 215              		.thumb
 216 0056 C7F8F031 		str	r3, [r7, #496]
 532:Drivers/CMSIS/Include/cmsis_gcc.h **** #else
 533:Drivers/CMSIS/Include/cmsis_gcc.h ****   int32_t s = 4 /*sizeof(v)*/ * 8 - 1; /* extra shift needed at end */
 534:Drivers/CMSIS/Include/cmsis_gcc.h **** 
 535:Drivers/CMSIS/Include/cmsis_gcc.h ****   result = value;                      /* r will be reversed bits of v; first get LSB of v */
 536:Drivers/CMSIS/Include/cmsis_gcc.h ****   for (value >>= 1U; value; value >>= 1U)
 537:Drivers/CMSIS/Include/cmsis_gcc.h ****   {
 538:Drivers/CMSIS/Include/cmsis_gcc.h ****     result <<= 1U;
 539:Drivers/CMSIS/Include/cmsis_gcc.h ****     result |= value & 1U;
 540:Drivers/CMSIS/Include/cmsis_gcc.h ****     s--;
 541:Drivers/CMSIS/Include/cmsis_gcc.h ****   }
 542:Drivers/CMSIS/Include/cmsis_gcc.h ****   result <<= s;                        /* shift when v's highest bits are zero */
 543:Drivers/CMSIS/Include/cmsis_gcc.h **** #endif
 544:Drivers/CMSIS/Include/cmsis_gcc.h ****   return(result);
 217              		.loc 2 544 0
 218 005a D7F8F031 		ldr	r3, [r7, #496]
 219              	.LBE167:
 220              	.LBE166:
 295:Drivers/STM32F3xx_HAL_Driver/Src/stm32f3xx_hal_rcc.c ****     {
 296:Drivers/STM32F3xx_HAL_Driver/Src/stm32f3xx_hal_rcc.c ****       if((__HAL_RCC_GET_FLAG(RCC_FLAG_HSERDY) != RESET) && (RCC_OscInitStruct->HSEState == RCC_HSE_
 221              		.loc 1 296 0
 222 005e B3FA83F3 		clz	r3, r3
 223 0062 DBB2     		uxtb	r3, r3
 224 0064 43F02003 		orr	r3, r3, #32
 225 0068 DBB2     		uxtb	r3, r3
 226 006a DBB2     		uxtb	r3, r3
 227 006c 5B09     		lsrs	r3, r3, #5
 228 006e DBB2     		uxtb	r3, r3
 229 0070 012B     		cmp	r3, #1
 230 0072 02D1     		bne	.L9
 231              		.loc 1 296 0 is_stmt 0 discriminator 1
 232 0074 994B     		ldr	r3, .L197
 233 0076 1B68     		ldr	r3, [r3]
 234 0078 35E0     		b	.L10
 235              	.L9:
 236 007a 4FF40033 		mov	r3, #131072
 237 007e C7F8EC31 		str	r3, [r7, #492]
 238              	.LBB168:
 239              	.LBB169:
 531:Drivers/CMSIS/Include/cmsis_gcc.h **** #else
 240              		.loc 2 531 0 is_stmt 1 discriminator 2
 241 0082 D7F8EC31 		ldr	r3, [r7, #492]
 242              	@ 531 "Drivers/CMSIS/Include/cmsis_gcc.h" 1
 243 0086 93FAA3F3 		rbit r3, r3
 244              	@ 0 "" 2
 245              		.thumb
 246 008a C7F8E831 		str	r3, [r7, #488]
 247              		.loc 2 544 0 discriminator 2
 248 008e D7F8E831 		ldr	r3, [r7, #488]
 249              	.LBE169:
ARM GAS  /var/folders/0z/_3zh0q697778kwks4bv8s9bh0000gn/T//ccJVqLQz.s 			page 20


 250              	.LBE168:
 251              		.loc 1 296 0 discriminator 2
 252 0092 B3FA83F3 		clz	r3, r3
 253 0096 DBB2     		uxtb	r3, r3
 254 0098 43F02003 		orr	r3, r3, #32
 255 009c DBB2     		uxtb	r3, r3
 256 009e DBB2     		uxtb	r3, r3
 257 00a0 5B09     		lsrs	r3, r3, #5
 258 00a2 DBB2     		uxtb	r3, r3
 259 00a4 022B     		cmp	r3, #2
 260 00a6 02D1     		bne	.L12
 261              		.loc 1 296 0 is_stmt 0 discriminator 4
 262 00a8 8C4B     		ldr	r3, .L197
 263 00aa 1B6A     		ldr	r3, [r3, #32]
 264 00ac 1BE0     		b	.L10
 265              	.L12:
 266 00ae 4FF40033 		mov	r3, #131072
 267 00b2 C7F8E431 		str	r3, [r7, #484]
 268              	.LBB170:
 269              	.LBB171:
 531:Drivers/CMSIS/Include/cmsis_gcc.h **** #else
 270              		.loc 2 531 0 is_stmt 1 discriminator 5
 271 00b6 D7F8E431 		ldr	r3, [r7, #484]
 272              	@ 531 "Drivers/CMSIS/Include/cmsis_gcc.h" 1
 273 00ba 93FAA3F3 		rbit r3, r3
 274              	@ 0 "" 2
 275              		.thumb
 276 00be C7F8E031 		str	r3, [r7, #480]
 277              		.loc 2 544 0 discriminator 5
 278 00c2 D7F8E031 		ldr	r3, [r7, #480]
 279              	.LBE171:
 280              	.LBE170:
 281              		.loc 1 296 0 discriminator 5
 282 00c6 B3FA83F3 		clz	r3, r3
 283 00ca DBB2     		uxtb	r3, r3
 284 00cc 43F02003 		orr	r3, r3, #32
 285 00d0 DBB2     		uxtb	r3, r3
 286 00d2 DBB2     		uxtb	r3, r3
 287 00d4 5B09     		lsrs	r3, r3, #5
 288 00d6 DBB2     		uxtb	r3, r3
 289 00d8 042B     		cmp	r3, #4
 290 00da 02D1     		bne	.L15
 291              		.loc 1 296 0 is_stmt 0 discriminator 7
 292 00dc 7F4B     		ldr	r3, .L197
 293 00de 5B68     		ldr	r3, [r3, #4]
 294 00e0 01E0     		b	.L10
 295              	.L15:
 296              		.loc 1 296 0 discriminator 8
 297 00e2 7E4B     		ldr	r3, .L197
 298 00e4 5B6A     		ldr	r3, [r3, #36]
 299              	.L10:
 300 00e6 4FF40032 		mov	r2, #131072
 301 00ea C7F8DC21 		str	r2, [r7, #476]
 302              	.LBB172:
 303              	.LBB173:
 531:Drivers/CMSIS/Include/cmsis_gcc.h **** #else
 304              		.loc 2 531 0 is_stmt 1 discriminator 12
ARM GAS  /var/folders/0z/_3zh0q697778kwks4bv8s9bh0000gn/T//ccJVqLQz.s 			page 21


 305 00ee D7F8DC21 		ldr	r2, [r7, #476]
 306              	@ 531 "Drivers/CMSIS/Include/cmsis_gcc.h" 1
 307 00f2 92FAA2F2 		rbit r2, r2
 308              	@ 0 "" 2
 309              		.thumb
 310 00f6 C7F8D821 		str	r2, [r7, #472]
 311              		.loc 2 544 0 discriminator 12
 312 00fa D7F8D821 		ldr	r2, [r7, #472]
 313              	.LBE173:
 314              	.LBE172:
 315              		.loc 1 296 0 discriminator 12
 316 00fe B2FA82F2 		clz	r2, r2
 317 0102 D2B2     		uxtb	r2, r2
 318 0104 42F02002 		orr	r2, r2, #32
 319 0108 D2B2     		uxtb	r2, r2
 320 010a D2B2     		uxtb	r2, r2
 321 010c 02F01F02 		and	r2, r2, #31
 322 0110 D340     		lsrs	r3, r3, r2
 323 0112 03F00103 		and	r3, r3, #1
 324 0116 002B     		cmp	r3, #0
 325 0118 07D0     		beq	.L18
 326              		.loc 1 296 0 is_stmt 0 discriminator 13
 327 011a 3B1D     		adds	r3, r7, #4
 328 011c 1B68     		ldr	r3, [r3]
 329 011e 5B68     		ldr	r3, [r3, #4]
 330 0120 002B     		cmp	r3, #0
 331 0122 02D1     		bne	.L18
 297:Drivers/STM32F3xx_HAL_Driver/Src/stm32f3xx_hal_rcc.c ****       {
 298:Drivers/STM32F3xx_HAL_Driver/Src/stm32f3xx_hal_rcc.c ****         return HAL_ERROR;
 332              		.loc 1 298 0 is_stmt 1
 333 0124 0123     		movs	r3, #1
 334 0126 01F026B8 		b	.L19
 335              	.L18:
 296:Drivers/STM32F3xx_HAL_Driver/Src/stm32f3xx_hal_rcc.c ****       {
 336              		.loc 1 296 0
 337 012a 43E1     		b	.L5
 338              	.L7:
 299:Drivers/STM32F3xx_HAL_Driver/Src/stm32f3xx_hal_rcc.c ****       }
 300:Drivers/STM32F3xx_HAL_Driver/Src/stm32f3xx_hal_rcc.c ****     }
 301:Drivers/STM32F3xx_HAL_Driver/Src/stm32f3xx_hal_rcc.c ****     else
 302:Drivers/STM32F3xx_HAL_Driver/Src/stm32f3xx_hal_rcc.c ****     {
 303:Drivers/STM32F3xx_HAL_Driver/Src/stm32f3xx_hal_rcc.c ****       /* Set the new HSE configuration ---------------------------------------*/
 304:Drivers/STM32F3xx_HAL_Driver/Src/stm32f3xx_hal_rcc.c ****       __HAL_RCC_HSE_CONFIG(RCC_OscInitStruct->HSEState);
 339              		.loc 1 304 0
 340 012c 3B1D     		adds	r3, r7, #4
 341 012e 1B68     		ldr	r3, [r3]
 342 0130 5B68     		ldr	r3, [r3, #4]
 343 0132 B3F5803F 		cmp	r3, #65536
 344 0136 06D1     		bne	.L20
 345              		.loc 1 304 0 is_stmt 0 discriminator 1
 346 0138 684A     		ldr	r2, .L197
 347 013a 684B     		ldr	r3, .L197
 348 013c 1B68     		ldr	r3, [r3]
 349 013e 43F48033 		orr	r3, r3, #65536
 350 0142 1360     		str	r3, [r2]
 351 0144 30E0     		b	.L21
 352              	.L20:
ARM GAS  /var/folders/0z/_3zh0q697778kwks4bv8s9bh0000gn/T//ccJVqLQz.s 			page 22


 353              		.loc 1 304 0 discriminator 2
 354 0146 3B1D     		adds	r3, r7, #4
 355 0148 1B68     		ldr	r3, [r3]
 356 014a 5B68     		ldr	r3, [r3, #4]
 357 014c 002B     		cmp	r3, #0
 358 014e 0CD1     		bne	.L22
 359              		.loc 1 304 0 discriminator 3
 360 0150 624A     		ldr	r2, .L197
 361 0152 624B     		ldr	r3, .L197
 362 0154 1B68     		ldr	r3, [r3]
 363 0156 23F48033 		bic	r3, r3, #65536
 364 015a 1360     		str	r3, [r2]
 365 015c 5F4A     		ldr	r2, .L197
 366 015e 5F4B     		ldr	r3, .L197
 367 0160 1B68     		ldr	r3, [r3]
 368 0162 23F48023 		bic	r3, r3, #262144
 369 0166 1360     		str	r3, [r2]
 370 0168 1EE0     		b	.L21
 371              	.L22:
 372              		.loc 1 304 0 discriminator 4
 373 016a 3B1D     		adds	r3, r7, #4
 374 016c 1B68     		ldr	r3, [r3]
 375 016e 5B68     		ldr	r3, [r3, #4]
 376 0170 B3F5A02F 		cmp	r3, #327680
 377 0174 0CD1     		bne	.L23
 378              		.loc 1 304 0 discriminator 5
 379 0176 594A     		ldr	r2, .L197
 380 0178 584B     		ldr	r3, .L197
 381 017a 1B68     		ldr	r3, [r3]
 382 017c 43F48023 		orr	r3, r3, #262144
 383 0180 1360     		str	r3, [r2]
 384 0182 564A     		ldr	r2, .L197
 385 0184 554B     		ldr	r3, .L197
 386 0186 1B68     		ldr	r3, [r3]
 387 0188 43F48033 		orr	r3, r3, #65536
 388 018c 1360     		str	r3, [r2]
 389 018e 0BE0     		b	.L21
 390              	.L23:
 391              		.loc 1 304 0 discriminator 6
 392 0190 524A     		ldr	r2, .L197
 393 0192 524B     		ldr	r3, .L197
 394 0194 1B68     		ldr	r3, [r3]
 395 0196 23F48033 		bic	r3, r3, #65536
 396 019a 1360     		str	r3, [r2]
 397 019c 4F4A     		ldr	r2, .L197
 398 019e 4F4B     		ldr	r3, .L197
 399 01a0 1B68     		ldr	r3, [r3]
 400 01a2 23F48023 		bic	r3, r3, #262144
 401 01a6 1360     		str	r3, [r2]
 402              	.L21:
 305:Drivers/STM32F3xx_HAL_Driver/Src/stm32f3xx_hal_rcc.c ****       
 306:Drivers/STM32F3xx_HAL_Driver/Src/stm32f3xx_hal_rcc.c **** #if defined(RCC_CFGR_PLLSRC_HSI_DIV2)
 307:Drivers/STM32F3xx_HAL_Driver/Src/stm32f3xx_hal_rcc.c ****       /* Configure the HSE predivision factor --------------------------------*/
 308:Drivers/STM32F3xx_HAL_Driver/Src/stm32f3xx_hal_rcc.c ****       __HAL_RCC_HSE_PREDIV_CONFIG(RCC_OscInitStruct->HSEPredivValue);
 403              		.loc 1 308 0 is_stmt 1
 404 01a8 4C49     		ldr	r1, .L197
 405 01aa 4C4B     		ldr	r3, .L197
ARM GAS  /var/folders/0z/_3zh0q697778kwks4bv8s9bh0000gn/T//ccJVqLQz.s 			page 23


 406 01ac DB6A     		ldr	r3, [r3, #44]
 407 01ae 23F00F02 		bic	r2, r3, #15
 408 01b2 3B1D     		adds	r3, r7, #4
 409 01b4 1B68     		ldr	r3, [r3]
 410 01b6 9B68     		ldr	r3, [r3, #8]
 411 01b8 1343     		orrs	r3, r3, r2
 412 01ba CB62     		str	r3, [r1, #44]
 309:Drivers/STM32F3xx_HAL_Driver/Src/stm32f3xx_hal_rcc.c **** #endif /* RCC_CFGR_PLLSRC_HSI_DIV2 */
 310:Drivers/STM32F3xx_HAL_Driver/Src/stm32f3xx_hal_rcc.c **** 
 311:Drivers/STM32F3xx_HAL_Driver/Src/stm32f3xx_hal_rcc.c ****        /* Check the HSE State */
 312:Drivers/STM32F3xx_HAL_Driver/Src/stm32f3xx_hal_rcc.c ****       if(RCC_OscInitStruct->HSEState != RCC_HSE_OFF)
 413              		.loc 1 312 0
 414 01bc 3B1D     		adds	r3, r7, #4
 415 01be 1B68     		ldr	r3, [r3]
 416 01c0 5B68     		ldr	r3, [r3, #4]
 417 01c2 002B     		cmp	r3, #0
 418 01c4 7AD0     		beq	.L24
 313:Drivers/STM32F3xx_HAL_Driver/Src/stm32f3xx_hal_rcc.c ****       {
 314:Drivers/STM32F3xx_HAL_Driver/Src/stm32f3xx_hal_rcc.c ****         /* Get Start Tick */
 315:Drivers/STM32F3xx_HAL_Driver/Src/stm32f3xx_hal_rcc.c ****         tickstart = HAL_GetTick();
 419              		.loc 1 315 0
 420 01c6 FFF7FEFF 		bl	HAL_GetTick
 421 01ca C7F8F801 		str	r0, [r7, #504]
 316:Drivers/STM32F3xx_HAL_Driver/Src/stm32f3xx_hal_rcc.c ****         
 317:Drivers/STM32F3xx_HAL_Driver/Src/stm32f3xx_hal_rcc.c ****         /* Wait till HSE is ready */
 318:Drivers/STM32F3xx_HAL_Driver/Src/stm32f3xx_hal_rcc.c ****         while(__HAL_RCC_GET_FLAG(RCC_FLAG_HSERDY) == RESET)
 422              		.loc 1 318 0
 423 01ce 0AE0     		b	.L25
 424              	.L36:
 319:Drivers/STM32F3xx_HAL_Driver/Src/stm32f3xx_hal_rcc.c ****         {
 320:Drivers/STM32F3xx_HAL_Driver/Src/stm32f3xx_hal_rcc.c ****           if((HAL_GetTick() - tickstart ) > HSE_TIMEOUT_VALUE)
 425              		.loc 1 320 0
 426 01d0 FFF7FEFF 		bl	HAL_GetTick
 427 01d4 0246     		mov	r2, r0
 428 01d6 D7F8F831 		ldr	r3, [r7, #504]
 429 01da D31A     		subs	r3, r2, r3
 430 01dc 642B     		cmp	r3, #100
 431 01de 02D9     		bls	.L25
 321:Drivers/STM32F3xx_HAL_Driver/Src/stm32f3xx_hal_rcc.c ****           {
 322:Drivers/STM32F3xx_HAL_Driver/Src/stm32f3xx_hal_rcc.c ****             return HAL_TIMEOUT;
 432              		.loc 1 322 0
 433 01e0 0323     		movs	r3, #3
 434 01e2 00F0C8BF 		b	.L19
 435              	.L25:
 436 01e6 4FF40033 		mov	r3, #131072
 437 01ea C7F8D431 		str	r3, [r7, #468]
 438              	.LBB174:
 439              	.LBB175:
 531:Drivers/CMSIS/Include/cmsis_gcc.h **** #else
 440              		.loc 2 531 0
 441 01ee D7F8D431 		ldr	r3, [r7, #468]
 442              	@ 531 "Drivers/CMSIS/Include/cmsis_gcc.h" 1
 443 01f2 93FAA3F3 		rbit r3, r3
 444              	@ 0 "" 2
 445              		.thumb
 446 01f6 C7F8D031 		str	r3, [r7, #464]
 447              		.loc 2 544 0
ARM GAS  /var/folders/0z/_3zh0q697778kwks4bv8s9bh0000gn/T//ccJVqLQz.s 			page 24


 448 01fa D7F8D031 		ldr	r3, [r7, #464]
 449              	.LBE175:
 450              	.LBE174:
 318:Drivers/STM32F3xx_HAL_Driver/Src/stm32f3xx_hal_rcc.c ****         {
 451              		.loc 1 318 0
 452 01fe B3FA83F3 		clz	r3, r3
 453 0202 DBB2     		uxtb	r3, r3
 454 0204 43F02003 		orr	r3, r3, #32
 455 0208 DBB2     		uxtb	r3, r3
 456 020a DBB2     		uxtb	r3, r3
 457 020c 5B09     		lsrs	r3, r3, #5
 458 020e DBB2     		uxtb	r3, r3
 459 0210 012B     		cmp	r3, #1
 460 0212 02D1     		bne	.L27
 318:Drivers/STM32F3xx_HAL_Driver/Src/stm32f3xx_hal_rcc.c ****         {
 461              		.loc 1 318 0 is_stmt 0 discriminator 1
 462 0214 314B     		ldr	r3, .L197
 463 0216 1B68     		ldr	r3, [r3]
 464 0218 35E0     		b	.L28
 465              	.L27:
 466 021a 4FF40033 		mov	r3, #131072
 467 021e C7F8CC31 		str	r3, [r7, #460]
 468              	.LBB176:
 469              	.LBB177:
 531:Drivers/CMSIS/Include/cmsis_gcc.h **** #else
 470              		.loc 2 531 0 is_stmt 1 discriminator 2
 471 0222 D7F8CC31 		ldr	r3, [r7, #460]
 472              	@ 531 "Drivers/CMSIS/Include/cmsis_gcc.h" 1
 473 0226 93FAA3F3 		rbit r3, r3
 474              	@ 0 "" 2
 475              		.thumb
 476 022a C7F8C831 		str	r3, [r7, #456]
 477              		.loc 2 544 0 discriminator 2
 478 022e D7F8C831 		ldr	r3, [r7, #456]
 479              	.LBE177:
 480              	.LBE176:
 318:Drivers/STM32F3xx_HAL_Driver/Src/stm32f3xx_hal_rcc.c ****         {
 481              		.loc 1 318 0 discriminator 2
 482 0232 B3FA83F3 		clz	r3, r3
 483 0236 DBB2     		uxtb	r3, r3
 484 0238 43F02003 		orr	r3, r3, #32
 485 023c DBB2     		uxtb	r3, r3
 486 023e DBB2     		uxtb	r3, r3
 487 0240 5B09     		lsrs	r3, r3, #5
 488 0242 DBB2     		uxtb	r3, r3
 489 0244 022B     		cmp	r3, #2
 490 0246 02D1     		bne	.L30
 318:Drivers/STM32F3xx_HAL_Driver/Src/stm32f3xx_hal_rcc.c ****         {
 491              		.loc 1 318 0 is_stmt 0 discriminator 4
 492 0248 244B     		ldr	r3, .L197
 493 024a 1B6A     		ldr	r3, [r3, #32]
 494 024c 1BE0     		b	.L28
 495              	.L30:
 496 024e 4FF40033 		mov	r3, #131072
 497 0252 C7F8C431 		str	r3, [r7, #452]
 498              	.LBB178:
 499              	.LBB179:
ARM GAS  /var/folders/0z/_3zh0q697778kwks4bv8s9bh0000gn/T//ccJVqLQz.s 			page 25


 531:Drivers/CMSIS/Include/cmsis_gcc.h **** #else
 500              		.loc 2 531 0 is_stmt 1 discriminator 5
 501 0256 D7F8C431 		ldr	r3, [r7, #452]
 502              	@ 531 "Drivers/CMSIS/Include/cmsis_gcc.h" 1
 503 025a 93FAA3F3 		rbit r3, r3
 504              	@ 0 "" 2
 505              		.thumb
 506 025e C7F8C031 		str	r3, [r7, #448]
 507              		.loc 2 544 0 discriminator 5
 508 0262 D7F8C031 		ldr	r3, [r7, #448]
 509              	.LBE179:
 510              	.LBE178:
 318:Drivers/STM32F3xx_HAL_Driver/Src/stm32f3xx_hal_rcc.c ****         {
 511              		.loc 1 318 0 discriminator 5
 512 0266 B3FA83F3 		clz	r3, r3
 513 026a DBB2     		uxtb	r3, r3
 514 026c 43F02003 		orr	r3, r3, #32
 515 0270 DBB2     		uxtb	r3, r3
 516 0272 DBB2     		uxtb	r3, r3
 517 0274 5B09     		lsrs	r3, r3, #5
 518 0276 DBB2     		uxtb	r3, r3
 519 0278 042B     		cmp	r3, #4
 520 027a 02D1     		bne	.L33
 318:Drivers/STM32F3xx_HAL_Driver/Src/stm32f3xx_hal_rcc.c ****         {
 521              		.loc 1 318 0 is_stmt 0 discriminator 7
 522 027c 174B     		ldr	r3, .L197
 523 027e 5B68     		ldr	r3, [r3, #4]
 524 0280 01E0     		b	.L28
 525              	.L33:
 318:Drivers/STM32F3xx_HAL_Driver/Src/stm32f3xx_hal_rcc.c ****         {
 526              		.loc 1 318 0 discriminator 8
 527 0282 164B     		ldr	r3, .L197
 528 0284 5B6A     		ldr	r3, [r3, #36]
 529              	.L28:
 530 0286 4FF40032 		mov	r2, #131072
 531 028a C7F8BC21 		str	r2, [r7, #444]
 532              	.LBB180:
 533              	.LBB181:
 531:Drivers/CMSIS/Include/cmsis_gcc.h **** #else
 534              		.loc 2 531 0 is_stmt 1 discriminator 12
 535 028e D7F8BC21 		ldr	r2, [r7, #444]
 536              	@ 531 "Drivers/CMSIS/Include/cmsis_gcc.h" 1
 537 0292 92FAA2F2 		rbit r2, r2
 538              	@ 0 "" 2
 539              		.thumb
 540 0296 C7F8B821 		str	r2, [r7, #440]
 541              		.loc 2 544 0 discriminator 12
 542 029a D7F8B821 		ldr	r2, [r7, #440]
 543              	.LBE181:
 544              	.LBE180:
 318:Drivers/STM32F3xx_HAL_Driver/Src/stm32f3xx_hal_rcc.c ****         {
 545              		.loc 1 318 0 discriminator 12
 546 029e B2FA82F2 		clz	r2, r2
 547 02a2 D2B2     		uxtb	r2, r2
 548 02a4 42F02002 		orr	r2, r2, #32
 549 02a8 D2B2     		uxtb	r2, r2
 550 02aa D2B2     		uxtb	r2, r2
ARM GAS  /var/folders/0z/_3zh0q697778kwks4bv8s9bh0000gn/T//ccJVqLQz.s 			page 26


 551 02ac 02F01F02 		and	r2, r2, #31
 552 02b0 D340     		lsrs	r3, r3, r2
 553 02b2 03F00103 		and	r3, r3, #1
 554 02b6 002B     		cmp	r3, #0
 555 02b8 8AD0     		beq	.L36
 556 02ba 7BE0     		b	.L5
 557              	.L24:
 323:Drivers/STM32F3xx_HAL_Driver/Src/stm32f3xx_hal_rcc.c ****           }
 324:Drivers/STM32F3xx_HAL_Driver/Src/stm32f3xx_hal_rcc.c ****         }
 325:Drivers/STM32F3xx_HAL_Driver/Src/stm32f3xx_hal_rcc.c ****       }
 326:Drivers/STM32F3xx_HAL_Driver/Src/stm32f3xx_hal_rcc.c ****       else
 327:Drivers/STM32F3xx_HAL_Driver/Src/stm32f3xx_hal_rcc.c ****       {
 328:Drivers/STM32F3xx_HAL_Driver/Src/stm32f3xx_hal_rcc.c ****         /* Get Start Tick */
 329:Drivers/STM32F3xx_HAL_Driver/Src/stm32f3xx_hal_rcc.c ****         tickstart = HAL_GetTick();
 558              		.loc 1 329 0
 559 02bc FFF7FEFF 		bl	HAL_GetTick
 560 02c0 C7F8F801 		str	r0, [r7, #504]
 330:Drivers/STM32F3xx_HAL_Driver/Src/stm32f3xx_hal_rcc.c ****         
 331:Drivers/STM32F3xx_HAL_Driver/Src/stm32f3xx_hal_rcc.c ****         /* Wait till HSE is disabled */
 332:Drivers/STM32F3xx_HAL_Driver/Src/stm32f3xx_hal_rcc.c ****         while(__HAL_RCC_GET_FLAG(RCC_FLAG_HSERDY) != RESET)
 561              		.loc 1 332 0
 562 02c4 0CE0     		b	.L37
 563              	.L48:
 333:Drivers/STM32F3xx_HAL_Driver/Src/stm32f3xx_hal_rcc.c ****         {
 334:Drivers/STM32F3xx_HAL_Driver/Src/stm32f3xx_hal_rcc.c ****            if((HAL_GetTick() - tickstart ) > HSE_TIMEOUT_VALUE)
 564              		.loc 1 334 0
 565 02c6 FFF7FEFF 		bl	HAL_GetTick
 566 02ca 0246     		mov	r2, r0
 567 02cc D7F8F831 		ldr	r3, [r7, #504]
 568 02d0 D31A     		subs	r3, r2, r3
 569 02d2 642B     		cmp	r3, #100
 570 02d4 04D9     		bls	.L37
 335:Drivers/STM32F3xx_HAL_Driver/Src/stm32f3xx_hal_rcc.c ****           {
 336:Drivers/STM32F3xx_HAL_Driver/Src/stm32f3xx_hal_rcc.c ****             return HAL_TIMEOUT;
 571              		.loc 1 336 0
 572 02d6 0323     		movs	r3, #3
 573 02d8 00F04DBF 		b	.L19
 574              	.L198:
 575              		.align	2
 576              	.L197:
 577 02dc 00100240 		.word	1073876992
 578              	.L37:
 579 02e0 4FF40033 		mov	r3, #131072
 580 02e4 C7F8B431 		str	r3, [r7, #436]
 581              	.LBB182:
 582              	.LBB183:
 531:Drivers/CMSIS/Include/cmsis_gcc.h **** #else
 583              		.loc 2 531 0
 584 02e8 D7F8B431 		ldr	r3, [r7, #436]
 585              	@ 531 "Drivers/CMSIS/Include/cmsis_gcc.h" 1
 586 02ec 93FAA3F3 		rbit r3, r3
 587              	@ 0 "" 2
 588              		.thumb
 589 02f0 C7F8B031 		str	r3, [r7, #432]
 590              		.loc 2 544 0
 591 02f4 D7F8B031 		ldr	r3, [r7, #432]
 592              	.LBE183:
ARM GAS  /var/folders/0z/_3zh0q697778kwks4bv8s9bh0000gn/T//ccJVqLQz.s 			page 27


 593              	.LBE182:
 332:Drivers/STM32F3xx_HAL_Driver/Src/stm32f3xx_hal_rcc.c ****         {
 594              		.loc 1 332 0
 595 02f8 B3FA83F3 		clz	r3, r3
 596 02fc DBB2     		uxtb	r3, r3
 597 02fe 43F02003 		orr	r3, r3, #32
 598 0302 DBB2     		uxtb	r3, r3
 599 0304 DBB2     		uxtb	r3, r3
 600 0306 5B09     		lsrs	r3, r3, #5
 601 0308 DBB2     		uxtb	r3, r3
 602 030a 012B     		cmp	r3, #1
 603 030c 02D1     		bne	.L39
 332:Drivers/STM32F3xx_HAL_Driver/Src/stm32f3xx_hal_rcc.c ****         {
 604              		.loc 1 332 0 is_stmt 0 discriminator 1
 605 030e B64B     		ldr	r3, .L199
 606 0310 1B68     		ldr	r3, [r3]
 607 0312 35E0     		b	.L40
 608              	.L39:
 609 0314 4FF40033 		mov	r3, #131072
 610 0318 C7F8AC31 		str	r3, [r7, #428]
 611              	.LBB184:
 612              	.LBB185:
 531:Drivers/CMSIS/Include/cmsis_gcc.h **** #else
 613              		.loc 2 531 0 is_stmt 1 discriminator 2
 614 031c D7F8AC31 		ldr	r3, [r7, #428]
 615              	@ 531 "Drivers/CMSIS/Include/cmsis_gcc.h" 1
 616 0320 93FAA3F3 		rbit r3, r3
 617              	@ 0 "" 2
 618              		.thumb
 619 0324 C7F8A831 		str	r3, [r7, #424]
 620              		.loc 2 544 0 discriminator 2
 621 0328 D7F8A831 		ldr	r3, [r7, #424]
 622              	.LBE185:
 623              	.LBE184:
 332:Drivers/STM32F3xx_HAL_Driver/Src/stm32f3xx_hal_rcc.c ****         {
 624              		.loc 1 332 0 discriminator 2
 625 032c B3FA83F3 		clz	r3, r3
 626 0330 DBB2     		uxtb	r3, r3
 627 0332 43F02003 		orr	r3, r3, #32
 628 0336 DBB2     		uxtb	r3, r3
 629 0338 DBB2     		uxtb	r3, r3
 630 033a 5B09     		lsrs	r3, r3, #5
 631 033c DBB2     		uxtb	r3, r3
 632 033e 022B     		cmp	r3, #2
 633 0340 02D1     		bne	.L42
 332:Drivers/STM32F3xx_HAL_Driver/Src/stm32f3xx_hal_rcc.c ****         {
 634              		.loc 1 332 0 is_stmt 0 discriminator 4
 635 0342 A94B     		ldr	r3, .L199
 636 0344 1B6A     		ldr	r3, [r3, #32]
 637 0346 1BE0     		b	.L40
 638              	.L42:
 639 0348 4FF40033 		mov	r3, #131072
 640 034c C7F8A431 		str	r3, [r7, #420]
 641              	.LBB186:
 642              	.LBB187:
 531:Drivers/CMSIS/Include/cmsis_gcc.h **** #else
 643              		.loc 2 531 0 is_stmt 1 discriminator 5
ARM GAS  /var/folders/0z/_3zh0q697778kwks4bv8s9bh0000gn/T//ccJVqLQz.s 			page 28


 644 0350 D7F8A431 		ldr	r3, [r7, #420]
 645              	@ 531 "Drivers/CMSIS/Include/cmsis_gcc.h" 1
 646 0354 93FAA3F3 		rbit r3, r3
 647              	@ 0 "" 2
 648              		.thumb
 649 0358 C7F8A031 		str	r3, [r7, #416]
 650              		.loc 2 544 0 discriminator 5
 651 035c D7F8A031 		ldr	r3, [r7, #416]
 652              	.LBE187:
 653              	.LBE186:
 332:Drivers/STM32F3xx_HAL_Driver/Src/stm32f3xx_hal_rcc.c ****         {
 654              		.loc 1 332 0 discriminator 5
 655 0360 B3FA83F3 		clz	r3, r3
 656 0364 DBB2     		uxtb	r3, r3
 657 0366 43F02003 		orr	r3, r3, #32
 658 036a DBB2     		uxtb	r3, r3
 659 036c DBB2     		uxtb	r3, r3
 660 036e 5B09     		lsrs	r3, r3, #5
 661 0370 DBB2     		uxtb	r3, r3
 662 0372 042B     		cmp	r3, #4
 663 0374 02D1     		bne	.L45
 332:Drivers/STM32F3xx_HAL_Driver/Src/stm32f3xx_hal_rcc.c ****         {
 664              		.loc 1 332 0 is_stmt 0 discriminator 7
 665 0376 9C4B     		ldr	r3, .L199
 666 0378 5B68     		ldr	r3, [r3, #4]
 667 037a 01E0     		b	.L40
 668              	.L45:
 332:Drivers/STM32F3xx_HAL_Driver/Src/stm32f3xx_hal_rcc.c ****         {
 669              		.loc 1 332 0 discriminator 8
 670 037c 9A4B     		ldr	r3, .L199
 671 037e 5B6A     		ldr	r3, [r3, #36]
 672              	.L40:
 673 0380 4FF40032 		mov	r2, #131072
 674 0384 C7F89C21 		str	r2, [r7, #412]
 675              	.LBB188:
 676              	.LBB189:
 531:Drivers/CMSIS/Include/cmsis_gcc.h **** #else
 677              		.loc 2 531 0 is_stmt 1 discriminator 12
 678 0388 D7F89C21 		ldr	r2, [r7, #412]
 679              	@ 531 "Drivers/CMSIS/Include/cmsis_gcc.h" 1
 680 038c 92FAA2F2 		rbit r2, r2
 681              	@ 0 "" 2
 682              		.thumb
 683 0390 C7F89821 		str	r2, [r7, #408]
 684              		.loc 2 544 0 discriminator 12
 685 0394 D7F89821 		ldr	r2, [r7, #408]
 686              	.LBE189:
 687              	.LBE188:
 332:Drivers/STM32F3xx_HAL_Driver/Src/stm32f3xx_hal_rcc.c ****         {
 688              		.loc 1 332 0 discriminator 12
 689 0398 B2FA82F2 		clz	r2, r2
 690 039c D2B2     		uxtb	r2, r2
 691 039e 42F02002 		orr	r2, r2, #32
 692 03a2 D2B2     		uxtb	r2, r2
 693 03a4 D2B2     		uxtb	r2, r2
 694 03a6 02F01F02 		and	r2, r2, #31
 695 03aa D340     		lsrs	r3, r3, r2
ARM GAS  /var/folders/0z/_3zh0q697778kwks4bv8s9bh0000gn/T//ccJVqLQz.s 			page 29


 696 03ac 03F00103 		and	r3, r3, #1
 697 03b0 002B     		cmp	r3, #0
 698 03b2 88D1     		bne	.L48
 699              	.L5:
 337:Drivers/STM32F3xx_HAL_Driver/Src/stm32f3xx_hal_rcc.c ****           }
 338:Drivers/STM32F3xx_HAL_Driver/Src/stm32f3xx_hal_rcc.c ****         }
 339:Drivers/STM32F3xx_HAL_Driver/Src/stm32f3xx_hal_rcc.c ****       }
 340:Drivers/STM32F3xx_HAL_Driver/Src/stm32f3xx_hal_rcc.c ****     }
 341:Drivers/STM32F3xx_HAL_Driver/Src/stm32f3xx_hal_rcc.c ****   }
 342:Drivers/STM32F3xx_HAL_Driver/Src/stm32f3xx_hal_rcc.c ****   /*----------------------------- HSI Configuration --------------------------*/ 
 343:Drivers/STM32F3xx_HAL_Driver/Src/stm32f3xx_hal_rcc.c ****   if(((RCC_OscInitStruct->OscillatorType) & RCC_OSCILLATORTYPE_HSI) == RCC_OSCILLATORTYPE_HSI)
 700              		.loc 1 343 0
 701 03b4 3B1D     		adds	r3, r7, #4
 702 03b6 1B68     		ldr	r3, [r3]
 703 03b8 1B68     		ldr	r3, [r3]
 704 03ba 03F00203 		and	r3, r3, #2
 705 03be 002B     		cmp	r3, #0
 706 03c0 00F0D481 		beq	.L49
 344:Drivers/STM32F3xx_HAL_Driver/Src/stm32f3xx_hal_rcc.c ****   {
 345:Drivers/STM32F3xx_HAL_Driver/Src/stm32f3xx_hal_rcc.c ****     /* Check the parameters */
 346:Drivers/STM32F3xx_HAL_Driver/Src/stm32f3xx_hal_rcc.c ****     assert_param(IS_RCC_HSI(RCC_OscInitStruct->HSIState));
 347:Drivers/STM32F3xx_HAL_Driver/Src/stm32f3xx_hal_rcc.c ****     assert_param(IS_RCC_CALIBRATION_VALUE(RCC_OscInitStruct->HSICalibrationValue));
 348:Drivers/STM32F3xx_HAL_Driver/Src/stm32f3xx_hal_rcc.c ****     
 349:Drivers/STM32F3xx_HAL_Driver/Src/stm32f3xx_hal_rcc.c ****     /* Check if HSI is used as system clock or as PLL source when PLL is selected as system clock *
 350:Drivers/STM32F3xx_HAL_Driver/Src/stm32f3xx_hal_rcc.c ****     if((__HAL_RCC_GET_SYSCLK_SOURCE() == RCC_SYSCLKSOURCE_STATUS_HSI) 
 707              		.loc 1 350 0
 708 03c4 884B     		ldr	r3, .L199
 709 03c6 5B68     		ldr	r3, [r3, #4]
 710 03c8 03F00C03 		and	r3, r3, #12
 711 03cc 002B     		cmp	r3, #0
 712 03ce 0DD0     		beq	.L50
 351:Drivers/STM32F3xx_HAL_Driver/Src/stm32f3xx_hal_rcc.c ****        || ((__HAL_RCC_GET_SYSCLK_SOURCE() == RCC_SYSCLKSOURCE_STATUS_PLLCLK) && (__HAL_RCC_GET_PLL_
 713              		.loc 1 351 0
 714 03d0 854B     		ldr	r3, .L199
 715 03d2 5B68     		ldr	r3, [r3, #4]
 716 03d4 03F00C03 		and	r3, r3, #12
 717 03d8 082B     		cmp	r3, #8
 718 03da 40F08F80 		bne	.L51
 719              		.loc 1 351 0 is_stmt 0 discriminator 1
 720 03de 824B     		ldr	r3, .L199
 721 03e0 5B68     		ldr	r3, [r3, #4]
 722 03e2 03F48033 		and	r3, r3, #65536
 723 03e6 002B     		cmp	r3, #0
 724 03e8 40F08880 		bne	.L51
 725              	.L50:
 726 03ec 0223     		movs	r3, #2
 727 03ee C7F89431 		str	r3, [r7, #404]
 728              	.LBB190:
 729              	.LBB191:
 531:Drivers/CMSIS/Include/cmsis_gcc.h **** #else
 730              		.loc 2 531 0 is_stmt 1
 731 03f2 D7F89431 		ldr	r3, [r7, #404]
 732              	@ 531 "Drivers/CMSIS/Include/cmsis_gcc.h" 1
 733 03f6 93FAA3F3 		rbit r3, r3
 734              	@ 0 "" 2
 735              		.thumb
 736 03fa C7F89031 		str	r3, [r7, #400]
ARM GAS  /var/folders/0z/_3zh0q697778kwks4bv8s9bh0000gn/T//ccJVqLQz.s 			page 30


 737              		.loc 2 544 0
 738 03fe D7F89031 		ldr	r3, [r7, #400]
 739              	.LBE191:
 740              	.LBE190:
 352:Drivers/STM32F3xx_HAL_Driver/Src/stm32f3xx_hal_rcc.c ****     {
 353:Drivers/STM32F3xx_HAL_Driver/Src/stm32f3xx_hal_rcc.c ****       /* When HSI is used as system clock it will not disabled */
 354:Drivers/STM32F3xx_HAL_Driver/Src/stm32f3xx_hal_rcc.c ****       if((__HAL_RCC_GET_FLAG(RCC_FLAG_HSIRDY) != RESET) && (RCC_OscInitStruct->HSIState != RCC_HSI_
 741              		.loc 1 354 0
 742 0402 B3FA83F3 		clz	r3, r3
 743 0406 DBB2     		uxtb	r3, r3
 744 0408 43F02003 		orr	r3, r3, #32
 745 040c DBB2     		uxtb	r3, r3
 746 040e DBB2     		uxtb	r3, r3
 747 0410 5B09     		lsrs	r3, r3, #5
 748 0412 DBB2     		uxtb	r3, r3
 749 0414 012B     		cmp	r3, #1
 750 0416 02D1     		bne	.L53
 751              		.loc 1 354 0 is_stmt 0 discriminator 1
 752 0418 734B     		ldr	r3, .L199
 753 041a 1B68     		ldr	r3, [r3]
 754 041c 33E0     		b	.L54
 755              	.L53:
 756 041e 0223     		movs	r3, #2
 757 0420 C7F88C31 		str	r3, [r7, #396]
 758              	.LBB192:
 759              	.LBB193:
 531:Drivers/CMSIS/Include/cmsis_gcc.h **** #else
 760              		.loc 2 531 0 is_stmt 1 discriminator 2
 761 0424 D7F88C31 		ldr	r3, [r7, #396]
 762              	@ 531 "Drivers/CMSIS/Include/cmsis_gcc.h" 1
 763 0428 93FAA3F3 		rbit r3, r3
 764              	@ 0 "" 2
 765              		.thumb
 766 042c C7F88831 		str	r3, [r7, #392]
 767              		.loc 2 544 0 discriminator 2
 768 0430 D7F88831 		ldr	r3, [r7, #392]
 769              	.LBE193:
 770              	.LBE192:
 771              		.loc 1 354 0 discriminator 2
 772 0434 B3FA83F3 		clz	r3, r3
 773 0438 DBB2     		uxtb	r3, r3
 774 043a 43F02003 		orr	r3, r3, #32
 775 043e DBB2     		uxtb	r3, r3
 776 0440 DBB2     		uxtb	r3, r3
 777 0442 5B09     		lsrs	r3, r3, #5
 778 0444 DBB2     		uxtb	r3, r3
 779 0446 022B     		cmp	r3, #2
 780 0448 02D1     		bne	.L56
 781              		.loc 1 354 0 is_stmt 0 discriminator 4
 782 044a 674B     		ldr	r3, .L199
 783 044c 1B6A     		ldr	r3, [r3, #32]
 784 044e 1AE0     		b	.L54
 785              	.L56:
 786 0450 0223     		movs	r3, #2
 787 0452 C7F88431 		str	r3, [r7, #388]
 788              	.LBB194:
 789              	.LBB195:
ARM GAS  /var/folders/0z/_3zh0q697778kwks4bv8s9bh0000gn/T//ccJVqLQz.s 			page 31


 531:Drivers/CMSIS/Include/cmsis_gcc.h **** #else
 790              		.loc 2 531 0 is_stmt 1 discriminator 5
 791 0456 D7F88431 		ldr	r3, [r7, #388]
 792              	@ 531 "Drivers/CMSIS/Include/cmsis_gcc.h" 1
 793 045a 93FAA3F3 		rbit r3, r3
 794              	@ 0 "" 2
 795              		.thumb
 796 045e C7F88031 		str	r3, [r7, #384]
 797              		.loc 2 544 0 discriminator 5
 798 0462 D7F88031 		ldr	r3, [r7, #384]
 799              	.LBE195:
 800              	.LBE194:
 801              		.loc 1 354 0 discriminator 5
 802 0466 B3FA83F3 		clz	r3, r3
 803 046a DBB2     		uxtb	r3, r3
 804 046c 43F02003 		orr	r3, r3, #32
 805 0470 DBB2     		uxtb	r3, r3
 806 0472 DBB2     		uxtb	r3, r3
 807 0474 5B09     		lsrs	r3, r3, #5
 808 0476 DBB2     		uxtb	r3, r3
 809 0478 042B     		cmp	r3, #4
 810 047a 02D1     		bne	.L59
 811              		.loc 1 354 0 is_stmt 0 discriminator 7
 812 047c 5A4B     		ldr	r3, .L199
 813 047e 5B68     		ldr	r3, [r3, #4]
 814 0480 01E0     		b	.L54
 815              	.L59:
 816              		.loc 1 354 0 discriminator 8
 817 0482 594B     		ldr	r3, .L199
 818 0484 5B6A     		ldr	r3, [r3, #36]
 819              	.L54:
 820 0486 0222     		movs	r2, #2
 821 0488 C7F87C21 		str	r2, [r7, #380]
 822              	.LBB196:
 823              	.LBB197:
 531:Drivers/CMSIS/Include/cmsis_gcc.h **** #else
 824              		.loc 2 531 0 is_stmt 1 discriminator 12
 825 048c D7F87C21 		ldr	r2, [r7, #380]
 826              	@ 531 "Drivers/CMSIS/Include/cmsis_gcc.h" 1
 827 0490 92FAA2F2 		rbit r2, r2
 828              	@ 0 "" 2
 829              		.thumb
 830 0494 C7F87821 		str	r2, [r7, #376]
 831              		.loc 2 544 0 discriminator 12
 832 0498 D7F87821 		ldr	r2, [r7, #376]
 833              	.LBE197:
 834              	.LBE196:
 835              		.loc 1 354 0 discriminator 12
 836 049c B2FA82F2 		clz	r2, r2
 837 04a0 D2B2     		uxtb	r2, r2
 838 04a2 42F02002 		orr	r2, r2, #32
 839 04a6 D2B2     		uxtb	r2, r2
 840 04a8 D2B2     		uxtb	r2, r2
 841 04aa 02F01F02 		and	r2, r2, #31
 842 04ae D340     		lsrs	r3, r3, r2
 843 04b0 03F00103 		and	r3, r3, #1
 844 04b4 002B     		cmp	r3, #0
ARM GAS  /var/folders/0z/_3zh0q697778kwks4bv8s9bh0000gn/T//ccJVqLQz.s 			page 32


 845 04b6 07D0     		beq	.L62
 846              		.loc 1 354 0 is_stmt 0 discriminator 13
 847 04b8 3B1D     		adds	r3, r7, #4
 848 04ba 1B68     		ldr	r3, [r3]
 849 04bc 1B69     		ldr	r3, [r3, #16]
 850 04be 012B     		cmp	r3, #1
 851 04c0 02D0     		beq	.L62
 355:Drivers/STM32F3xx_HAL_Driver/Src/stm32f3xx_hal_rcc.c ****       {
 356:Drivers/STM32F3xx_HAL_Driver/Src/stm32f3xx_hal_rcc.c ****         return HAL_ERROR;
 852              		.loc 1 356 0 is_stmt 1
 853 04c2 0123     		movs	r3, #1
 854 04c4 00F057BE 		b	.L19
 855              	.L62:
 357:Drivers/STM32F3xx_HAL_Driver/Src/stm32f3xx_hal_rcc.c ****       }
 358:Drivers/STM32F3xx_HAL_Driver/Src/stm32f3xx_hal_rcc.c ****       /* Otherwise, just the calibration is allowed */
 359:Drivers/STM32F3xx_HAL_Driver/Src/stm32f3xx_hal_rcc.c ****       else
 360:Drivers/STM32F3xx_HAL_Driver/Src/stm32f3xx_hal_rcc.c ****       {
 361:Drivers/STM32F3xx_HAL_Driver/Src/stm32f3xx_hal_rcc.c ****         /* Adjusts the Internal High Speed oscillator (HSI) calibration value.*/
 362:Drivers/STM32F3xx_HAL_Driver/Src/stm32f3xx_hal_rcc.c ****         __HAL_RCC_HSI_CALIBRATIONVALUE_ADJUST(RCC_OscInitStruct->HSICalibrationValue);
 856              		.loc 1 362 0
 857 04c8 4748     		ldr	r0, .L199
 858 04ca 474B     		ldr	r3, .L199
 859 04cc 1B68     		ldr	r3, [r3]
 860 04ce 23F0F802 		bic	r2, r3, #248
 861 04d2 3B1D     		adds	r3, r7, #4
 862 04d4 1B68     		ldr	r3, [r3]
 863 04d6 5969     		ldr	r1, [r3, #20]
 864 04d8 F823     		movs	r3, #248
 865 04da C7F87431 		str	r3, [r7, #372]
 866              	.LBB198:
 867              	.LBB199:
 531:Drivers/CMSIS/Include/cmsis_gcc.h **** #else
 868              		.loc 2 531 0
 869 04de D7F87431 		ldr	r3, [r7, #372]
 870              	@ 531 "Drivers/CMSIS/Include/cmsis_gcc.h" 1
 871 04e2 93FAA3F3 		rbit r3, r3
 872              	@ 0 "" 2
 873              		.thumb
 874 04e6 C7F87031 		str	r3, [r7, #368]
 875              		.loc 2 544 0
 876 04ea D7F87031 		ldr	r3, [r7, #368]
 877              	.LBE199:
 878              	.LBE198:
 879              		.loc 1 362 0
 880 04ee B3FA83F3 		clz	r3, r3
 881 04f2 01FA03F3 		lsl	r3, r1, r3
 882 04f6 1343     		orrs	r3, r3, r2
 883 04f8 0360     		str	r3, [r0]
 354:Drivers/STM32F3xx_HAL_Driver/Src/stm32f3xx_hal_rcc.c ****       {
 884              		.loc 1 354 0
 885 04fa 37E1     		b	.L49
 886              	.L51:
 363:Drivers/STM32F3xx_HAL_Driver/Src/stm32f3xx_hal_rcc.c ****       }
 364:Drivers/STM32F3xx_HAL_Driver/Src/stm32f3xx_hal_rcc.c ****     }
 365:Drivers/STM32F3xx_HAL_Driver/Src/stm32f3xx_hal_rcc.c ****     else
 366:Drivers/STM32F3xx_HAL_Driver/Src/stm32f3xx_hal_rcc.c ****     {
 367:Drivers/STM32F3xx_HAL_Driver/Src/stm32f3xx_hal_rcc.c ****       /* Check the HSI State */
ARM GAS  /var/folders/0z/_3zh0q697778kwks4bv8s9bh0000gn/T//ccJVqLQz.s 			page 33


 368:Drivers/STM32F3xx_HAL_Driver/Src/stm32f3xx_hal_rcc.c ****       if(RCC_OscInitStruct->HSIState != RCC_HSI_OFF)
 887              		.loc 1 368 0
 888 04fc 3B1D     		adds	r3, r7, #4
 889 04fe 1B68     		ldr	r3, [r3]
 890 0500 1B69     		ldr	r3, [r3, #16]
 891 0502 002B     		cmp	r3, #0
 892 0504 00F0A780 		beq	.L64
 893 0508 0123     		movs	r3, #1
 894 050a C7F86C31 		str	r3, [r7, #364]
 895              	.LBB200:
 896              	.LBB201:
 531:Drivers/CMSIS/Include/cmsis_gcc.h **** #else
 897              		.loc 2 531 0
 898 050e D7F86C31 		ldr	r3, [r7, #364]
 899              	@ 531 "Drivers/CMSIS/Include/cmsis_gcc.h" 1
 900 0512 93FAA3F3 		rbit r3, r3
 901              	@ 0 "" 2
 902              		.thumb
 903 0516 C7F86831 		str	r3, [r7, #360]
 904              		.loc 2 544 0
 905 051a D7F86831 		ldr	r3, [r7, #360]
 906              	.LBE201:
 907              	.LBE200:
 369:Drivers/STM32F3xx_HAL_Driver/Src/stm32f3xx_hal_rcc.c ****       {
 370:Drivers/STM32F3xx_HAL_Driver/Src/stm32f3xx_hal_rcc.c ****        /* Enable the Internal High Speed oscillator (HSI). */
 371:Drivers/STM32F3xx_HAL_Driver/Src/stm32f3xx_hal_rcc.c ****         __HAL_RCC_HSI_ENABLE();
 908              		.loc 1 371 0
 909 051e B3FA83F3 		clz	r3, r3
 910 0522 9B00     		lsls	r3, r3, #2
 911 0524 03F18443 		add	r3, r3, #1107296256
 912 0528 03F58403 		add	r3, r3, #4325376
 913 052c 1A46     		mov	r2, r3
 914 052e 0123     		movs	r3, #1
 915 0530 1360     		str	r3, [r2]
 372:Drivers/STM32F3xx_HAL_Driver/Src/stm32f3xx_hal_rcc.c ****         
 373:Drivers/STM32F3xx_HAL_Driver/Src/stm32f3xx_hal_rcc.c ****         /* Get Start Tick */
 374:Drivers/STM32F3xx_HAL_Driver/Src/stm32f3xx_hal_rcc.c ****         tickstart = HAL_GetTick();
 916              		.loc 1 374 0
 917 0532 FFF7FEFF 		bl	HAL_GetTick
 918 0536 C7F8F801 		str	r0, [r7, #504]
 375:Drivers/STM32F3xx_HAL_Driver/Src/stm32f3xx_hal_rcc.c ****         
 376:Drivers/STM32F3xx_HAL_Driver/Src/stm32f3xx_hal_rcc.c ****         /* Wait till HSI is ready */
 377:Drivers/STM32F3xx_HAL_Driver/Src/stm32f3xx_hal_rcc.c ****         while(__HAL_RCC_GET_FLAG(RCC_FLAG_HSIRDY) == RESET)
 919              		.loc 1 377 0
 920 053a 0AE0     		b	.L66
 921              	.L77:
 378:Drivers/STM32F3xx_HAL_Driver/Src/stm32f3xx_hal_rcc.c ****         {
 379:Drivers/STM32F3xx_HAL_Driver/Src/stm32f3xx_hal_rcc.c ****           if((HAL_GetTick() - tickstart ) > HSI_TIMEOUT_VALUE)
 922              		.loc 1 379 0
 923 053c FFF7FEFF 		bl	HAL_GetTick
 924 0540 0246     		mov	r2, r0
 925 0542 D7F8F831 		ldr	r3, [r7, #504]
 926 0546 D31A     		subs	r3, r2, r3
 927 0548 022B     		cmp	r3, #2
 928 054a 02D9     		bls	.L66
 380:Drivers/STM32F3xx_HAL_Driver/Src/stm32f3xx_hal_rcc.c ****           {
 381:Drivers/STM32F3xx_HAL_Driver/Src/stm32f3xx_hal_rcc.c ****             return HAL_TIMEOUT;
ARM GAS  /var/folders/0z/_3zh0q697778kwks4bv8s9bh0000gn/T//ccJVqLQz.s 			page 34


 929              		.loc 1 381 0
 930 054c 0323     		movs	r3, #3
 931 054e 00F012BE 		b	.L19
 932              	.L66:
 933 0552 0223     		movs	r3, #2
 934 0554 C7F86431 		str	r3, [r7, #356]
 935              	.LBB202:
 936              	.LBB203:
 531:Drivers/CMSIS/Include/cmsis_gcc.h **** #else
 937              		.loc 2 531 0
 938 0558 D7F86431 		ldr	r3, [r7, #356]
 939              	@ 531 "Drivers/CMSIS/Include/cmsis_gcc.h" 1
 940 055c 93FAA3F3 		rbit r3, r3
 941              	@ 0 "" 2
 942              		.thumb
 943 0560 C7F86031 		str	r3, [r7, #352]
 944              		.loc 2 544 0
 945 0564 D7F86031 		ldr	r3, [r7, #352]
 946              	.LBE203:
 947              	.LBE202:
 377:Drivers/STM32F3xx_HAL_Driver/Src/stm32f3xx_hal_rcc.c ****         {
 948              		.loc 1 377 0
 949 0568 B3FA83F3 		clz	r3, r3
 950 056c DBB2     		uxtb	r3, r3
 951 056e 43F02003 		orr	r3, r3, #32
 952 0572 DBB2     		uxtb	r3, r3
 953 0574 DBB2     		uxtb	r3, r3
 954 0576 5B09     		lsrs	r3, r3, #5
 955 0578 DBB2     		uxtb	r3, r3
 956 057a 012B     		cmp	r3, #1
 957 057c 02D1     		bne	.L68
 377:Drivers/STM32F3xx_HAL_Driver/Src/stm32f3xx_hal_rcc.c ****         {
 958              		.loc 1 377 0 is_stmt 0 discriminator 1
 959 057e 1A4B     		ldr	r3, .L199
 960 0580 1B68     		ldr	r3, [r3]
 961 0582 35E0     		b	.L69
 962              	.L68:
 963 0584 0223     		movs	r3, #2
 964 0586 C7F85C31 		str	r3, [r7, #348]
 965              	.LBB204:
 966              	.LBB205:
 531:Drivers/CMSIS/Include/cmsis_gcc.h **** #else
 967              		.loc 2 531 0 is_stmt 1 discriminator 2
 968 058a D7F85C31 		ldr	r3, [r7, #348]
 969              	@ 531 "Drivers/CMSIS/Include/cmsis_gcc.h" 1
 970 058e 93FAA3F3 		rbit r3, r3
 971              	@ 0 "" 2
 972              		.thumb
 973 0592 C7F85831 		str	r3, [r7, #344]
 974              		.loc 2 544 0 discriminator 2
 975 0596 D7F85831 		ldr	r3, [r7, #344]
 976              	.LBE205:
 977              	.LBE204:
 377:Drivers/STM32F3xx_HAL_Driver/Src/stm32f3xx_hal_rcc.c ****         {
 978              		.loc 1 377 0 discriminator 2
 979 059a B3FA83F3 		clz	r3, r3
 980 059e DBB2     		uxtb	r3, r3
ARM GAS  /var/folders/0z/_3zh0q697778kwks4bv8s9bh0000gn/T//ccJVqLQz.s 			page 35


 981 05a0 43F02003 		orr	r3, r3, #32
 982 05a4 DBB2     		uxtb	r3, r3
 983 05a6 DBB2     		uxtb	r3, r3
 984 05a8 5B09     		lsrs	r3, r3, #5
 985 05aa DBB2     		uxtb	r3, r3
 986 05ac 022B     		cmp	r3, #2
 987 05ae 02D1     		bne	.L71
 377:Drivers/STM32F3xx_HAL_Driver/Src/stm32f3xx_hal_rcc.c ****         {
 988              		.loc 1 377 0 is_stmt 0 discriminator 4
 989 05b0 0D4B     		ldr	r3, .L199
 990 05b2 1B6A     		ldr	r3, [r3, #32]
 991 05b4 1CE0     		b	.L69
 992              	.L71:
 993 05b6 0223     		movs	r3, #2
 994 05b8 C7F85431 		str	r3, [r7, #340]
 995              	.LBB206:
 996              	.LBB207:
 531:Drivers/CMSIS/Include/cmsis_gcc.h **** #else
 997              		.loc 2 531 0 is_stmt 1 discriminator 5
 998 05bc D7F85431 		ldr	r3, [r7, #340]
 999              	@ 531 "Drivers/CMSIS/Include/cmsis_gcc.h" 1
 1000 05c0 93FAA3F3 		rbit r3, r3
 1001              	@ 0 "" 2
 1002              		.thumb
 1003 05c4 C7F85031 		str	r3, [r7, #336]
 1004              		.loc 2 544 0 discriminator 5
 1005 05c8 D7F85031 		ldr	r3, [r7, #336]
 1006              	.LBE207:
 1007              	.LBE206:
 377:Drivers/STM32F3xx_HAL_Driver/Src/stm32f3xx_hal_rcc.c ****         {
 1008              		.loc 1 377 0 discriminator 5
 1009 05cc B3FA83F3 		clz	r3, r3
 1010 05d0 DBB2     		uxtb	r3, r3
 1011 05d2 43F02003 		orr	r3, r3, #32
 1012 05d6 DBB2     		uxtb	r3, r3
 1013 05d8 DBB2     		uxtb	r3, r3
 1014 05da 5B09     		lsrs	r3, r3, #5
 1015 05dc DBB2     		uxtb	r3, r3
 1016 05de 042B     		cmp	r3, #4
 1017 05e0 04D1     		bne	.L74
 377:Drivers/STM32F3xx_HAL_Driver/Src/stm32f3xx_hal_rcc.c ****         {
 1018              		.loc 1 377 0 is_stmt 0 discriminator 7
 1019 05e2 014B     		ldr	r3, .L199
 1020 05e4 5B68     		ldr	r3, [r3, #4]
 1021 05e6 03E0     		b	.L69
 1022              	.L200:
 1023              		.align	2
 1024              	.L199:
 1025 05e8 00100240 		.word	1073876992
 1026              	.L74:
 377:Drivers/STM32F3xx_HAL_Driver/Src/stm32f3xx_hal_rcc.c ****         {
 1027              		.loc 1 377 0 discriminator 8
 1028 05ec C54B     		ldr	r3, .L201
 1029 05ee 5B6A     		ldr	r3, [r3, #36]
 1030              	.L69:
 1031 05f0 0222     		movs	r2, #2
 1032 05f2 C7F84C21 		str	r2, [r7, #332]
ARM GAS  /var/folders/0z/_3zh0q697778kwks4bv8s9bh0000gn/T//ccJVqLQz.s 			page 36


 1033              	.LBB208:
 1034              	.LBB209:
 531:Drivers/CMSIS/Include/cmsis_gcc.h **** #else
 1035              		.loc 2 531 0 is_stmt 1 discriminator 12
 1036 05f6 D7F84C21 		ldr	r2, [r7, #332]
 1037              	@ 531 "Drivers/CMSIS/Include/cmsis_gcc.h" 1
 1038 05fa 92FAA2F2 		rbit r2, r2
 1039              	@ 0 "" 2
 1040              		.thumb
 1041 05fe C7F84821 		str	r2, [r7, #328]
 1042              		.loc 2 544 0 discriminator 12
 1043 0602 D7F84821 		ldr	r2, [r7, #328]
 1044              	.LBE209:
 1045              	.LBE208:
 377:Drivers/STM32F3xx_HAL_Driver/Src/stm32f3xx_hal_rcc.c ****         {
 1046              		.loc 1 377 0 discriminator 12
 1047 0606 B2FA82F2 		clz	r2, r2
 1048 060a D2B2     		uxtb	r2, r2
 1049 060c 42F02002 		orr	r2, r2, #32
 1050 0610 D2B2     		uxtb	r2, r2
 1051 0612 D2B2     		uxtb	r2, r2
 1052 0614 02F01F02 		and	r2, r2, #31
 1053 0618 D340     		lsrs	r3, r3, r2
 1054 061a 03F00103 		and	r3, r3, #1
 1055 061e 002B     		cmp	r3, #0
 1056 0620 8CD0     		beq	.L77
 382:Drivers/STM32F3xx_HAL_Driver/Src/stm32f3xx_hal_rcc.c ****           }
 383:Drivers/STM32F3xx_HAL_Driver/Src/stm32f3xx_hal_rcc.c ****         }
 384:Drivers/STM32F3xx_HAL_Driver/Src/stm32f3xx_hal_rcc.c ****                 
 385:Drivers/STM32F3xx_HAL_Driver/Src/stm32f3xx_hal_rcc.c ****         /* Adjusts the Internal High Speed oscillator (HSI) calibration value.*/
 386:Drivers/STM32F3xx_HAL_Driver/Src/stm32f3xx_hal_rcc.c ****         __HAL_RCC_HSI_CALIBRATIONVALUE_ADJUST(RCC_OscInitStruct->HSICalibrationValue);
 1057              		.loc 1 386 0
 1058 0622 B848     		ldr	r0, .L201
 1059 0624 B74B     		ldr	r3, .L201
 1060 0626 1B68     		ldr	r3, [r3]
 1061 0628 23F0F802 		bic	r2, r3, #248
 1062 062c 3B1D     		adds	r3, r7, #4
 1063 062e 1B68     		ldr	r3, [r3]
 1064 0630 5969     		ldr	r1, [r3, #20]
 1065 0632 F823     		movs	r3, #248
 1066 0634 C7F84431 		str	r3, [r7, #324]
 1067              	.LBB210:
 1068              	.LBB211:
 531:Drivers/CMSIS/Include/cmsis_gcc.h **** #else
 1069              		.loc 2 531 0
 1070 0638 D7F84431 		ldr	r3, [r7, #324]
 1071              	@ 531 "Drivers/CMSIS/Include/cmsis_gcc.h" 1
 1072 063c 93FAA3F3 		rbit r3, r3
 1073              	@ 0 "" 2
 1074              		.thumb
 1075 0640 C7F84031 		str	r3, [r7, #320]
 1076              		.loc 2 544 0
 1077 0644 D7F84031 		ldr	r3, [r7, #320]
 1078              	.LBE211:
 1079              	.LBE210:
 1080              		.loc 1 386 0
 1081 0648 B3FA83F3 		clz	r3, r3
ARM GAS  /var/folders/0z/_3zh0q697778kwks4bv8s9bh0000gn/T//ccJVqLQz.s 			page 37


 1082 064c 01FA03F3 		lsl	r3, r1, r3
 1083 0650 1343     		orrs	r3, r3, r2
 1084 0652 0360     		str	r3, [r0]
 1085 0654 8AE0     		b	.L49
 1086              	.L64:
 1087 0656 0123     		movs	r3, #1
 1088 0658 C7F83C31 		str	r3, [r7, #316]
 1089              	.LBB212:
 1090              	.LBB213:
 531:Drivers/CMSIS/Include/cmsis_gcc.h **** #else
 1091              		.loc 2 531 0
 1092 065c D7F83C31 		ldr	r3, [r7, #316]
 1093              	@ 531 "Drivers/CMSIS/Include/cmsis_gcc.h" 1
 1094 0660 93FAA3F3 		rbit r3, r3
 1095              	@ 0 "" 2
 1096              		.thumb
 1097 0664 C7F83831 		str	r3, [r7, #312]
 1098              		.loc 2 544 0
 1099 0668 D7F83831 		ldr	r3, [r7, #312]
 1100              	.LBE213:
 1101              	.LBE212:
 387:Drivers/STM32F3xx_HAL_Driver/Src/stm32f3xx_hal_rcc.c ****       }
 388:Drivers/STM32F3xx_HAL_Driver/Src/stm32f3xx_hal_rcc.c ****       else
 389:Drivers/STM32F3xx_HAL_Driver/Src/stm32f3xx_hal_rcc.c ****       {
 390:Drivers/STM32F3xx_HAL_Driver/Src/stm32f3xx_hal_rcc.c ****         /* Disable the Internal High Speed oscillator (HSI). */
 391:Drivers/STM32F3xx_HAL_Driver/Src/stm32f3xx_hal_rcc.c ****         __HAL_RCC_HSI_DISABLE();
 1102              		.loc 1 391 0
 1103 066c B3FA83F3 		clz	r3, r3
 1104 0670 9B00     		lsls	r3, r3, #2
 1105 0672 03F18443 		add	r3, r3, #1107296256
 1106 0676 03F58403 		add	r3, r3, #4325376
 1107 067a 1A46     		mov	r2, r3
 1108 067c 0023     		movs	r3, #0
 1109 067e 1360     		str	r3, [r2]
 392:Drivers/STM32F3xx_HAL_Driver/Src/stm32f3xx_hal_rcc.c ****         
 393:Drivers/STM32F3xx_HAL_Driver/Src/stm32f3xx_hal_rcc.c ****         /* Get Start Tick */
 394:Drivers/STM32F3xx_HAL_Driver/Src/stm32f3xx_hal_rcc.c ****         tickstart = HAL_GetTick();
 1110              		.loc 1 394 0
 1111 0680 FFF7FEFF 		bl	HAL_GetTick
 1112 0684 C7F8F801 		str	r0, [r7, #504]
 395:Drivers/STM32F3xx_HAL_Driver/Src/stm32f3xx_hal_rcc.c ****         
 396:Drivers/STM32F3xx_HAL_Driver/Src/stm32f3xx_hal_rcc.c ****         /* Wait till HSI is disabled */
 397:Drivers/STM32F3xx_HAL_Driver/Src/stm32f3xx_hal_rcc.c ****         while(__HAL_RCC_GET_FLAG(RCC_FLAG_HSIRDY) != RESET)
 1113              		.loc 1 397 0
 1114 0688 0AE0     		b	.L80
 1115              	.L91:
 398:Drivers/STM32F3xx_HAL_Driver/Src/stm32f3xx_hal_rcc.c ****         {
 399:Drivers/STM32F3xx_HAL_Driver/Src/stm32f3xx_hal_rcc.c ****           if((HAL_GetTick() - tickstart ) > HSI_TIMEOUT_VALUE)
 1116              		.loc 1 399 0
 1117 068a FFF7FEFF 		bl	HAL_GetTick
 1118 068e 0246     		mov	r2, r0
 1119 0690 D7F8F831 		ldr	r3, [r7, #504]
 1120 0694 D31A     		subs	r3, r2, r3
 1121 0696 022B     		cmp	r3, #2
 1122 0698 02D9     		bls	.L80
 400:Drivers/STM32F3xx_HAL_Driver/Src/stm32f3xx_hal_rcc.c ****           {
 401:Drivers/STM32F3xx_HAL_Driver/Src/stm32f3xx_hal_rcc.c ****             return HAL_TIMEOUT;
ARM GAS  /var/folders/0z/_3zh0q697778kwks4bv8s9bh0000gn/T//ccJVqLQz.s 			page 38


 1123              		.loc 1 401 0
 1124 069a 0323     		movs	r3, #3
 1125 069c 00F06BBD 		b	.L19
 1126              	.L80:
 1127 06a0 0223     		movs	r3, #2
 1128 06a2 C7F83431 		str	r3, [r7, #308]
 1129              	.LBB214:
 1130              	.LBB215:
 531:Drivers/CMSIS/Include/cmsis_gcc.h **** #else
 1131              		.loc 2 531 0
 1132 06a6 D7F83431 		ldr	r3, [r7, #308]
 1133              	@ 531 "Drivers/CMSIS/Include/cmsis_gcc.h" 1
 1134 06aa 93FAA3F3 		rbit r3, r3
 1135              	@ 0 "" 2
 1136              		.thumb
 1137 06ae C7F83031 		str	r3, [r7, #304]
 1138              		.loc 2 544 0
 1139 06b2 D7F83031 		ldr	r3, [r7, #304]
 1140              	.LBE215:
 1141              	.LBE214:
 397:Drivers/STM32F3xx_HAL_Driver/Src/stm32f3xx_hal_rcc.c ****         {
 1142              		.loc 1 397 0
 1143 06b6 B3FA83F3 		clz	r3, r3
 1144 06ba DBB2     		uxtb	r3, r3
 1145 06bc 43F02003 		orr	r3, r3, #32
 1146 06c0 DBB2     		uxtb	r3, r3
 1147 06c2 DBB2     		uxtb	r3, r3
 1148 06c4 5B09     		lsrs	r3, r3, #5
 1149 06c6 DBB2     		uxtb	r3, r3
 1150 06c8 012B     		cmp	r3, #1
 1151 06ca 02D1     		bne	.L82
 397:Drivers/STM32F3xx_HAL_Driver/Src/stm32f3xx_hal_rcc.c ****         {
 1152              		.loc 1 397 0 is_stmt 0 discriminator 1
 1153 06cc 8D4B     		ldr	r3, .L201
 1154 06ce 1B68     		ldr	r3, [r3]
 1155 06d0 33E0     		b	.L83
 1156              	.L82:
 1157 06d2 0223     		movs	r3, #2
 1158 06d4 C7F82C31 		str	r3, [r7, #300]
 1159              	.LBB216:
 1160              	.LBB217:
 531:Drivers/CMSIS/Include/cmsis_gcc.h **** #else
 1161              		.loc 2 531 0 is_stmt 1 discriminator 2
 1162 06d8 D7F82C31 		ldr	r3, [r7, #300]
 1163              	@ 531 "Drivers/CMSIS/Include/cmsis_gcc.h" 1
 1164 06dc 93FAA3F3 		rbit r3, r3
 1165              	@ 0 "" 2
 1166              		.thumb
 1167 06e0 C7F82831 		str	r3, [r7, #296]
 1168              		.loc 2 544 0 discriminator 2
 1169 06e4 D7F82831 		ldr	r3, [r7, #296]
 1170              	.LBE217:
 1171              	.LBE216:
 397:Drivers/STM32F3xx_HAL_Driver/Src/stm32f3xx_hal_rcc.c ****         {
 1172              		.loc 1 397 0 discriminator 2
 1173 06e8 B3FA83F3 		clz	r3, r3
 1174 06ec DBB2     		uxtb	r3, r3
ARM GAS  /var/folders/0z/_3zh0q697778kwks4bv8s9bh0000gn/T//ccJVqLQz.s 			page 39


 1175 06ee 43F02003 		orr	r3, r3, #32
 1176 06f2 DBB2     		uxtb	r3, r3
 1177 06f4 DBB2     		uxtb	r3, r3
 1178 06f6 5B09     		lsrs	r3, r3, #5
 1179 06f8 DBB2     		uxtb	r3, r3
 1180 06fa 022B     		cmp	r3, #2
 1181 06fc 02D1     		bne	.L85
 397:Drivers/STM32F3xx_HAL_Driver/Src/stm32f3xx_hal_rcc.c ****         {
 1182              		.loc 1 397 0 is_stmt 0 discriminator 4
 1183 06fe 814B     		ldr	r3, .L201
 1184 0700 1B6A     		ldr	r3, [r3, #32]
 1185 0702 1AE0     		b	.L83
 1186              	.L85:
 1187 0704 0223     		movs	r3, #2
 1188 0706 C7F82431 		str	r3, [r7, #292]
 1189              	.LBB218:
 1190              	.LBB219:
 531:Drivers/CMSIS/Include/cmsis_gcc.h **** #else
 1191              		.loc 2 531 0 is_stmt 1 discriminator 5
 1192 070a D7F82431 		ldr	r3, [r7, #292]
 1193              	@ 531 "Drivers/CMSIS/Include/cmsis_gcc.h" 1
 1194 070e 93FAA3F3 		rbit r3, r3
 1195              	@ 0 "" 2
 1196              		.thumb
 1197 0712 C7F82031 		str	r3, [r7, #288]
 1198              		.loc 2 544 0 discriminator 5
 1199 0716 D7F82031 		ldr	r3, [r7, #288]
 1200              	.LBE219:
 1201              	.LBE218:
 397:Drivers/STM32F3xx_HAL_Driver/Src/stm32f3xx_hal_rcc.c ****         {
 1202              		.loc 1 397 0 discriminator 5
 1203 071a B3FA83F3 		clz	r3, r3
 1204 071e DBB2     		uxtb	r3, r3
 1205 0720 43F02003 		orr	r3, r3, #32
 1206 0724 DBB2     		uxtb	r3, r3
 1207 0726 DBB2     		uxtb	r3, r3
 1208 0728 5B09     		lsrs	r3, r3, #5
 1209 072a DBB2     		uxtb	r3, r3
 1210 072c 042B     		cmp	r3, #4
 1211 072e 02D1     		bne	.L88
 397:Drivers/STM32F3xx_HAL_Driver/Src/stm32f3xx_hal_rcc.c ****         {
 1212              		.loc 1 397 0 is_stmt 0 discriminator 7
 1213 0730 744B     		ldr	r3, .L201
 1214 0732 5B68     		ldr	r3, [r3, #4]
 1215 0734 01E0     		b	.L83
 1216              	.L88:
 397:Drivers/STM32F3xx_HAL_Driver/Src/stm32f3xx_hal_rcc.c ****         {
 1217              		.loc 1 397 0 discriminator 8
 1218 0736 734B     		ldr	r3, .L201
 1219 0738 5B6A     		ldr	r3, [r3, #36]
 1220              	.L83:
 1221 073a 0222     		movs	r2, #2
 1222 073c C7F81C21 		str	r2, [r7, #284]
 1223              	.LBB220:
 1224              	.LBB221:
 531:Drivers/CMSIS/Include/cmsis_gcc.h **** #else
 1225              		.loc 2 531 0 is_stmt 1 discriminator 12
ARM GAS  /var/folders/0z/_3zh0q697778kwks4bv8s9bh0000gn/T//ccJVqLQz.s 			page 40


 1226 0740 D7F81C21 		ldr	r2, [r7, #284]
 1227              	@ 531 "Drivers/CMSIS/Include/cmsis_gcc.h" 1
 1228 0744 92FAA2F2 		rbit r2, r2
 1229              	@ 0 "" 2
 1230              		.thumb
 1231 0748 C7F81821 		str	r2, [r7, #280]
 1232              		.loc 2 544 0 discriminator 12
 1233 074c D7F81821 		ldr	r2, [r7, #280]
 1234              	.LBE221:
 1235              	.LBE220:
 397:Drivers/STM32F3xx_HAL_Driver/Src/stm32f3xx_hal_rcc.c ****         {
 1236              		.loc 1 397 0 discriminator 12
 1237 0750 B2FA82F2 		clz	r2, r2
 1238 0754 D2B2     		uxtb	r2, r2
 1239 0756 42F02002 		orr	r2, r2, #32
 1240 075a D2B2     		uxtb	r2, r2
 1241 075c D2B2     		uxtb	r2, r2
 1242 075e 02F01F02 		and	r2, r2, #31
 1243 0762 D340     		lsrs	r3, r3, r2
 1244 0764 03F00103 		and	r3, r3, #1
 1245 0768 002B     		cmp	r3, #0
 1246 076a 8ED1     		bne	.L91
 1247              	.L49:
 402:Drivers/STM32F3xx_HAL_Driver/Src/stm32f3xx_hal_rcc.c ****           }
 403:Drivers/STM32F3xx_HAL_Driver/Src/stm32f3xx_hal_rcc.c ****         }
 404:Drivers/STM32F3xx_HAL_Driver/Src/stm32f3xx_hal_rcc.c ****       }
 405:Drivers/STM32F3xx_HAL_Driver/Src/stm32f3xx_hal_rcc.c ****     }
 406:Drivers/STM32F3xx_HAL_Driver/Src/stm32f3xx_hal_rcc.c ****   }
 407:Drivers/STM32F3xx_HAL_Driver/Src/stm32f3xx_hal_rcc.c ****   /*------------------------------ LSI Configuration -------------------------*/ 
 408:Drivers/STM32F3xx_HAL_Driver/Src/stm32f3xx_hal_rcc.c ****   if(((RCC_OscInitStruct->OscillatorType) & RCC_OSCILLATORTYPE_LSI) == RCC_OSCILLATORTYPE_LSI)
 1248              		.loc 1 408 0
 1249 076c 3B1D     		adds	r3, r7, #4
 1250 076e 1B68     		ldr	r3, [r3]
 1251 0770 1B68     		ldr	r3, [r3]
 1252 0772 03F00803 		and	r3, r3, #8
 1253 0776 002B     		cmp	r3, #0
 1254 0778 00F03F81 		beq	.L92
 409:Drivers/STM32F3xx_HAL_Driver/Src/stm32f3xx_hal_rcc.c ****   {
 410:Drivers/STM32F3xx_HAL_Driver/Src/stm32f3xx_hal_rcc.c ****     /* Check the parameters */
 411:Drivers/STM32F3xx_HAL_Driver/Src/stm32f3xx_hal_rcc.c ****     assert_param(IS_RCC_LSI(RCC_OscInitStruct->LSIState));
 412:Drivers/STM32F3xx_HAL_Driver/Src/stm32f3xx_hal_rcc.c ****     
 413:Drivers/STM32F3xx_HAL_Driver/Src/stm32f3xx_hal_rcc.c ****     /* Check the LSI State */
 414:Drivers/STM32F3xx_HAL_Driver/Src/stm32f3xx_hal_rcc.c ****     if(RCC_OscInitStruct->LSIState != RCC_LSI_OFF)
 1255              		.loc 1 414 0
 1256 077c 3B1D     		adds	r3, r7, #4
 1257 077e 1B68     		ldr	r3, [r3]
 1258 0780 9B69     		ldr	r3, [r3, #24]
 1259 0782 002B     		cmp	r3, #0
 1260 0784 00F09580 		beq	.L93
 1261 0788 0123     		movs	r3, #1
 1262 078a C7F81431 		str	r3, [r7, #276]
 1263              	.LBB222:
 1264              	.LBB223:
 531:Drivers/CMSIS/Include/cmsis_gcc.h **** #else
 1265              		.loc 2 531 0
 1266 078e D7F81431 		ldr	r3, [r7, #276]
 1267              	@ 531 "Drivers/CMSIS/Include/cmsis_gcc.h" 1
ARM GAS  /var/folders/0z/_3zh0q697778kwks4bv8s9bh0000gn/T//ccJVqLQz.s 			page 41


 1268 0792 93FAA3F3 		rbit r3, r3
 1269              	@ 0 "" 2
 1270              		.thumb
 1271 0796 C7F81031 		str	r3, [r7, #272]
 1272              		.loc 2 544 0
 1273 079a D7F81031 		ldr	r3, [r7, #272]
 1274              	.LBE223:
 1275              	.LBE222:
 415:Drivers/STM32F3xx_HAL_Driver/Src/stm32f3xx_hal_rcc.c ****     {
 416:Drivers/STM32F3xx_HAL_Driver/Src/stm32f3xx_hal_rcc.c ****       /* Enable the Internal Low Speed oscillator (LSI). */
 417:Drivers/STM32F3xx_HAL_Driver/Src/stm32f3xx_hal_rcc.c ****       __HAL_RCC_LSI_ENABLE();
 1276              		.loc 1 417 0
 1277 079e B3FA83F3 		clz	r3, r3
 1278 07a2 9B00     		lsls	r3, r3, #2
 1279 07a4 1A46     		mov	r2, r3
 1280 07a6 584B     		ldr	r3, .L201+4
 1281 07a8 1344     		add	r3, r3, r2
 1282 07aa 1A46     		mov	r2, r3
 1283 07ac 0123     		movs	r3, #1
 1284 07ae 1360     		str	r3, [r2]
 418:Drivers/STM32F3xx_HAL_Driver/Src/stm32f3xx_hal_rcc.c ****       
 419:Drivers/STM32F3xx_HAL_Driver/Src/stm32f3xx_hal_rcc.c ****       /* Get Start Tick */
 420:Drivers/STM32F3xx_HAL_Driver/Src/stm32f3xx_hal_rcc.c ****       tickstart = HAL_GetTick();
 1285              		.loc 1 420 0
 1286 07b0 FFF7FEFF 		bl	HAL_GetTick
 1287 07b4 C7F8F801 		str	r0, [r7, #504]
 421:Drivers/STM32F3xx_HAL_Driver/Src/stm32f3xx_hal_rcc.c ****       
 422:Drivers/STM32F3xx_HAL_Driver/Src/stm32f3xx_hal_rcc.c ****       /* Wait till LSI is ready */  
 423:Drivers/STM32F3xx_HAL_Driver/Src/stm32f3xx_hal_rcc.c ****       while(__HAL_RCC_GET_FLAG(RCC_FLAG_LSIRDY) == RESET)
 1288              		.loc 1 423 0
 1289 07b8 0AE0     		b	.L95
 1290              	.L106:
 424:Drivers/STM32F3xx_HAL_Driver/Src/stm32f3xx_hal_rcc.c ****       {
 425:Drivers/STM32F3xx_HAL_Driver/Src/stm32f3xx_hal_rcc.c ****         if((HAL_GetTick() - tickstart ) > LSI_TIMEOUT_VALUE)
 1291              		.loc 1 425 0
 1292 07ba FFF7FEFF 		bl	HAL_GetTick
 1293 07be 0246     		mov	r2, r0
 1294 07c0 D7F8F831 		ldr	r3, [r7, #504]
 1295 07c4 D31A     		subs	r3, r2, r3
 1296 07c6 022B     		cmp	r3, #2
 1297 07c8 02D9     		bls	.L95
 426:Drivers/STM32F3xx_HAL_Driver/Src/stm32f3xx_hal_rcc.c ****         {
 427:Drivers/STM32F3xx_HAL_Driver/Src/stm32f3xx_hal_rcc.c ****           return HAL_TIMEOUT;
 1298              		.loc 1 427 0
 1299 07ca 0323     		movs	r3, #3
 1300 07cc 00F0D3BC 		b	.L19
 1301              	.L95:
 1302 07d0 0223     		movs	r3, #2
 1303 07d2 C7F80C31 		str	r3, [r7, #268]
 1304              	.LBB224:
 1305              	.LBB225:
 531:Drivers/CMSIS/Include/cmsis_gcc.h **** #else
 1306              		.loc 2 531 0
 1307 07d6 D7F80C31 		ldr	r3, [r7, #268]
 1308              	@ 531 "Drivers/CMSIS/Include/cmsis_gcc.h" 1
 1309 07da 93FAA3F3 		rbit r3, r3
 1310              	@ 0 "" 2
ARM GAS  /var/folders/0z/_3zh0q697778kwks4bv8s9bh0000gn/T//ccJVqLQz.s 			page 42


 1311              		.thumb
 1312 07de C7F80831 		str	r3, [r7, #264]
 1313              		.loc 2 544 0
 1314 07e2 D7F80831 		ldr	r3, [r7, #264]
 1315              	.LBE225:
 1316              	.LBE224:
 423:Drivers/STM32F3xx_HAL_Driver/Src/stm32f3xx_hal_rcc.c ****       {
 1317              		.loc 1 423 0
 1318 07e6 B3FA83F3 		clz	r3, r3
 1319 07ea DBB2     		uxtb	r3, r3
 1320 07ec 43F06003 		orr	r3, r3, #96
 1321 07f0 DBB2     		uxtb	r3, r3
 1322 07f2 DBB2     		uxtb	r3, r3
 1323 07f4 5B09     		lsrs	r3, r3, #5
 1324 07f6 DBB2     		uxtb	r3, r3
 1325 07f8 012B     		cmp	r3, #1
 1326 07fa 02D1     		bne	.L97
 423:Drivers/STM32F3xx_HAL_Driver/Src/stm32f3xx_hal_rcc.c ****       {
 1327              		.loc 1 423 0 is_stmt 0 discriminator 1
 1328 07fc 414B     		ldr	r3, .L201
 1329 07fe 1B68     		ldr	r3, [r3]
 1330 0800 39E0     		b	.L98
 1331              	.L97:
 1332 0802 0223     		movs	r3, #2
 1333 0804 C7F80431 		str	r3, [r7, #260]
 1334              	.LBB226:
 1335              	.LBB227:
 531:Drivers/CMSIS/Include/cmsis_gcc.h **** #else
 1336              		.loc 2 531 0 is_stmt 1 discriminator 2
 1337 0808 D7F80431 		ldr	r3, [r7, #260]
 1338              	@ 531 "Drivers/CMSIS/Include/cmsis_gcc.h" 1
 1339 080c 93FAA3F2 		rbit r2, r3
 1340              	@ 0 "" 2
 1341              		.thumb
 1342 0810 07F58073 		add	r3, r7, #256
 1343 0814 1A60     		str	r2, [r3]
 1344              		.loc 2 544 0 discriminator 2
 1345 0816 07F58073 		add	r3, r7, #256
 1346 081a 1B68     		ldr	r3, [r3]
 1347              	.LBE227:
 1348              	.LBE226:
 423:Drivers/STM32F3xx_HAL_Driver/Src/stm32f3xx_hal_rcc.c ****       {
 1349              		.loc 1 423 0 discriminator 2
 1350 081c B3FA83F3 		clz	r3, r3
 1351 0820 DBB2     		uxtb	r3, r3
 1352 0822 43F06003 		orr	r3, r3, #96
 1353 0826 DBB2     		uxtb	r3, r3
 1354 0828 DBB2     		uxtb	r3, r3
 1355 082a 5B09     		lsrs	r3, r3, #5
 1356 082c DBB2     		uxtb	r3, r3
 1357 082e 022B     		cmp	r3, #2
 1358 0830 02D1     		bne	.L100
 423:Drivers/STM32F3xx_HAL_Driver/Src/stm32f3xx_hal_rcc.c ****       {
 1359              		.loc 1 423 0 is_stmt 0 discriminator 4
 1360 0832 344B     		ldr	r3, .L201
 1361 0834 1B6A     		ldr	r3, [r3, #32]
 1362 0836 1EE0     		b	.L98
ARM GAS  /var/folders/0z/_3zh0q697778kwks4bv8s9bh0000gn/T//ccJVqLQz.s 			page 43


 1363              	.L100:
 1364 0838 07F1FC03 		add	r3, r7, #252
 1365 083c 0222     		movs	r2, #2
 1366 083e 1A60     		str	r2, [r3]
 1367              	.LBB228:
 1368              	.LBB229:
 531:Drivers/CMSIS/Include/cmsis_gcc.h **** #else
 1369              		.loc 2 531 0 is_stmt 1 discriminator 5
 1370 0840 07F1FC03 		add	r3, r7, #252
 1371 0844 1B68     		ldr	r3, [r3]
 1372              	@ 531 "Drivers/CMSIS/Include/cmsis_gcc.h" 1
 1373 0846 93FAA3F2 		rbit r2, r3
 1374              	@ 0 "" 2
 1375              		.thumb
 1376 084a 07F1F803 		add	r3, r7, #248
 1377 084e 1A60     		str	r2, [r3]
 1378              		.loc 2 544 0 discriminator 5
 1379 0850 07F1F803 		add	r3, r7, #248
 1380 0854 1B68     		ldr	r3, [r3]
 1381              	.LBE229:
 1382              	.LBE228:
 423:Drivers/STM32F3xx_HAL_Driver/Src/stm32f3xx_hal_rcc.c ****       {
 1383              		.loc 1 423 0 discriminator 5
 1384 0856 B3FA83F3 		clz	r3, r3
 1385 085a DBB2     		uxtb	r3, r3
 1386 085c 43F06003 		orr	r3, r3, #96
 1387 0860 DBB2     		uxtb	r3, r3
 1388 0862 DBB2     		uxtb	r3, r3
 1389 0864 5B09     		lsrs	r3, r3, #5
 1390 0866 DBB2     		uxtb	r3, r3
 1391 0868 042B     		cmp	r3, #4
 1392 086a 02D1     		bne	.L103
 423:Drivers/STM32F3xx_HAL_Driver/Src/stm32f3xx_hal_rcc.c ****       {
 1393              		.loc 1 423 0 is_stmt 0 discriminator 7
 1394 086c 254B     		ldr	r3, .L201
 1395 086e 5B68     		ldr	r3, [r3, #4]
 1396 0870 01E0     		b	.L98
 1397              	.L103:
 423:Drivers/STM32F3xx_HAL_Driver/Src/stm32f3xx_hal_rcc.c ****       {
 1398              		.loc 1 423 0 discriminator 8
 1399 0872 244B     		ldr	r3, .L201
 1400 0874 5B6A     		ldr	r3, [r3, #36]
 1401              	.L98:
 1402 0876 07F1F402 		add	r2, r7, #244
 1403 087a 0221     		movs	r1, #2
 1404 087c 1160     		str	r1, [r2]
 1405              	.LBB230:
 1406              	.LBB231:
 531:Drivers/CMSIS/Include/cmsis_gcc.h **** #else
 1407              		.loc 2 531 0 is_stmt 1 discriminator 12
 1408 087e 07F1F402 		add	r2, r7, #244
 1409 0882 1268     		ldr	r2, [r2]
 1410              	@ 531 "Drivers/CMSIS/Include/cmsis_gcc.h" 1
 1411 0884 92FAA2F1 		rbit r1, r2
 1412              	@ 0 "" 2
 1413              		.thumb
 1414 0888 07F1F002 		add	r2, r7, #240
ARM GAS  /var/folders/0z/_3zh0q697778kwks4bv8s9bh0000gn/T//ccJVqLQz.s 			page 44


 1415 088c 1160     		str	r1, [r2]
 1416              		.loc 2 544 0 discriminator 12
 1417 088e 07F1F002 		add	r2, r7, #240
 1418 0892 1268     		ldr	r2, [r2]
 1419              	.LBE231:
 1420              	.LBE230:
 423:Drivers/STM32F3xx_HAL_Driver/Src/stm32f3xx_hal_rcc.c ****       {
 1421              		.loc 1 423 0 discriminator 12
 1422 0894 B2FA82F2 		clz	r2, r2
 1423 0898 D2B2     		uxtb	r2, r2
 1424 089a 42F06002 		orr	r2, r2, #96
 1425 089e D2B2     		uxtb	r2, r2
 1426 08a0 D2B2     		uxtb	r2, r2
 1427 08a2 02F01F02 		and	r2, r2, #31
 1428 08a6 D340     		lsrs	r3, r3, r2
 1429 08a8 03F00103 		and	r3, r3, #1
 1430 08ac 002B     		cmp	r3, #0
 1431 08ae 84D0     		beq	.L106
 1432 08b0 A3E0     		b	.L92
 1433              	.L93:
 1434 08b2 07F1EC03 		add	r3, r7, #236
 1435 08b6 0122     		movs	r2, #1
 1436 08b8 1A60     		str	r2, [r3]
 1437              	.LBB232:
 1438              	.LBB233:
 531:Drivers/CMSIS/Include/cmsis_gcc.h **** #else
 1439              		.loc 2 531 0
 1440 08ba 07F1EC03 		add	r3, r7, #236
 1441 08be 1B68     		ldr	r3, [r3]
 1442              	@ 531 "Drivers/CMSIS/Include/cmsis_gcc.h" 1
 1443 08c0 93FAA3F2 		rbit r2, r3
 1444              	@ 0 "" 2
 1445              		.thumb
 1446 08c4 07F1E803 		add	r3, r7, #232
 1447 08c8 1A60     		str	r2, [r3]
 1448              		.loc 2 544 0
 1449 08ca 07F1E803 		add	r3, r7, #232
 1450 08ce 1B68     		ldr	r3, [r3]
 1451              	.LBE233:
 1452              	.LBE232:
 428:Drivers/STM32F3xx_HAL_Driver/Src/stm32f3xx_hal_rcc.c ****         }
 429:Drivers/STM32F3xx_HAL_Driver/Src/stm32f3xx_hal_rcc.c ****       }
 430:Drivers/STM32F3xx_HAL_Driver/Src/stm32f3xx_hal_rcc.c ****     }
 431:Drivers/STM32F3xx_HAL_Driver/Src/stm32f3xx_hal_rcc.c ****     else
 432:Drivers/STM32F3xx_HAL_Driver/Src/stm32f3xx_hal_rcc.c ****     {
 433:Drivers/STM32F3xx_HAL_Driver/Src/stm32f3xx_hal_rcc.c ****       /* Disable the Internal Low Speed oscillator (LSI). */
 434:Drivers/STM32F3xx_HAL_Driver/Src/stm32f3xx_hal_rcc.c ****       __HAL_RCC_LSI_DISABLE();
 1453              		.loc 1 434 0
 1454 08d0 B3FA83F3 		clz	r3, r3
 1455 08d4 9B00     		lsls	r3, r3, #2
 1456 08d6 1A46     		mov	r2, r3
 1457 08d8 0B4B     		ldr	r3, .L201+4
 1458 08da 1344     		add	r3, r3, r2
 1459 08dc 1A46     		mov	r2, r3
 1460 08de 0023     		movs	r3, #0
 1461 08e0 1360     		str	r3, [r2]
 435:Drivers/STM32F3xx_HAL_Driver/Src/stm32f3xx_hal_rcc.c ****       
ARM GAS  /var/folders/0z/_3zh0q697778kwks4bv8s9bh0000gn/T//ccJVqLQz.s 			page 45


 436:Drivers/STM32F3xx_HAL_Driver/Src/stm32f3xx_hal_rcc.c ****       /* Get Start Tick */
 437:Drivers/STM32F3xx_HAL_Driver/Src/stm32f3xx_hal_rcc.c ****       tickstart = HAL_GetTick();
 1462              		.loc 1 437 0
 1463 08e2 FFF7FEFF 		bl	HAL_GetTick
 1464 08e6 C7F8F801 		str	r0, [r7, #504]
 438:Drivers/STM32F3xx_HAL_Driver/Src/stm32f3xx_hal_rcc.c ****       
 439:Drivers/STM32F3xx_HAL_Driver/Src/stm32f3xx_hal_rcc.c ****       /* Wait till LSI is disabled */  
 440:Drivers/STM32F3xx_HAL_Driver/Src/stm32f3xx_hal_rcc.c ****       while(__HAL_RCC_GET_FLAG(RCC_FLAG_LSIRDY) != RESET)
 1465              		.loc 1 440 0
 1466 08ea 0FE0     		b	.L108
 1467              	.L119:
 441:Drivers/STM32F3xx_HAL_Driver/Src/stm32f3xx_hal_rcc.c ****       {
 442:Drivers/STM32F3xx_HAL_Driver/Src/stm32f3xx_hal_rcc.c ****         if((HAL_GetTick() - tickstart ) > LSI_TIMEOUT_VALUE)
 1468              		.loc 1 442 0
 1469 08ec FFF7FEFF 		bl	HAL_GetTick
 1470 08f0 0246     		mov	r2, r0
 1471 08f2 D7F8F831 		ldr	r3, [r7, #504]
 1472 08f6 D31A     		subs	r3, r2, r3
 1473 08f8 022B     		cmp	r3, #2
 1474 08fa 07D9     		bls	.L108
 443:Drivers/STM32F3xx_HAL_Driver/Src/stm32f3xx_hal_rcc.c ****         {
 444:Drivers/STM32F3xx_HAL_Driver/Src/stm32f3xx_hal_rcc.c ****           return HAL_TIMEOUT;
 1475              		.loc 1 444 0
 1476 08fc 0323     		movs	r3, #3
 1477 08fe 00F03ABC 		b	.L19
 1478              	.L202:
 1479 0902 00BF     		.align	2
 1480              	.L201:
 1481 0904 00100240 		.word	1073876992
 1482 0908 80044242 		.word	1111622784
 1483              	.L108:
 1484 090c 07F1E403 		add	r3, r7, #228
 1485 0910 0222     		movs	r2, #2
 1486 0912 1A60     		str	r2, [r3]
 1487              	.LBB234:
 1488              	.LBB235:
 531:Drivers/CMSIS/Include/cmsis_gcc.h **** #else
 1489              		.loc 2 531 0
 1490 0914 07F1E403 		add	r3, r7, #228
 1491 0918 1B68     		ldr	r3, [r3]
 1492              	@ 531 "Drivers/CMSIS/Include/cmsis_gcc.h" 1
 1493 091a 93FAA3F2 		rbit r2, r3
 1494              	@ 0 "" 2
 1495              		.thumb
 1496 091e 07F1E003 		add	r3, r7, #224
 1497 0922 1A60     		str	r2, [r3]
 1498              		.loc 2 544 0
 1499 0924 07F1E003 		add	r3, r7, #224
 1500 0928 1B68     		ldr	r3, [r3]
 1501              	.LBE235:
 1502              	.LBE234:
 440:Drivers/STM32F3xx_HAL_Driver/Src/stm32f3xx_hal_rcc.c ****       {
 1503              		.loc 1 440 0
 1504 092a B3FA83F3 		clz	r3, r3
 1505 092e DBB2     		uxtb	r3, r3
 1506 0930 43F06003 		orr	r3, r3, #96
 1507 0934 DBB2     		uxtb	r3, r3
ARM GAS  /var/folders/0z/_3zh0q697778kwks4bv8s9bh0000gn/T//ccJVqLQz.s 			page 46


 1508 0936 DBB2     		uxtb	r3, r3
 1509 0938 5B09     		lsrs	r3, r3, #5
 1510 093a DBB2     		uxtb	r3, r3
 1511 093c 012B     		cmp	r3, #1
 1512 093e 02D1     		bne	.L110
 440:Drivers/STM32F3xx_HAL_Driver/Src/stm32f3xx_hal_rcc.c ****       {
 1513              		.loc 1 440 0 is_stmt 0 discriminator 1
 1514 0940 A54B     		ldr	r3, .L203
 1515 0942 1B68     		ldr	r3, [r3]
 1516 0944 3BE0     		b	.L111
 1517              	.L110:
 1518 0946 07F1DC03 		add	r3, r7, #220
 1519 094a 0222     		movs	r2, #2
 1520 094c 1A60     		str	r2, [r3]
 1521              	.LBB236:
 1522              	.LBB237:
 531:Drivers/CMSIS/Include/cmsis_gcc.h **** #else
 1523              		.loc 2 531 0 is_stmt 1 discriminator 2
 1524 094e 07F1DC03 		add	r3, r7, #220
 1525 0952 1B68     		ldr	r3, [r3]
 1526              	@ 531 "Drivers/CMSIS/Include/cmsis_gcc.h" 1
 1527 0954 93FAA3F2 		rbit r2, r3
 1528              	@ 0 "" 2
 1529              		.thumb
 1530 0958 07F1D803 		add	r3, r7, #216
 1531 095c 1A60     		str	r2, [r3]
 1532              		.loc 2 544 0 discriminator 2
 1533 095e 07F1D803 		add	r3, r7, #216
 1534 0962 1B68     		ldr	r3, [r3]
 1535              	.LBE237:
 1536              	.LBE236:
 440:Drivers/STM32F3xx_HAL_Driver/Src/stm32f3xx_hal_rcc.c ****       {
 1537              		.loc 1 440 0 discriminator 2
 1538 0964 B3FA83F3 		clz	r3, r3
 1539 0968 DBB2     		uxtb	r3, r3
 1540 096a 43F06003 		orr	r3, r3, #96
 1541 096e DBB2     		uxtb	r3, r3
 1542 0970 DBB2     		uxtb	r3, r3
 1543 0972 5B09     		lsrs	r3, r3, #5
 1544 0974 DBB2     		uxtb	r3, r3
 1545 0976 022B     		cmp	r3, #2
 1546 0978 02D1     		bne	.L113
 440:Drivers/STM32F3xx_HAL_Driver/Src/stm32f3xx_hal_rcc.c ****       {
 1547              		.loc 1 440 0 is_stmt 0 discriminator 4
 1548 097a 974B     		ldr	r3, .L203
 1549 097c 1B6A     		ldr	r3, [r3, #32]
 1550 097e 1EE0     		b	.L111
 1551              	.L113:
 1552 0980 07F1D403 		add	r3, r7, #212
 1553 0984 0222     		movs	r2, #2
 1554 0986 1A60     		str	r2, [r3]
 1555              	.LBB238:
 1556              	.LBB239:
 531:Drivers/CMSIS/Include/cmsis_gcc.h **** #else
 1557              		.loc 2 531 0 is_stmt 1 discriminator 5
 1558 0988 07F1D403 		add	r3, r7, #212
 1559 098c 1B68     		ldr	r3, [r3]
ARM GAS  /var/folders/0z/_3zh0q697778kwks4bv8s9bh0000gn/T//ccJVqLQz.s 			page 47


 1560              	@ 531 "Drivers/CMSIS/Include/cmsis_gcc.h" 1
 1561 098e 93FAA3F2 		rbit r2, r3
 1562              	@ 0 "" 2
 1563              		.thumb
 1564 0992 07F1D003 		add	r3, r7, #208
 1565 0996 1A60     		str	r2, [r3]
 1566              		.loc 2 544 0 discriminator 5
 1567 0998 07F1D003 		add	r3, r7, #208
 1568 099c 1B68     		ldr	r3, [r3]
 1569              	.LBE239:
 1570              	.LBE238:
 440:Drivers/STM32F3xx_HAL_Driver/Src/stm32f3xx_hal_rcc.c ****       {
 1571              		.loc 1 440 0 discriminator 5
 1572 099e B3FA83F3 		clz	r3, r3
 1573 09a2 DBB2     		uxtb	r3, r3
 1574 09a4 43F06003 		orr	r3, r3, #96
 1575 09a8 DBB2     		uxtb	r3, r3
 1576 09aa DBB2     		uxtb	r3, r3
 1577 09ac 5B09     		lsrs	r3, r3, #5
 1578 09ae DBB2     		uxtb	r3, r3
 1579 09b0 042B     		cmp	r3, #4
 1580 09b2 02D1     		bne	.L116
 440:Drivers/STM32F3xx_HAL_Driver/Src/stm32f3xx_hal_rcc.c ****       {
 1581              		.loc 1 440 0 is_stmt 0 discriminator 7
 1582 09b4 884B     		ldr	r3, .L203
 1583 09b6 5B68     		ldr	r3, [r3, #4]
 1584 09b8 01E0     		b	.L111
 1585              	.L116:
 440:Drivers/STM32F3xx_HAL_Driver/Src/stm32f3xx_hal_rcc.c ****       {
 1586              		.loc 1 440 0 discriminator 8
 1587 09ba 874B     		ldr	r3, .L203
 1588 09bc 5B6A     		ldr	r3, [r3, #36]
 1589              	.L111:
 1590 09be 07F1CC02 		add	r2, r7, #204
 1591 09c2 0221     		movs	r1, #2
 1592 09c4 1160     		str	r1, [r2]
 1593              	.LBB240:
 1594              	.LBB241:
 531:Drivers/CMSIS/Include/cmsis_gcc.h **** #else
 1595              		.loc 2 531 0 is_stmt 1 discriminator 12
 1596 09c6 07F1CC02 		add	r2, r7, #204
 1597 09ca 1268     		ldr	r2, [r2]
 1598              	@ 531 "Drivers/CMSIS/Include/cmsis_gcc.h" 1
 1599 09cc 92FAA2F1 		rbit r1, r2
 1600              	@ 0 "" 2
 1601              		.thumb
 1602 09d0 07F1C802 		add	r2, r7, #200
 1603 09d4 1160     		str	r1, [r2]
 1604              		.loc 2 544 0 discriminator 12
 1605 09d6 07F1C802 		add	r2, r7, #200
 1606 09da 1268     		ldr	r2, [r2]
 1607              	.LBE241:
 1608              	.LBE240:
 440:Drivers/STM32F3xx_HAL_Driver/Src/stm32f3xx_hal_rcc.c ****       {
 1609              		.loc 1 440 0 discriminator 12
 1610 09dc B2FA82F2 		clz	r2, r2
 1611 09e0 D2B2     		uxtb	r2, r2
ARM GAS  /var/folders/0z/_3zh0q697778kwks4bv8s9bh0000gn/T//ccJVqLQz.s 			page 48


 1612 09e2 42F06002 		orr	r2, r2, #96
 1613 09e6 D2B2     		uxtb	r2, r2
 1614 09e8 D2B2     		uxtb	r2, r2
 1615 09ea 02F01F02 		and	r2, r2, #31
 1616 09ee D340     		lsrs	r3, r3, r2
 1617 09f0 03F00103 		and	r3, r3, #1
 1618 09f4 002B     		cmp	r3, #0
 1619 09f6 7FF479AF 		bne	.L119
 1620              	.L92:
 445:Drivers/STM32F3xx_HAL_Driver/Src/stm32f3xx_hal_rcc.c ****         }
 446:Drivers/STM32F3xx_HAL_Driver/Src/stm32f3xx_hal_rcc.c ****       }
 447:Drivers/STM32F3xx_HAL_Driver/Src/stm32f3xx_hal_rcc.c ****     }
 448:Drivers/STM32F3xx_HAL_Driver/Src/stm32f3xx_hal_rcc.c ****   }
 449:Drivers/STM32F3xx_HAL_Driver/Src/stm32f3xx_hal_rcc.c ****   /*------------------------------ LSE Configuration -------------------------*/ 
 450:Drivers/STM32F3xx_HAL_Driver/Src/stm32f3xx_hal_rcc.c ****   if(((RCC_OscInitStruct->OscillatorType) & RCC_OSCILLATORTYPE_LSE) == RCC_OSCILLATORTYPE_LSE)
 1621              		.loc 1 450 0
 1622 09fa 3B1D     		adds	r3, r7, #4
 1623 09fc 1B68     		ldr	r3, [r3]
 1624 09fe 1B68     		ldr	r3, [r3]
 1625 0a00 03F00403 		and	r3, r3, #4
 1626 0a04 002B     		cmp	r3, #0
 1627 0a06 00F09E81 		beq	.L120
 1628              	.LBB242:
 451:Drivers/STM32F3xx_HAL_Driver/Src/stm32f3xx_hal_rcc.c ****   {
 452:Drivers/STM32F3xx_HAL_Driver/Src/stm32f3xx_hal_rcc.c ****     FlagStatus       pwrclkchanged = RESET;
 1629              		.loc 1 452 0
 1630 0a0a 0023     		movs	r3, #0
 1631 0a0c 87F8FF31 		strb	r3, [r7, #511]
 453:Drivers/STM32F3xx_HAL_Driver/Src/stm32f3xx_hal_rcc.c ****     
 454:Drivers/STM32F3xx_HAL_Driver/Src/stm32f3xx_hal_rcc.c ****     /* Check the parameters */
 455:Drivers/STM32F3xx_HAL_Driver/Src/stm32f3xx_hal_rcc.c ****     assert_param(IS_RCC_LSE(RCC_OscInitStruct->LSEState));
 456:Drivers/STM32F3xx_HAL_Driver/Src/stm32f3xx_hal_rcc.c **** 
 457:Drivers/STM32F3xx_HAL_Driver/Src/stm32f3xx_hal_rcc.c ****     /* Update LSE configuration in Backup Domain control register    */
 458:Drivers/STM32F3xx_HAL_Driver/Src/stm32f3xx_hal_rcc.c ****     /* Requires to enable write access to Backup Domain of necessary */
 459:Drivers/STM32F3xx_HAL_Driver/Src/stm32f3xx_hal_rcc.c ****     if(__HAL_RCC_PWR_IS_CLK_DISABLED())
 1632              		.loc 1 459 0
 1633 0a10 714B     		ldr	r3, .L203
 1634 0a12 DB69     		ldr	r3, [r3, #28]
 1635 0a14 03F08053 		and	r3, r3, #268435456
 1636 0a18 002B     		cmp	r3, #0
 1637 0a1a 12D1     		bne	.L121
 1638              	.LBB243:
 460:Drivers/STM32F3xx_HAL_Driver/Src/stm32f3xx_hal_rcc.c ****     {
 461:Drivers/STM32F3xx_HAL_Driver/Src/stm32f3xx_hal_rcc.c ****       __HAL_RCC_PWR_CLK_ENABLE();
 1639              		.loc 1 461 0
 1640 0a1c 6E4A     		ldr	r2, .L203
 1641 0a1e 6E4B     		ldr	r3, .L203
 1642 0a20 DB69     		ldr	r3, [r3, #28]
 1643 0a22 43F08053 		orr	r3, r3, #268435456
 1644 0a26 D361     		str	r3, [r2, #28]
 1645 0a28 6B4B     		ldr	r3, .L203
 1646 0a2a DB69     		ldr	r3, [r3, #28]
 1647 0a2c 03F08052 		and	r2, r3, #268435456
 1648 0a30 07F10C03 		add	r3, r7, #12
 1649 0a34 1A60     		str	r2, [r3]
 1650 0a36 07F10C03 		add	r3, r7, #12
 1651 0a3a 1B68     		ldr	r3, [r3]
ARM GAS  /var/folders/0z/_3zh0q697778kwks4bv8s9bh0000gn/T//ccJVqLQz.s 			page 49


 1652              	.LBE243:
 462:Drivers/STM32F3xx_HAL_Driver/Src/stm32f3xx_hal_rcc.c ****       pwrclkchanged = SET;
 1653              		.loc 1 462 0
 1654 0a3c 0123     		movs	r3, #1
 1655 0a3e 87F8FF31 		strb	r3, [r7, #511]
 1656              	.L121:
 463:Drivers/STM32F3xx_HAL_Driver/Src/stm32f3xx_hal_rcc.c ****     }
 464:Drivers/STM32F3xx_HAL_Driver/Src/stm32f3xx_hal_rcc.c ****     
 465:Drivers/STM32F3xx_HAL_Driver/Src/stm32f3xx_hal_rcc.c ****     if(HAL_IS_BIT_CLR(PWR->CR, PWR_CR_DBP))
 1657              		.loc 1 465 0
 1658 0a42 664B     		ldr	r3, .L203+4
 1659 0a44 1B68     		ldr	r3, [r3]
 1660 0a46 03F48073 		and	r3, r3, #256
 1661 0a4a 002B     		cmp	r3, #0
 1662 0a4c 1AD1     		bne	.L122
 466:Drivers/STM32F3xx_HAL_Driver/Src/stm32f3xx_hal_rcc.c ****     {
 467:Drivers/STM32F3xx_HAL_Driver/Src/stm32f3xx_hal_rcc.c ****       /* Enable write access to Backup domain */
 468:Drivers/STM32F3xx_HAL_Driver/Src/stm32f3xx_hal_rcc.c ****       SET_BIT(PWR->CR, PWR_CR_DBP);
 1663              		.loc 1 468 0
 1664 0a4e 634A     		ldr	r2, .L203+4
 1665 0a50 624B     		ldr	r3, .L203+4
 1666 0a52 1B68     		ldr	r3, [r3]
 1667 0a54 43F48073 		orr	r3, r3, #256
 1668 0a58 1360     		str	r3, [r2]
 469:Drivers/STM32F3xx_HAL_Driver/Src/stm32f3xx_hal_rcc.c ****       
 470:Drivers/STM32F3xx_HAL_Driver/Src/stm32f3xx_hal_rcc.c ****       /* Wait for Backup domain Write protection disable */
 471:Drivers/STM32F3xx_HAL_Driver/Src/stm32f3xx_hal_rcc.c ****       tickstart = HAL_GetTick();
 1669              		.loc 1 471 0
 1670 0a5a FFF7FEFF 		bl	HAL_GetTick
 1671 0a5e C7F8F801 		str	r0, [r7, #504]
 472:Drivers/STM32F3xx_HAL_Driver/Src/stm32f3xx_hal_rcc.c **** 
 473:Drivers/STM32F3xx_HAL_Driver/Src/stm32f3xx_hal_rcc.c ****       while(HAL_IS_BIT_CLR(PWR->CR, PWR_CR_DBP))
 1672              		.loc 1 473 0
 1673 0a62 09E0     		b	.L123
 1674              	.L124:
 474:Drivers/STM32F3xx_HAL_Driver/Src/stm32f3xx_hal_rcc.c ****       {
 475:Drivers/STM32F3xx_HAL_Driver/Src/stm32f3xx_hal_rcc.c ****         if((HAL_GetTick() - tickstart) > RCC_DBP_TIMEOUT_VALUE)
 1675              		.loc 1 475 0
 1676 0a64 FFF7FEFF 		bl	HAL_GetTick
 1677 0a68 0246     		mov	r2, r0
 1678 0a6a D7F8F831 		ldr	r3, [r7, #504]
 1679 0a6e D31A     		subs	r3, r2, r3
 1680 0a70 642B     		cmp	r3, #100
 1681 0a72 01D9     		bls	.L123
 476:Drivers/STM32F3xx_HAL_Driver/Src/stm32f3xx_hal_rcc.c ****         {
 477:Drivers/STM32F3xx_HAL_Driver/Src/stm32f3xx_hal_rcc.c ****           return HAL_TIMEOUT;
 1682              		.loc 1 477 0
 1683 0a74 0323     		movs	r3, #3
 1684 0a76 7EE3     		b	.L19
 1685              	.L123:
 473:Drivers/STM32F3xx_HAL_Driver/Src/stm32f3xx_hal_rcc.c ****       {
 1686              		.loc 1 473 0
 1687 0a78 584B     		ldr	r3, .L203+4
 1688 0a7a 1B68     		ldr	r3, [r3]
 1689 0a7c 03F48073 		and	r3, r3, #256
 1690 0a80 002B     		cmp	r3, #0
 1691 0a82 EFD0     		beq	.L124
ARM GAS  /var/folders/0z/_3zh0q697778kwks4bv8s9bh0000gn/T//ccJVqLQz.s 			page 50


 1692              	.L122:
 478:Drivers/STM32F3xx_HAL_Driver/Src/stm32f3xx_hal_rcc.c ****         }
 479:Drivers/STM32F3xx_HAL_Driver/Src/stm32f3xx_hal_rcc.c ****       }
 480:Drivers/STM32F3xx_HAL_Driver/Src/stm32f3xx_hal_rcc.c ****     }
 481:Drivers/STM32F3xx_HAL_Driver/Src/stm32f3xx_hal_rcc.c **** 
 482:Drivers/STM32F3xx_HAL_Driver/Src/stm32f3xx_hal_rcc.c ****     /* Set the new LSE configuration -----------------------------------------*/
 483:Drivers/STM32F3xx_HAL_Driver/Src/stm32f3xx_hal_rcc.c ****     __HAL_RCC_LSE_CONFIG(RCC_OscInitStruct->LSEState);
 1693              		.loc 1 483 0
 1694 0a84 3B1D     		adds	r3, r7, #4
 1695 0a86 1B68     		ldr	r3, [r3]
 1696 0a88 DB68     		ldr	r3, [r3, #12]
 1697 0a8a 012B     		cmp	r3, #1
 1698 0a8c 06D1     		bne	.L125
 1699              		.loc 1 483 0 is_stmt 0 discriminator 1
 1700 0a8e 524A     		ldr	r2, .L203
 1701 0a90 514B     		ldr	r3, .L203
 1702 0a92 1B6A     		ldr	r3, [r3, #32]
 1703 0a94 43F00103 		orr	r3, r3, #1
 1704 0a98 1362     		str	r3, [r2, #32]
 1705 0a9a 2FE0     		b	.L126
 1706              	.L125:
 1707              		.loc 1 483 0 discriminator 2
 1708 0a9c 3B1D     		adds	r3, r7, #4
 1709 0a9e 1B68     		ldr	r3, [r3]
 1710 0aa0 DB68     		ldr	r3, [r3, #12]
 1711 0aa2 002B     		cmp	r3, #0
 1712 0aa4 0CD1     		bne	.L127
 1713              		.loc 1 483 0 discriminator 3
 1714 0aa6 4C4A     		ldr	r2, .L203
 1715 0aa8 4B4B     		ldr	r3, .L203
 1716 0aaa 1B6A     		ldr	r3, [r3, #32]
 1717 0aac 23F00103 		bic	r3, r3, #1
 1718 0ab0 1362     		str	r3, [r2, #32]
 1719 0ab2 494A     		ldr	r2, .L203
 1720 0ab4 484B     		ldr	r3, .L203
 1721 0ab6 1B6A     		ldr	r3, [r3, #32]
 1722 0ab8 23F00403 		bic	r3, r3, #4
 1723 0abc 1362     		str	r3, [r2, #32]
 1724 0abe 1DE0     		b	.L126
 1725              	.L127:
 1726              		.loc 1 483 0 discriminator 4
 1727 0ac0 3B1D     		adds	r3, r7, #4
 1728 0ac2 1B68     		ldr	r3, [r3]
 1729 0ac4 DB68     		ldr	r3, [r3, #12]
 1730 0ac6 052B     		cmp	r3, #5
 1731 0ac8 0CD1     		bne	.L128
 1732              		.loc 1 483 0 discriminator 5
 1733 0aca 434A     		ldr	r2, .L203
 1734 0acc 424B     		ldr	r3, .L203
 1735 0ace 1B6A     		ldr	r3, [r3, #32]
 1736 0ad0 43F00403 		orr	r3, r3, #4
 1737 0ad4 1362     		str	r3, [r2, #32]
 1738 0ad6 404A     		ldr	r2, .L203
 1739 0ad8 3F4B     		ldr	r3, .L203
 1740 0ada 1B6A     		ldr	r3, [r3, #32]
 1741 0adc 43F00103 		orr	r3, r3, #1
 1742 0ae0 1362     		str	r3, [r2, #32]
ARM GAS  /var/folders/0z/_3zh0q697778kwks4bv8s9bh0000gn/T//ccJVqLQz.s 			page 51


 1743 0ae2 0BE0     		b	.L126
 1744              	.L128:
 1745              		.loc 1 483 0 discriminator 6
 1746 0ae4 3C4A     		ldr	r2, .L203
 1747 0ae6 3C4B     		ldr	r3, .L203
 1748 0ae8 1B6A     		ldr	r3, [r3, #32]
 1749 0aea 23F00103 		bic	r3, r3, #1
 1750 0aee 1362     		str	r3, [r2, #32]
 1751 0af0 394A     		ldr	r2, .L203
 1752 0af2 394B     		ldr	r3, .L203
 1753 0af4 1B6A     		ldr	r3, [r3, #32]
 1754 0af6 23F00403 		bic	r3, r3, #4
 1755 0afa 1362     		str	r3, [r2, #32]
 1756              	.L126:
 484:Drivers/STM32F3xx_HAL_Driver/Src/stm32f3xx_hal_rcc.c ****     /* Check the LSE State */
 485:Drivers/STM32F3xx_HAL_Driver/Src/stm32f3xx_hal_rcc.c ****     if(RCC_OscInitStruct->LSEState != RCC_LSE_OFF)
 1757              		.loc 1 485 0 is_stmt 1
 1758 0afc 3B1D     		adds	r3, r7, #4
 1759 0afe 1B68     		ldr	r3, [r3]
 1760 0b00 DB68     		ldr	r3, [r3, #12]
 1761 0b02 002B     		cmp	r3, #0
 1762 0b04 00F08D80 		beq	.L129
 486:Drivers/STM32F3xx_HAL_Driver/Src/stm32f3xx_hal_rcc.c ****     {
 487:Drivers/STM32F3xx_HAL_Driver/Src/stm32f3xx_hal_rcc.c ****       /* Get Start Tick */
 488:Drivers/STM32F3xx_HAL_Driver/Src/stm32f3xx_hal_rcc.c ****       tickstart = HAL_GetTick();
 1763              		.loc 1 488 0
 1764 0b08 FFF7FEFF 		bl	HAL_GetTick
 1765 0b0c C7F8F801 		str	r0, [r7, #504]
 489:Drivers/STM32F3xx_HAL_Driver/Src/stm32f3xx_hal_rcc.c ****       
 490:Drivers/STM32F3xx_HAL_Driver/Src/stm32f3xx_hal_rcc.c ****       /* Wait till LSE is ready */  
 491:Drivers/STM32F3xx_HAL_Driver/Src/stm32f3xx_hal_rcc.c ****       while(__HAL_RCC_GET_FLAG(RCC_FLAG_LSERDY) == RESET)
 1766              		.loc 1 491 0
 1767 0b10 0BE0     		b	.L130
 1768              	.L141:
 492:Drivers/STM32F3xx_HAL_Driver/Src/stm32f3xx_hal_rcc.c ****       {
 493:Drivers/STM32F3xx_HAL_Driver/Src/stm32f3xx_hal_rcc.c ****         if((HAL_GetTick() - tickstart ) > RCC_LSE_TIMEOUT_VALUE)
 1769              		.loc 1 493 0
 1770 0b12 FFF7FEFF 		bl	HAL_GetTick
 1771 0b16 0246     		mov	r2, r0
 1772 0b18 D7F8F831 		ldr	r3, [r7, #504]
 1773 0b1c D31A     		subs	r3, r2, r3
 1774 0b1e 41F28832 		movw	r2, #5000
 1775 0b22 9342     		cmp	r3, r2
 1776 0b24 01D9     		bls	.L130
 494:Drivers/STM32F3xx_HAL_Driver/Src/stm32f3xx_hal_rcc.c ****         {
 495:Drivers/STM32F3xx_HAL_Driver/Src/stm32f3xx_hal_rcc.c ****           return HAL_TIMEOUT;
 1777              		.loc 1 495 0
 1778 0b26 0323     		movs	r3, #3
 1779 0b28 25E3     		b	.L19
 1780              	.L130:
 1781 0b2a 07F1C403 		add	r3, r7, #196
 1782 0b2e 0222     		movs	r2, #2
 1783 0b30 1A60     		str	r2, [r3]
 1784              	.LBB244:
 1785              	.LBB245:
 531:Drivers/CMSIS/Include/cmsis_gcc.h **** #else
 1786              		.loc 2 531 0
ARM GAS  /var/folders/0z/_3zh0q697778kwks4bv8s9bh0000gn/T//ccJVqLQz.s 			page 52


 1787 0b32 07F1C403 		add	r3, r7, #196
 1788 0b36 1B68     		ldr	r3, [r3]
 1789              	@ 531 "Drivers/CMSIS/Include/cmsis_gcc.h" 1
 1790 0b38 93FAA3F2 		rbit r2, r3
 1791              	@ 0 "" 2
 1792              		.thumb
 1793 0b3c 07F1C003 		add	r3, r7, #192
 1794 0b40 1A60     		str	r2, [r3]
 1795              		.loc 2 544 0
 1796 0b42 07F1C003 		add	r3, r7, #192
 1797 0b46 1B68     		ldr	r3, [r3]
 1798              	.LBE245:
 1799              	.LBE244:
 491:Drivers/STM32F3xx_HAL_Driver/Src/stm32f3xx_hal_rcc.c ****       {
 1800              		.loc 1 491 0
 1801 0b48 B3FA83F3 		clz	r3, r3
 1802 0b4c DBB2     		uxtb	r3, r3
 1803 0b4e 43F04003 		orr	r3, r3, #64
 1804 0b52 DBB2     		uxtb	r3, r3
 1805 0b54 DBB2     		uxtb	r3, r3
 1806 0b56 5B09     		lsrs	r3, r3, #5
 1807 0b58 DBB2     		uxtb	r3, r3
 1808 0b5a 012B     		cmp	r3, #1
 1809 0b5c 02D1     		bne	.L132
 491:Drivers/STM32F3xx_HAL_Driver/Src/stm32f3xx_hal_rcc.c ****       {
 1810              		.loc 1 491 0 is_stmt 0 discriminator 1
 1811 0b5e 1E4B     		ldr	r3, .L203
 1812 0b60 1B68     		ldr	r3, [r3]
 1813 0b62 3FE0     		b	.L133
 1814              	.L132:
 1815 0b64 07F1BC03 		add	r3, r7, #188
 1816 0b68 0222     		movs	r2, #2
 1817 0b6a 1A60     		str	r2, [r3]
 1818              	.LBB246:
 1819              	.LBB247:
 531:Drivers/CMSIS/Include/cmsis_gcc.h **** #else
 1820              		.loc 2 531 0 is_stmt 1 discriminator 2
 1821 0b6c 07F1BC03 		add	r3, r7, #188
 1822 0b70 1B68     		ldr	r3, [r3]
 1823              	@ 531 "Drivers/CMSIS/Include/cmsis_gcc.h" 1
 1824 0b72 93FAA3F2 		rbit r2, r3
 1825              	@ 0 "" 2
 1826              		.thumb
 1827 0b76 07F1B803 		add	r3, r7, #184
 1828 0b7a 1A60     		str	r2, [r3]
 1829              		.loc 2 544 0 discriminator 2
 1830 0b7c 07F1B803 		add	r3, r7, #184
 1831 0b80 1B68     		ldr	r3, [r3]
 1832              	.LBE247:
 1833              	.LBE246:
 491:Drivers/STM32F3xx_HAL_Driver/Src/stm32f3xx_hal_rcc.c ****       {
 1834              		.loc 1 491 0 discriminator 2
 1835 0b82 B3FA83F3 		clz	r3, r3
 1836 0b86 DBB2     		uxtb	r3, r3
 1837 0b88 43F04003 		orr	r3, r3, #64
 1838 0b8c DBB2     		uxtb	r3, r3
 1839 0b8e DBB2     		uxtb	r3, r3
ARM GAS  /var/folders/0z/_3zh0q697778kwks4bv8s9bh0000gn/T//ccJVqLQz.s 			page 53


 1840 0b90 5B09     		lsrs	r3, r3, #5
 1841 0b92 DBB2     		uxtb	r3, r3
 1842 0b94 022B     		cmp	r3, #2
 1843 0b96 02D1     		bne	.L135
 491:Drivers/STM32F3xx_HAL_Driver/Src/stm32f3xx_hal_rcc.c ****       {
 1844              		.loc 1 491 0 is_stmt 0 discriminator 4
 1845 0b98 0F4B     		ldr	r3, .L203
 1846 0b9a 1B6A     		ldr	r3, [r3, #32]
 1847 0b9c 22E0     		b	.L133
 1848              	.L135:
 1849 0b9e 07F1B403 		add	r3, r7, #180
 1850 0ba2 0222     		movs	r2, #2
 1851 0ba4 1A60     		str	r2, [r3]
 1852              	.LBB248:
 1853              	.LBB249:
 531:Drivers/CMSIS/Include/cmsis_gcc.h **** #else
 1854              		.loc 2 531 0 is_stmt 1 discriminator 5
 1855 0ba6 07F1B403 		add	r3, r7, #180
 1856 0baa 1B68     		ldr	r3, [r3]
 1857              	@ 531 "Drivers/CMSIS/Include/cmsis_gcc.h" 1
 1858 0bac 93FAA3F2 		rbit r2, r3
 1859              	@ 0 "" 2
 1860              		.thumb
 1861 0bb0 07F1B003 		add	r3, r7, #176
 1862 0bb4 1A60     		str	r2, [r3]
 1863              		.loc 2 544 0 discriminator 5
 1864 0bb6 07F1B003 		add	r3, r7, #176
 1865 0bba 1B68     		ldr	r3, [r3]
 1866              	.LBE249:
 1867              	.LBE248:
 491:Drivers/STM32F3xx_HAL_Driver/Src/stm32f3xx_hal_rcc.c ****       {
 1868              		.loc 1 491 0 discriminator 5
 1869 0bbc B3FA83F3 		clz	r3, r3
 1870 0bc0 DBB2     		uxtb	r3, r3
 1871 0bc2 43F04003 		orr	r3, r3, #64
 1872 0bc6 DBB2     		uxtb	r3, r3
 1873 0bc8 DBB2     		uxtb	r3, r3
 1874 0bca 5B09     		lsrs	r3, r3, #5
 1875 0bcc DBB2     		uxtb	r3, r3
 1876 0bce 042B     		cmp	r3, #4
 1877 0bd0 06D1     		bne	.L138
 491:Drivers/STM32F3xx_HAL_Driver/Src/stm32f3xx_hal_rcc.c ****       {
 1878              		.loc 1 491 0 is_stmt 0 discriminator 7
 1879 0bd2 014B     		ldr	r3, .L203
 1880 0bd4 5B68     		ldr	r3, [r3, #4]
 1881 0bd6 05E0     		b	.L133
 1882              	.L204:
 1883              		.align	2
 1884              	.L203:
 1885 0bd8 00100240 		.word	1073876992
 1886 0bdc 00700040 		.word	1073770496
 1887              	.L138:
 491:Drivers/STM32F3xx_HAL_Driver/Src/stm32f3xx_hal_rcc.c ****       {
 1888              		.loc 1 491 0 discriminator 8
 1889 0be0 A44B     		ldr	r3, .L205
 1890 0be2 5B6A     		ldr	r3, [r3, #36]
 1891              	.L133:
ARM GAS  /var/folders/0z/_3zh0q697778kwks4bv8s9bh0000gn/T//ccJVqLQz.s 			page 54


 1892 0be4 07F1AC02 		add	r2, r7, #172
 1893 0be8 0221     		movs	r1, #2
 1894 0bea 1160     		str	r1, [r2]
 1895              	.LBB250:
 1896              	.LBB251:
 531:Drivers/CMSIS/Include/cmsis_gcc.h **** #else
 1897              		.loc 2 531 0 is_stmt 1 discriminator 12
 1898 0bec 07F1AC02 		add	r2, r7, #172
 1899 0bf0 1268     		ldr	r2, [r2]
 1900              	@ 531 "Drivers/CMSIS/Include/cmsis_gcc.h" 1
 1901 0bf2 92FAA2F1 		rbit r1, r2
 1902              	@ 0 "" 2
 1903              		.thumb
 1904 0bf6 07F1A802 		add	r2, r7, #168
 1905 0bfa 1160     		str	r1, [r2]
 1906              		.loc 2 544 0 discriminator 12
 1907 0bfc 07F1A802 		add	r2, r7, #168
 1908 0c00 1268     		ldr	r2, [r2]
 1909              	.LBE251:
 1910              	.LBE250:
 491:Drivers/STM32F3xx_HAL_Driver/Src/stm32f3xx_hal_rcc.c ****       {
 1911              		.loc 1 491 0 discriminator 12
 1912 0c02 B2FA82F2 		clz	r2, r2
 1913 0c06 D2B2     		uxtb	r2, r2
 1914 0c08 42F04002 		orr	r2, r2, #64
 1915 0c0c D2B2     		uxtb	r2, r2
 1916 0c0e D2B2     		uxtb	r2, r2
 1917 0c10 02F01F02 		and	r2, r2, #31
 1918 0c14 D340     		lsrs	r3, r3, r2
 1919 0c16 03F00103 		and	r3, r3, #1
 1920 0c1a 002B     		cmp	r3, #0
 1921 0c1c 3FF479AF 		beq	.L141
 1922 0c20 87E0     		b	.L142
 1923              	.L129:
 496:Drivers/STM32F3xx_HAL_Driver/Src/stm32f3xx_hal_rcc.c ****         }
 497:Drivers/STM32F3xx_HAL_Driver/Src/stm32f3xx_hal_rcc.c ****       }
 498:Drivers/STM32F3xx_HAL_Driver/Src/stm32f3xx_hal_rcc.c ****     }
 499:Drivers/STM32F3xx_HAL_Driver/Src/stm32f3xx_hal_rcc.c ****     else
 500:Drivers/STM32F3xx_HAL_Driver/Src/stm32f3xx_hal_rcc.c ****     {
 501:Drivers/STM32F3xx_HAL_Driver/Src/stm32f3xx_hal_rcc.c ****       /* Get Start Tick */
 502:Drivers/STM32F3xx_HAL_Driver/Src/stm32f3xx_hal_rcc.c ****       tickstart = HAL_GetTick();
 1924              		.loc 1 502 0
 1925 0c22 FFF7FEFF 		bl	HAL_GetTick
 1926 0c26 C7F8F801 		str	r0, [r7, #504]
 503:Drivers/STM32F3xx_HAL_Driver/Src/stm32f3xx_hal_rcc.c ****       
 504:Drivers/STM32F3xx_HAL_Driver/Src/stm32f3xx_hal_rcc.c ****       /* Wait till LSE is disabled */  
 505:Drivers/STM32F3xx_HAL_Driver/Src/stm32f3xx_hal_rcc.c ****       while(__HAL_RCC_GET_FLAG(RCC_FLAG_LSERDY) != RESET)
 1927              		.loc 1 505 0
 1928 0c2a 0BE0     		b	.L143
 1929              	.L154:
 506:Drivers/STM32F3xx_HAL_Driver/Src/stm32f3xx_hal_rcc.c ****       {
 507:Drivers/STM32F3xx_HAL_Driver/Src/stm32f3xx_hal_rcc.c ****         if((HAL_GetTick() - tickstart ) > RCC_LSE_TIMEOUT_VALUE)
 1930              		.loc 1 507 0
 1931 0c2c FFF7FEFF 		bl	HAL_GetTick
 1932 0c30 0246     		mov	r2, r0
 1933 0c32 D7F8F831 		ldr	r3, [r7, #504]
 1934 0c36 D31A     		subs	r3, r2, r3
ARM GAS  /var/folders/0z/_3zh0q697778kwks4bv8s9bh0000gn/T//ccJVqLQz.s 			page 55


 1935 0c38 41F28832 		movw	r2, #5000
 1936 0c3c 9342     		cmp	r3, r2
 1937 0c3e 01D9     		bls	.L143
 508:Drivers/STM32F3xx_HAL_Driver/Src/stm32f3xx_hal_rcc.c ****         {
 509:Drivers/STM32F3xx_HAL_Driver/Src/stm32f3xx_hal_rcc.c ****           return HAL_TIMEOUT;
 1938              		.loc 1 509 0
 1939 0c40 0323     		movs	r3, #3
 1940 0c42 98E2     		b	.L19
 1941              	.L143:
 1942 0c44 07F1A403 		add	r3, r7, #164
 1943 0c48 0222     		movs	r2, #2
 1944 0c4a 1A60     		str	r2, [r3]
 1945              	.LBB252:
 1946              	.LBB253:
 531:Drivers/CMSIS/Include/cmsis_gcc.h **** #else
 1947              		.loc 2 531 0
 1948 0c4c 07F1A403 		add	r3, r7, #164
 1949 0c50 1B68     		ldr	r3, [r3]
 1950              	@ 531 "Drivers/CMSIS/Include/cmsis_gcc.h" 1
 1951 0c52 93FAA3F2 		rbit r2, r3
 1952              	@ 0 "" 2
 1953              		.thumb
 1954 0c56 07F1A003 		add	r3, r7, #160
 1955 0c5a 1A60     		str	r2, [r3]
 1956              		.loc 2 544 0
 1957 0c5c 07F1A003 		add	r3, r7, #160
 1958 0c60 1B68     		ldr	r3, [r3]
 1959              	.LBE253:
 1960              	.LBE252:
 505:Drivers/STM32F3xx_HAL_Driver/Src/stm32f3xx_hal_rcc.c ****       {
 1961              		.loc 1 505 0
 1962 0c62 B3FA83F3 		clz	r3, r3
 1963 0c66 DBB2     		uxtb	r3, r3
 1964 0c68 43F04003 		orr	r3, r3, #64
 1965 0c6c DBB2     		uxtb	r3, r3
 1966 0c6e DBB2     		uxtb	r3, r3
 1967 0c70 5B09     		lsrs	r3, r3, #5
 1968 0c72 DBB2     		uxtb	r3, r3
 1969 0c74 012B     		cmp	r3, #1
 1970 0c76 02D1     		bne	.L145
 505:Drivers/STM32F3xx_HAL_Driver/Src/stm32f3xx_hal_rcc.c ****       {
 1971              		.loc 1 505 0 is_stmt 0 discriminator 1
 1972 0c78 7E4B     		ldr	r3, .L205
 1973 0c7a 1B68     		ldr	r3, [r3]
 1974 0c7c 3BE0     		b	.L146
 1975              	.L145:
 1976 0c7e 07F19C03 		add	r3, r7, #156
 1977 0c82 0222     		movs	r2, #2
 1978 0c84 1A60     		str	r2, [r3]
 1979              	.LBB254:
 1980              	.LBB255:
 531:Drivers/CMSIS/Include/cmsis_gcc.h **** #else
 1981              		.loc 2 531 0 is_stmt 1 discriminator 2
 1982 0c86 07F19C03 		add	r3, r7, #156
 1983 0c8a 1B68     		ldr	r3, [r3]
 1984              	@ 531 "Drivers/CMSIS/Include/cmsis_gcc.h" 1
 1985 0c8c 93FAA3F2 		rbit r2, r3
ARM GAS  /var/folders/0z/_3zh0q697778kwks4bv8s9bh0000gn/T//ccJVqLQz.s 			page 56


 1986              	@ 0 "" 2
 1987              		.thumb
 1988 0c90 07F19803 		add	r3, r7, #152
 1989 0c94 1A60     		str	r2, [r3]
 1990              		.loc 2 544 0 discriminator 2
 1991 0c96 07F19803 		add	r3, r7, #152
 1992 0c9a 1B68     		ldr	r3, [r3]
 1993              	.LBE255:
 1994              	.LBE254:
 505:Drivers/STM32F3xx_HAL_Driver/Src/stm32f3xx_hal_rcc.c ****       {
 1995              		.loc 1 505 0 discriminator 2
 1996 0c9c B3FA83F3 		clz	r3, r3
 1997 0ca0 DBB2     		uxtb	r3, r3
 1998 0ca2 43F04003 		orr	r3, r3, #64
 1999 0ca6 DBB2     		uxtb	r3, r3
 2000 0ca8 DBB2     		uxtb	r3, r3
 2001 0caa 5B09     		lsrs	r3, r3, #5
 2002 0cac DBB2     		uxtb	r3, r3
 2003 0cae 022B     		cmp	r3, #2
 2004 0cb0 02D1     		bne	.L148
 505:Drivers/STM32F3xx_HAL_Driver/Src/stm32f3xx_hal_rcc.c ****       {
 2005              		.loc 1 505 0 is_stmt 0 discriminator 4
 2006 0cb2 704B     		ldr	r3, .L205
 2007 0cb4 1B6A     		ldr	r3, [r3, #32]
 2008 0cb6 1EE0     		b	.L146
 2009              	.L148:
 2010 0cb8 07F19403 		add	r3, r7, #148
 2011 0cbc 0222     		movs	r2, #2
 2012 0cbe 1A60     		str	r2, [r3]
 2013              	.LBB256:
 2014              	.LBB257:
 531:Drivers/CMSIS/Include/cmsis_gcc.h **** #else
 2015              		.loc 2 531 0 is_stmt 1 discriminator 5
 2016 0cc0 07F19403 		add	r3, r7, #148
 2017 0cc4 1B68     		ldr	r3, [r3]
 2018              	@ 531 "Drivers/CMSIS/Include/cmsis_gcc.h" 1
 2019 0cc6 93FAA3F2 		rbit r2, r3
 2020              	@ 0 "" 2
 2021              		.thumb
 2022 0cca 07F19003 		add	r3, r7, #144
 2023 0cce 1A60     		str	r2, [r3]
 2024              		.loc 2 544 0 discriminator 5
 2025 0cd0 07F19003 		add	r3, r7, #144
 2026 0cd4 1B68     		ldr	r3, [r3]
 2027              	.LBE257:
 2028              	.LBE256:
 505:Drivers/STM32F3xx_HAL_Driver/Src/stm32f3xx_hal_rcc.c ****       {
 2029              		.loc 1 505 0 discriminator 5
 2030 0cd6 B3FA83F3 		clz	r3, r3
 2031 0cda DBB2     		uxtb	r3, r3
 2032 0cdc 43F04003 		orr	r3, r3, #64
 2033 0ce0 DBB2     		uxtb	r3, r3
 2034 0ce2 DBB2     		uxtb	r3, r3
 2035 0ce4 5B09     		lsrs	r3, r3, #5
 2036 0ce6 DBB2     		uxtb	r3, r3
 2037 0ce8 042B     		cmp	r3, #4
 2038 0cea 02D1     		bne	.L151
ARM GAS  /var/folders/0z/_3zh0q697778kwks4bv8s9bh0000gn/T//ccJVqLQz.s 			page 57


 505:Drivers/STM32F3xx_HAL_Driver/Src/stm32f3xx_hal_rcc.c ****       {
 2039              		.loc 1 505 0 is_stmt 0 discriminator 7
 2040 0cec 614B     		ldr	r3, .L205
 2041 0cee 5B68     		ldr	r3, [r3, #4]
 2042 0cf0 01E0     		b	.L146
 2043              	.L151:
 505:Drivers/STM32F3xx_HAL_Driver/Src/stm32f3xx_hal_rcc.c ****       {
 2044              		.loc 1 505 0 discriminator 8
 2045 0cf2 604B     		ldr	r3, .L205
 2046 0cf4 5B6A     		ldr	r3, [r3, #36]
 2047              	.L146:
 2048 0cf6 07F18C02 		add	r2, r7, #140
 2049 0cfa 0221     		movs	r1, #2
 2050 0cfc 1160     		str	r1, [r2]
 2051              	.LBB258:
 2052              	.LBB259:
 531:Drivers/CMSIS/Include/cmsis_gcc.h **** #else
 2053              		.loc 2 531 0 is_stmt 1 discriminator 12
 2054 0cfe 07F18C02 		add	r2, r7, #140
 2055 0d02 1268     		ldr	r2, [r2]
 2056              	@ 531 "Drivers/CMSIS/Include/cmsis_gcc.h" 1
 2057 0d04 92FAA2F1 		rbit r1, r2
 2058              	@ 0 "" 2
 2059              		.thumb
 2060 0d08 07F18802 		add	r2, r7, #136
 2061 0d0c 1160     		str	r1, [r2]
 2062              		.loc 2 544 0 discriminator 12
 2063 0d0e 07F18802 		add	r2, r7, #136
 2064 0d12 1268     		ldr	r2, [r2]
 2065              	.LBE259:
 2066              	.LBE258:
 505:Drivers/STM32F3xx_HAL_Driver/Src/stm32f3xx_hal_rcc.c ****       {
 2067              		.loc 1 505 0 discriminator 12
 2068 0d14 B2FA82F2 		clz	r2, r2
 2069 0d18 D2B2     		uxtb	r2, r2
 2070 0d1a 42F04002 		orr	r2, r2, #64
 2071 0d1e D2B2     		uxtb	r2, r2
 2072 0d20 D2B2     		uxtb	r2, r2
 2073 0d22 02F01F02 		and	r2, r2, #31
 2074 0d26 D340     		lsrs	r3, r3, r2
 2075 0d28 03F00103 		and	r3, r3, #1
 2076 0d2c 002B     		cmp	r3, #0
 2077 0d2e 7FF47DAF 		bne	.L154
 2078              	.L142:
 510:Drivers/STM32F3xx_HAL_Driver/Src/stm32f3xx_hal_rcc.c ****         }
 511:Drivers/STM32F3xx_HAL_Driver/Src/stm32f3xx_hal_rcc.c ****       }
 512:Drivers/STM32F3xx_HAL_Driver/Src/stm32f3xx_hal_rcc.c ****     }
 513:Drivers/STM32F3xx_HAL_Driver/Src/stm32f3xx_hal_rcc.c **** 
 514:Drivers/STM32F3xx_HAL_Driver/Src/stm32f3xx_hal_rcc.c ****     /* Require to disable power clock if necessary */
 515:Drivers/STM32F3xx_HAL_Driver/Src/stm32f3xx_hal_rcc.c ****     if(pwrclkchanged == SET)
 2079              		.loc 1 515 0
 2080 0d32 97F8FF31 		ldrb	r3, [r7, #511]	@ zero_extendqisi2
 2081 0d36 012B     		cmp	r3, #1
 2082 0d38 05D1     		bne	.L120
 516:Drivers/STM32F3xx_HAL_Driver/Src/stm32f3xx_hal_rcc.c ****     {
 517:Drivers/STM32F3xx_HAL_Driver/Src/stm32f3xx_hal_rcc.c ****       __HAL_RCC_PWR_CLK_DISABLE();
 2083              		.loc 1 517 0
ARM GAS  /var/folders/0z/_3zh0q697778kwks4bv8s9bh0000gn/T//ccJVqLQz.s 			page 58


 2084 0d3a 4E4A     		ldr	r2, .L205
 2085 0d3c 4D4B     		ldr	r3, .L205
 2086 0d3e DB69     		ldr	r3, [r3, #28]
 2087 0d40 23F08053 		bic	r3, r3, #268435456
 2088 0d44 D361     		str	r3, [r2, #28]
 2089              	.L120:
 2090              	.LBE242:
 518:Drivers/STM32F3xx_HAL_Driver/Src/stm32f3xx_hal_rcc.c ****     }
 519:Drivers/STM32F3xx_HAL_Driver/Src/stm32f3xx_hal_rcc.c ****   }
 520:Drivers/STM32F3xx_HAL_Driver/Src/stm32f3xx_hal_rcc.c **** 
 521:Drivers/STM32F3xx_HAL_Driver/Src/stm32f3xx_hal_rcc.c ****   /*-------------------------------- PLL Configuration -----------------------*/
 522:Drivers/STM32F3xx_HAL_Driver/Src/stm32f3xx_hal_rcc.c ****   /* Check the parameters */
 523:Drivers/STM32F3xx_HAL_Driver/Src/stm32f3xx_hal_rcc.c ****   assert_param(IS_RCC_PLL(RCC_OscInitStruct->PLL.PLLState));
 524:Drivers/STM32F3xx_HAL_Driver/Src/stm32f3xx_hal_rcc.c ****   if ((RCC_OscInitStruct->PLL.PLLState) != RCC_PLL_NONE)
 2091              		.loc 1 524 0
 2092 0d46 3B1D     		adds	r3, r7, #4
 2093 0d48 1B68     		ldr	r3, [r3]
 2094 0d4a DB69     		ldr	r3, [r3, #28]
 2095 0d4c 002B     		cmp	r3, #0
 2096 0d4e 00F01182 		beq	.L155
 525:Drivers/STM32F3xx_HAL_Driver/Src/stm32f3xx_hal_rcc.c ****   {
 526:Drivers/STM32F3xx_HAL_Driver/Src/stm32f3xx_hal_rcc.c ****     /* Check if the PLL is used as system clock or not */
 527:Drivers/STM32F3xx_HAL_Driver/Src/stm32f3xx_hal_rcc.c ****     if(__HAL_RCC_GET_SYSCLK_SOURCE() != RCC_SYSCLKSOURCE_STATUS_PLLCLK)
 2097              		.loc 1 527 0
 2098 0d52 484B     		ldr	r3, .L205
 2099 0d54 5B68     		ldr	r3, [r3, #4]
 2100 0d56 03F00C03 		and	r3, r3, #12
 2101 0d5a 082B     		cmp	r3, #8
 2102 0d5c 00F00582 		beq	.L156
 528:Drivers/STM32F3xx_HAL_Driver/Src/stm32f3xx_hal_rcc.c ****     { 
 529:Drivers/STM32F3xx_HAL_Driver/Src/stm32f3xx_hal_rcc.c ****       if((RCC_OscInitStruct->PLL.PLLState) == RCC_PLL_ON)
 2103              		.loc 1 529 0
 2104 0d60 3B1D     		adds	r3, r7, #4
 2105 0d62 1B68     		ldr	r3, [r3]
 2106 0d64 DB69     		ldr	r3, [r3, #28]
 2107 0d66 022B     		cmp	r3, #2
 2108 0d68 40F05A81 		bne	.L157
 2109 0d6c 07F18403 		add	r3, r7, #132
 2110 0d70 4FF08072 		mov	r2, #16777216
 2111 0d74 1A60     		str	r2, [r3]
 2112              	.LBB260:
 2113              	.LBB261:
 531:Drivers/CMSIS/Include/cmsis_gcc.h **** #else
 2114              		.loc 2 531 0
 2115 0d76 07F18403 		add	r3, r7, #132
 2116 0d7a 1B68     		ldr	r3, [r3]
 2117              	@ 531 "Drivers/CMSIS/Include/cmsis_gcc.h" 1
 2118 0d7c 93FAA3F2 		rbit r2, r3
 2119              	@ 0 "" 2
 2120              		.thumb
 2121 0d80 07F18003 		add	r3, r7, #128
 2122 0d84 1A60     		str	r2, [r3]
 2123              		.loc 2 544 0
 2124 0d86 07F18003 		add	r3, r7, #128
 2125 0d8a 1B68     		ldr	r3, [r3]
 2126              	.LBE261:
 2127              	.LBE260:
ARM GAS  /var/folders/0z/_3zh0q697778kwks4bv8s9bh0000gn/T//ccJVqLQz.s 			page 59


 530:Drivers/STM32F3xx_HAL_Driver/Src/stm32f3xx_hal_rcc.c ****       {
 531:Drivers/STM32F3xx_HAL_Driver/Src/stm32f3xx_hal_rcc.c ****         /* Check the parameters */
 532:Drivers/STM32F3xx_HAL_Driver/Src/stm32f3xx_hal_rcc.c ****         assert_param(IS_RCC_PLLSOURCE(RCC_OscInitStruct->PLL.PLLSource));
 533:Drivers/STM32F3xx_HAL_Driver/Src/stm32f3xx_hal_rcc.c ****         assert_param(IS_RCC_PLL_MUL(RCC_OscInitStruct->PLL.PLLMUL));
 534:Drivers/STM32F3xx_HAL_Driver/Src/stm32f3xx_hal_rcc.c **** #if   defined(RCC_CFGR_PLLSRC_HSI_PREDIV)
 535:Drivers/STM32F3xx_HAL_Driver/Src/stm32f3xx_hal_rcc.c ****         assert_param(IS_RCC_PREDIV(RCC_OscInitStruct->PLL.PREDIV));
 536:Drivers/STM32F3xx_HAL_Driver/Src/stm32f3xx_hal_rcc.c **** #endif
 537:Drivers/STM32F3xx_HAL_Driver/Src/stm32f3xx_hal_rcc.c ****   
 538:Drivers/STM32F3xx_HAL_Driver/Src/stm32f3xx_hal_rcc.c ****         /* Disable the main PLL. */
 539:Drivers/STM32F3xx_HAL_Driver/Src/stm32f3xx_hal_rcc.c ****         __HAL_RCC_PLL_DISABLE();
 2128              		.loc 1 539 0
 2129 0d8c B3FA83F3 		clz	r3, r3
 2130 0d90 9B00     		lsls	r3, r3, #2
 2131 0d92 03F18443 		add	r3, r3, #1107296256
 2132 0d96 03F58403 		add	r3, r3, #4325376
 2133 0d9a 1A46     		mov	r2, r3
 2134 0d9c 0023     		movs	r3, #0
 2135 0d9e 1360     		str	r3, [r2]
 540:Drivers/STM32F3xx_HAL_Driver/Src/stm32f3xx_hal_rcc.c ****         
 541:Drivers/STM32F3xx_HAL_Driver/Src/stm32f3xx_hal_rcc.c ****         /* Get Start Tick */
 542:Drivers/STM32F3xx_HAL_Driver/Src/stm32f3xx_hal_rcc.c ****         tickstart = HAL_GetTick();
 2136              		.loc 1 542 0
 2137 0da0 FFF7FEFF 		bl	HAL_GetTick
 2138 0da4 C7F8F801 		str	r0, [r7, #504]
 543:Drivers/STM32F3xx_HAL_Driver/Src/stm32f3xx_hal_rcc.c ****         
 544:Drivers/STM32F3xx_HAL_Driver/Src/stm32f3xx_hal_rcc.c ****         /* Wait till PLL is disabled */
 545:Drivers/STM32F3xx_HAL_Driver/Src/stm32f3xx_hal_rcc.c ****         while(__HAL_RCC_GET_FLAG(RCC_FLAG_PLLRDY)  != RESET)
 2139              		.loc 1 545 0
 2140 0da8 09E0     		b	.L159
 2141              	.L170:
 546:Drivers/STM32F3xx_HAL_Driver/Src/stm32f3xx_hal_rcc.c ****         {
 547:Drivers/STM32F3xx_HAL_Driver/Src/stm32f3xx_hal_rcc.c ****           if((HAL_GetTick() - tickstart ) > PLL_TIMEOUT_VALUE)
 2142              		.loc 1 547 0
 2143 0daa FFF7FEFF 		bl	HAL_GetTick
 2144 0dae 0246     		mov	r2, r0
 2145 0db0 D7F8F831 		ldr	r3, [r7, #504]
 2146 0db4 D31A     		subs	r3, r2, r3
 2147 0db6 022B     		cmp	r3, #2
 2148 0db8 01D9     		bls	.L159
 548:Drivers/STM32F3xx_HAL_Driver/Src/stm32f3xx_hal_rcc.c ****           {
 549:Drivers/STM32F3xx_HAL_Driver/Src/stm32f3xx_hal_rcc.c ****             return HAL_TIMEOUT;
 2149              		.loc 1 549 0
 2150 0dba 0323     		movs	r3, #3
 2151 0dbc DBE1     		b	.L19
 2152              	.L159:
 2153 0dbe 07F17C03 		add	r3, r7, #124
 2154 0dc2 4FF00072 		mov	r2, #33554432
 2155 0dc6 1A60     		str	r2, [r3]
 2156              	.LBB262:
 2157              	.LBB263:
 531:Drivers/CMSIS/Include/cmsis_gcc.h **** #else
 2158              		.loc 2 531 0
 2159 0dc8 07F17C03 		add	r3, r7, #124
 2160 0dcc 1B68     		ldr	r3, [r3]
 2161              	@ 531 "Drivers/CMSIS/Include/cmsis_gcc.h" 1
 2162 0dce 93FAA3F2 		rbit r2, r3
 2163              	@ 0 "" 2
ARM GAS  /var/folders/0z/_3zh0q697778kwks4bv8s9bh0000gn/T//ccJVqLQz.s 			page 60


 2164              		.thumb
 2165 0dd2 07F17803 		add	r3, r7, #120
 2166 0dd6 1A60     		str	r2, [r3]
 2167              		.loc 2 544 0
 2168 0dd8 07F17803 		add	r3, r7, #120
 2169 0ddc 1B68     		ldr	r3, [r3]
 2170              	.LBE263:
 2171              	.LBE262:
 545:Drivers/STM32F3xx_HAL_Driver/Src/stm32f3xx_hal_rcc.c ****         {
 2172              		.loc 1 545 0
 2173 0dde B3FA83F3 		clz	r3, r3
 2174 0de2 DBB2     		uxtb	r3, r3
 2175 0de4 43F02003 		orr	r3, r3, #32
 2176 0de8 DBB2     		uxtb	r3, r3
 2177 0dea DBB2     		uxtb	r3, r3
 2178 0dec 5B09     		lsrs	r3, r3, #5
 2179 0dee DBB2     		uxtb	r3, r3
 2180 0df0 012B     		cmp	r3, #1
 2181 0df2 02D1     		bne	.L161
 545:Drivers/STM32F3xx_HAL_Driver/Src/stm32f3xx_hal_rcc.c ****         {
 2182              		.loc 1 545 0 is_stmt 0 discriminator 1
 2183 0df4 1F4B     		ldr	r3, .L205
 2184 0df6 1B68     		ldr	r3, [r3]
 2185 0df8 40E0     		b	.L162
 2186              	.L161:
 2187 0dfa 07F17403 		add	r3, r7, #116
 2188 0dfe 4FF00072 		mov	r2, #33554432
 2189 0e02 1A60     		str	r2, [r3]
 2190              	.LBB264:
 2191              	.LBB265:
 531:Drivers/CMSIS/Include/cmsis_gcc.h **** #else
 2192              		.loc 2 531 0 is_stmt 1 discriminator 2
 2193 0e04 07F17403 		add	r3, r7, #116
 2194 0e08 1B68     		ldr	r3, [r3]
 2195              	@ 531 "Drivers/CMSIS/Include/cmsis_gcc.h" 1
 2196 0e0a 93FAA3F2 		rbit r2, r3
 2197              	@ 0 "" 2
 2198              		.thumb
 2199 0e0e 07F17003 		add	r3, r7, #112
 2200 0e12 1A60     		str	r2, [r3]
 2201              		.loc 2 544 0 discriminator 2
 2202 0e14 07F17003 		add	r3, r7, #112
 2203 0e18 1B68     		ldr	r3, [r3]
 2204              	.LBE265:
 2205              	.LBE264:
 545:Drivers/STM32F3xx_HAL_Driver/Src/stm32f3xx_hal_rcc.c ****         {
 2206              		.loc 1 545 0 discriminator 2
 2207 0e1a B3FA83F3 		clz	r3, r3
 2208 0e1e DBB2     		uxtb	r3, r3
 2209 0e20 43F02003 		orr	r3, r3, #32
 2210 0e24 DBB2     		uxtb	r3, r3
 2211 0e26 DBB2     		uxtb	r3, r3
 2212 0e28 5B09     		lsrs	r3, r3, #5
 2213 0e2a DBB2     		uxtb	r3, r3
 2214 0e2c 022B     		cmp	r3, #2
 2215 0e2e 02D1     		bne	.L164
 545:Drivers/STM32F3xx_HAL_Driver/Src/stm32f3xx_hal_rcc.c ****         {
ARM GAS  /var/folders/0z/_3zh0q697778kwks4bv8s9bh0000gn/T//ccJVqLQz.s 			page 61


 2216              		.loc 1 545 0 is_stmt 0 discriminator 4
 2217 0e30 104B     		ldr	r3, .L205
 2218 0e32 1B6A     		ldr	r3, [r3, #32]
 2219 0e34 22E0     		b	.L162
 2220              	.L164:
 2221 0e36 07F16C03 		add	r3, r7, #108
 2222 0e3a 4FF00072 		mov	r2, #33554432
 2223 0e3e 1A60     		str	r2, [r3]
 2224              	.LBB266:
 2225              	.LBB267:
 531:Drivers/CMSIS/Include/cmsis_gcc.h **** #else
 2226              		.loc 2 531 0 is_stmt 1 discriminator 5
 2227 0e40 07F16C03 		add	r3, r7, #108
 2228 0e44 1B68     		ldr	r3, [r3]
 2229              	@ 531 "Drivers/CMSIS/Include/cmsis_gcc.h" 1
 2230 0e46 93FAA3F2 		rbit r2, r3
 2231              	@ 0 "" 2
 2232              		.thumb
 2233 0e4a 07F16803 		add	r3, r7, #104
 2234 0e4e 1A60     		str	r2, [r3]
 2235              		.loc 2 544 0 discriminator 5
 2236 0e50 07F16803 		add	r3, r7, #104
 2237 0e54 1B68     		ldr	r3, [r3]
 2238              	.LBE267:
 2239              	.LBE266:
 545:Drivers/STM32F3xx_HAL_Driver/Src/stm32f3xx_hal_rcc.c ****         {
 2240              		.loc 1 545 0 discriminator 5
 2241 0e56 B3FA83F3 		clz	r3, r3
 2242 0e5a DBB2     		uxtb	r3, r3
 2243 0e5c 43F02003 		orr	r3, r3, #32
 2244 0e60 DBB2     		uxtb	r3, r3
 2245 0e62 DBB2     		uxtb	r3, r3
 2246 0e64 5B09     		lsrs	r3, r3, #5
 2247 0e66 DBB2     		uxtb	r3, r3
 2248 0e68 042B     		cmp	r3, #4
 2249 0e6a 05D1     		bne	.L167
 545:Drivers/STM32F3xx_HAL_Driver/Src/stm32f3xx_hal_rcc.c ****         {
 2250              		.loc 1 545 0 is_stmt 0 discriminator 7
 2251 0e6c 014B     		ldr	r3, .L205
 2252 0e6e 5B68     		ldr	r3, [r3, #4]
 2253 0e70 04E0     		b	.L162
 2254              	.L206:
 2255 0e72 00BF     		.align	2
 2256              	.L205:
 2257 0e74 00100240 		.word	1073876992
 2258              	.L167:
 545:Drivers/STM32F3xx_HAL_Driver/Src/stm32f3xx_hal_rcc.c ****         {
 2259              		.loc 1 545 0 discriminator 8
 2260 0e78 BD4B     		ldr	r3, .L207
 2261 0e7a 5B6A     		ldr	r3, [r3, #36]
 2262              	.L162:
 2263 0e7c 07F16402 		add	r2, r7, #100
 2264 0e80 4FF00071 		mov	r1, #33554432
 2265 0e84 1160     		str	r1, [r2]
 2266              	.LBB268:
 2267              	.LBB269:
 531:Drivers/CMSIS/Include/cmsis_gcc.h **** #else
ARM GAS  /var/folders/0z/_3zh0q697778kwks4bv8s9bh0000gn/T//ccJVqLQz.s 			page 62


 2268              		.loc 2 531 0 is_stmt 1 discriminator 12
 2269 0e86 07F16402 		add	r2, r7, #100
 2270 0e8a 1268     		ldr	r2, [r2]
 2271              	@ 531 "Drivers/CMSIS/Include/cmsis_gcc.h" 1
 2272 0e8c 92FAA2F1 		rbit r1, r2
 2273              	@ 0 "" 2
 2274              		.thumb
 2275 0e90 07F16002 		add	r2, r7, #96
 2276 0e94 1160     		str	r1, [r2]
 2277              		.loc 2 544 0 discriminator 12
 2278 0e96 07F16002 		add	r2, r7, #96
 2279 0e9a 1268     		ldr	r2, [r2]
 2280              	.LBE269:
 2281              	.LBE268:
 545:Drivers/STM32F3xx_HAL_Driver/Src/stm32f3xx_hal_rcc.c ****         {
 2282              		.loc 1 545 0 discriminator 12
 2283 0e9c B2FA82F2 		clz	r2, r2
 2284 0ea0 D2B2     		uxtb	r2, r2
 2285 0ea2 42F02002 		orr	r2, r2, #32
 2286 0ea6 D2B2     		uxtb	r2, r2
 2287 0ea8 D2B2     		uxtb	r2, r2
 2288 0eaa 02F01F02 		and	r2, r2, #31
 2289 0eae D340     		lsrs	r3, r3, r2
 2290 0eb0 03F00103 		and	r3, r3, #1
 2291 0eb4 002B     		cmp	r3, #0
 2292 0eb6 7FF478AF 		bne	.L170
 550:Drivers/STM32F3xx_HAL_Driver/Src/stm32f3xx_hal_rcc.c ****           }
 551:Drivers/STM32F3xx_HAL_Driver/Src/stm32f3xx_hal_rcc.c ****         }
 552:Drivers/STM32F3xx_HAL_Driver/Src/stm32f3xx_hal_rcc.c **** 
 553:Drivers/STM32F3xx_HAL_Driver/Src/stm32f3xx_hal_rcc.c **** #if defined(RCC_CFGR_PLLSRC_HSI_PREDIV)
 554:Drivers/STM32F3xx_HAL_Driver/Src/stm32f3xx_hal_rcc.c ****         /* Configure the main PLL clock source, predivider and multiplication factor. */
 555:Drivers/STM32F3xx_HAL_Driver/Src/stm32f3xx_hal_rcc.c ****         __HAL_RCC_PLL_CONFIG(RCC_OscInitStruct->PLL.PLLSource,
 556:Drivers/STM32F3xx_HAL_Driver/Src/stm32f3xx_hal_rcc.c ****                              RCC_OscInitStruct->PLL.PREDIV,
 557:Drivers/STM32F3xx_HAL_Driver/Src/stm32f3xx_hal_rcc.c ****                              RCC_OscInitStruct->PLL.PLLMUL);
 558:Drivers/STM32F3xx_HAL_Driver/Src/stm32f3xx_hal_rcc.c **** #else
 559:Drivers/STM32F3xx_HAL_Driver/Src/stm32f3xx_hal_rcc.c ****       /* Configure the main PLL clock source and multiplication factor. */
 560:Drivers/STM32F3xx_HAL_Driver/Src/stm32f3xx_hal_rcc.c ****       __HAL_RCC_PLL_CONFIG(RCC_OscInitStruct->PLL.PLLSource,
 2293              		.loc 1 560 0
 2294 0eba AD48     		ldr	r0, .L207
 2295 0ebc AC4B     		ldr	r3, .L207
 2296 0ebe 5B68     		ldr	r3, [r3, #4]
 2297 0ec0 23F47412 		bic	r2, r3, #3997696
 2298 0ec4 3B1D     		adds	r3, r7, #4
 2299 0ec6 1B68     		ldr	r3, [r3]
 2300 0ec8 596A     		ldr	r1, [r3, #36]
 2301 0eca 3B1D     		adds	r3, r7, #4
 2302 0ecc 1B68     		ldr	r3, [r3]
 2303 0ece 1B6A     		ldr	r3, [r3, #32]
 2304 0ed0 0B43     		orrs	r3, r3, r1
 2305 0ed2 1343     		orrs	r3, r3, r2
 2306 0ed4 4360     		str	r3, [r0, #4]
 2307 0ed6 07F15C03 		add	r3, r7, #92
 2308 0eda 4FF08072 		mov	r2, #16777216
 2309 0ede 1A60     		str	r2, [r3]
 2310              	.LBB270:
 2311              	.LBB271:
 531:Drivers/CMSIS/Include/cmsis_gcc.h **** #else
ARM GAS  /var/folders/0z/_3zh0q697778kwks4bv8s9bh0000gn/T//ccJVqLQz.s 			page 63


 2312              		.loc 2 531 0
 2313 0ee0 07F15C03 		add	r3, r7, #92
 2314 0ee4 1B68     		ldr	r3, [r3]
 2315              	@ 531 "Drivers/CMSIS/Include/cmsis_gcc.h" 1
 2316 0ee6 93FAA3F2 		rbit r2, r3
 2317              	@ 0 "" 2
 2318              		.thumb
 2319 0eea 07F15803 		add	r3, r7, #88
 2320 0eee 1A60     		str	r2, [r3]
 2321              		.loc 2 544 0
 2322 0ef0 07F15803 		add	r3, r7, #88
 2323 0ef4 1B68     		ldr	r3, [r3]
 2324              	.LBE271:
 2325              	.LBE270:
 561:Drivers/STM32F3xx_HAL_Driver/Src/stm32f3xx_hal_rcc.c ****                            RCC_OscInitStruct->PLL.PLLMUL);
 562:Drivers/STM32F3xx_HAL_Driver/Src/stm32f3xx_hal_rcc.c **** #endif /* RCC_CFGR_PLLSRC_HSI_PREDIV */
 563:Drivers/STM32F3xx_HAL_Driver/Src/stm32f3xx_hal_rcc.c ****         /* Enable the main PLL. */
 564:Drivers/STM32F3xx_HAL_Driver/Src/stm32f3xx_hal_rcc.c ****         __HAL_RCC_PLL_ENABLE();
 2326              		.loc 1 564 0
 2327 0ef6 B3FA83F3 		clz	r3, r3
 2328 0efa 9B00     		lsls	r3, r3, #2
 2329 0efc 03F18443 		add	r3, r3, #1107296256
 2330 0f00 03F58403 		add	r3, r3, #4325376
 2331 0f04 1A46     		mov	r2, r3
 2332 0f06 0123     		movs	r3, #1
 2333 0f08 1360     		str	r3, [r2]
 565:Drivers/STM32F3xx_HAL_Driver/Src/stm32f3xx_hal_rcc.c ****         
 566:Drivers/STM32F3xx_HAL_Driver/Src/stm32f3xx_hal_rcc.c ****         /* Get Start Tick */
 567:Drivers/STM32F3xx_HAL_Driver/Src/stm32f3xx_hal_rcc.c ****         tickstart = HAL_GetTick();
 2334              		.loc 1 567 0
 2335 0f0a FFF7FEFF 		bl	HAL_GetTick
 2336 0f0e C7F8F801 		str	r0, [r7, #504]
 568:Drivers/STM32F3xx_HAL_Driver/Src/stm32f3xx_hal_rcc.c ****         
 569:Drivers/STM32F3xx_HAL_Driver/Src/stm32f3xx_hal_rcc.c ****         /* Wait till PLL is ready */
 570:Drivers/STM32F3xx_HAL_Driver/Src/stm32f3xx_hal_rcc.c ****         while(__HAL_RCC_GET_FLAG(RCC_FLAG_PLLRDY)  == RESET)
 2337              		.loc 1 570 0
 2338 0f12 09E0     		b	.L172
 2339              	.L183:
 571:Drivers/STM32F3xx_HAL_Driver/Src/stm32f3xx_hal_rcc.c ****         {
 572:Drivers/STM32F3xx_HAL_Driver/Src/stm32f3xx_hal_rcc.c ****           if((HAL_GetTick() - tickstart ) > PLL_TIMEOUT_VALUE)
 2340              		.loc 1 572 0
 2341 0f14 FFF7FEFF 		bl	HAL_GetTick
 2342 0f18 0246     		mov	r2, r0
 2343 0f1a D7F8F831 		ldr	r3, [r7, #504]
 2344 0f1e D31A     		subs	r3, r2, r3
 2345 0f20 022B     		cmp	r3, #2
 2346 0f22 01D9     		bls	.L172
 573:Drivers/STM32F3xx_HAL_Driver/Src/stm32f3xx_hal_rcc.c ****           {
 574:Drivers/STM32F3xx_HAL_Driver/Src/stm32f3xx_hal_rcc.c ****             return HAL_TIMEOUT;
 2347              		.loc 1 574 0
 2348 0f24 0323     		movs	r3, #3
 2349 0f26 26E1     		b	.L19
 2350              	.L172:
 2351 0f28 07F15403 		add	r3, r7, #84
 2352 0f2c 4FF00072 		mov	r2, #33554432
 2353 0f30 1A60     		str	r2, [r3]
 2354              	.LBB272:
ARM GAS  /var/folders/0z/_3zh0q697778kwks4bv8s9bh0000gn/T//ccJVqLQz.s 			page 64


 2355              	.LBB273:
 531:Drivers/CMSIS/Include/cmsis_gcc.h **** #else
 2356              		.loc 2 531 0
 2357 0f32 07F15403 		add	r3, r7, #84
 2358 0f36 1B68     		ldr	r3, [r3]
 2359              	@ 531 "Drivers/CMSIS/Include/cmsis_gcc.h" 1
 2360 0f38 93FAA3F2 		rbit r2, r3
 2361              	@ 0 "" 2
 2362              		.thumb
 2363 0f3c 07F15003 		add	r3, r7, #80
 2364 0f40 1A60     		str	r2, [r3]
 2365              		.loc 2 544 0
 2366 0f42 07F15003 		add	r3, r7, #80
 2367 0f46 1B68     		ldr	r3, [r3]
 2368              	.LBE273:
 2369              	.LBE272:
 570:Drivers/STM32F3xx_HAL_Driver/Src/stm32f3xx_hal_rcc.c ****         {
 2370              		.loc 1 570 0
 2371 0f48 B3FA83F3 		clz	r3, r3
 2372 0f4c DBB2     		uxtb	r3, r3
 2373 0f4e 43F02003 		orr	r3, r3, #32
 2374 0f52 DBB2     		uxtb	r3, r3
 2375 0f54 DBB2     		uxtb	r3, r3
 2376 0f56 5B09     		lsrs	r3, r3, #5
 2377 0f58 DBB2     		uxtb	r3, r3
 2378 0f5a 012B     		cmp	r3, #1
 2379 0f5c 02D1     		bne	.L174
 570:Drivers/STM32F3xx_HAL_Driver/Src/stm32f3xx_hal_rcc.c ****         {
 2380              		.loc 1 570 0 is_stmt 0 discriminator 1
 2381 0f5e 844B     		ldr	r3, .L207
 2382 0f60 1B68     		ldr	r3, [r3]
 2383 0f62 3DE0     		b	.L175
 2384              	.L174:
 2385 0f64 07F14C03 		add	r3, r7, #76
 2386 0f68 4FF00072 		mov	r2, #33554432
 2387 0f6c 1A60     		str	r2, [r3]
 2388              	.LBB274:
 2389              	.LBB275:
 531:Drivers/CMSIS/Include/cmsis_gcc.h **** #else
 2390              		.loc 2 531 0 is_stmt 1 discriminator 2
 2391 0f6e 07F14C03 		add	r3, r7, #76
 2392 0f72 1B68     		ldr	r3, [r3]
 2393              	@ 531 "Drivers/CMSIS/Include/cmsis_gcc.h" 1
 2394 0f74 93FAA3F2 		rbit r2, r3
 2395              	@ 0 "" 2
 2396              		.thumb
 2397 0f78 07F14803 		add	r3, r7, #72
 2398 0f7c 1A60     		str	r2, [r3]
 2399              		.loc 2 544 0 discriminator 2
 2400 0f7e 07F14803 		add	r3, r7, #72
 2401 0f82 1B68     		ldr	r3, [r3]
 2402              	.LBE275:
 2403              	.LBE274:
 570:Drivers/STM32F3xx_HAL_Driver/Src/stm32f3xx_hal_rcc.c ****         {
 2404              		.loc 1 570 0 discriminator 2
 2405 0f84 B3FA83F3 		clz	r3, r3
 2406 0f88 DBB2     		uxtb	r3, r3
ARM GAS  /var/folders/0z/_3zh0q697778kwks4bv8s9bh0000gn/T//ccJVqLQz.s 			page 65


 2407 0f8a 43F02003 		orr	r3, r3, #32
 2408 0f8e DBB2     		uxtb	r3, r3
 2409 0f90 DBB2     		uxtb	r3, r3
 2410 0f92 5B09     		lsrs	r3, r3, #5
 2411 0f94 DBB2     		uxtb	r3, r3
 2412 0f96 022B     		cmp	r3, #2
 2413 0f98 02D1     		bne	.L177
 570:Drivers/STM32F3xx_HAL_Driver/Src/stm32f3xx_hal_rcc.c ****         {
 2414              		.loc 1 570 0 is_stmt 0 discriminator 4
 2415 0f9a 754B     		ldr	r3, .L207
 2416 0f9c 1B6A     		ldr	r3, [r3, #32]
 2417 0f9e 1FE0     		b	.L175
 2418              	.L177:
 2419 0fa0 07F14403 		add	r3, r7, #68
 2420 0fa4 4FF00072 		mov	r2, #33554432
 2421 0fa8 1A60     		str	r2, [r3]
 2422              	.LBB276:
 2423              	.LBB277:
 531:Drivers/CMSIS/Include/cmsis_gcc.h **** #else
 2424              		.loc 2 531 0 is_stmt 1 discriminator 5
 2425 0faa 07F14403 		add	r3, r7, #68
 2426 0fae 1B68     		ldr	r3, [r3]
 2427              	@ 531 "Drivers/CMSIS/Include/cmsis_gcc.h" 1
 2428 0fb0 93FAA3F2 		rbit r2, r3
 2429              	@ 0 "" 2
 2430              		.thumb
 2431 0fb4 07F14003 		add	r3, r7, #64
 2432 0fb8 1A60     		str	r2, [r3]
 2433              		.loc 2 544 0 discriminator 5
 2434 0fba 07F14003 		add	r3, r7, #64
 2435 0fbe 1B68     		ldr	r3, [r3]
 2436              	.LBE277:
 2437              	.LBE276:
 570:Drivers/STM32F3xx_HAL_Driver/Src/stm32f3xx_hal_rcc.c ****         {
 2438              		.loc 1 570 0 discriminator 5
 2439 0fc0 B3FA83F3 		clz	r3, r3
 2440 0fc4 DBB2     		uxtb	r3, r3
 2441 0fc6 43F02003 		orr	r3, r3, #32
 2442 0fca DBB2     		uxtb	r3, r3
 2443 0fcc DBB2     		uxtb	r3, r3
 2444 0fce 5B09     		lsrs	r3, r3, #5
 2445 0fd0 DBB2     		uxtb	r3, r3
 2446 0fd2 042B     		cmp	r3, #4
 2447 0fd4 02D1     		bne	.L180
 570:Drivers/STM32F3xx_HAL_Driver/Src/stm32f3xx_hal_rcc.c ****         {
 2448              		.loc 1 570 0 is_stmt 0 discriminator 7
 2449 0fd6 664B     		ldr	r3, .L207
 2450 0fd8 5B68     		ldr	r3, [r3, #4]
 2451 0fda 01E0     		b	.L175
 2452              	.L180:
 570:Drivers/STM32F3xx_HAL_Driver/Src/stm32f3xx_hal_rcc.c ****         {
 2453              		.loc 1 570 0 discriminator 8
 2454 0fdc 644B     		ldr	r3, .L207
 2455 0fde 5B6A     		ldr	r3, [r3, #36]
 2456              	.L175:
 2457 0fe0 07F13C02 		add	r2, r7, #60
 2458 0fe4 4FF00071 		mov	r1, #33554432
ARM GAS  /var/folders/0z/_3zh0q697778kwks4bv8s9bh0000gn/T//ccJVqLQz.s 			page 66


 2459 0fe8 1160     		str	r1, [r2]
 2460              	.LBB278:
 2461              	.LBB279:
 531:Drivers/CMSIS/Include/cmsis_gcc.h **** #else
 2462              		.loc 2 531 0 is_stmt 1 discriminator 12
 2463 0fea 07F13C02 		add	r2, r7, #60
 2464 0fee 1268     		ldr	r2, [r2]
 2465              	@ 531 "Drivers/CMSIS/Include/cmsis_gcc.h" 1
 2466 0ff0 92FAA2F1 		rbit r1, r2
 2467              	@ 0 "" 2
 2468              		.thumb
 2469 0ff4 07F13802 		add	r2, r7, #56
 2470 0ff8 1160     		str	r1, [r2]
 2471              		.loc 2 544 0 discriminator 12
 2472 0ffa 07F13802 		add	r2, r7, #56
 2473 0ffe 1268     		ldr	r2, [r2]
 2474              	.LBE279:
 2475              	.LBE278:
 570:Drivers/STM32F3xx_HAL_Driver/Src/stm32f3xx_hal_rcc.c ****         {
 2476              		.loc 1 570 0 discriminator 12
 2477 1000 B2FA82F2 		clz	r2, r2
 2478 1004 D2B2     		uxtb	r2, r2
 2479 1006 42F02002 		orr	r2, r2, #32
 2480 100a D2B2     		uxtb	r2, r2
 2481 100c D2B2     		uxtb	r2, r2
 2482 100e 02F01F02 		and	r2, r2, #31
 2483 1012 D340     		lsrs	r3, r3, r2
 2484 1014 03F00103 		and	r3, r3, #1
 2485 1018 002B     		cmp	r3, #0
 2486 101a 3FF47BAF 		beq	.L183
 2487 101e A9E0     		b	.L155
 2488              	.L157:
 2489 1020 07F13403 		add	r3, r7, #52
 2490 1024 4FF08072 		mov	r2, #16777216
 2491 1028 1A60     		str	r2, [r3]
 2492              	.LBB280:
 2493              	.LBB281:
 531:Drivers/CMSIS/Include/cmsis_gcc.h **** #else
 2494              		.loc 2 531 0
 2495 102a 07F13403 		add	r3, r7, #52
 2496 102e 1B68     		ldr	r3, [r3]
 2497              	@ 531 "Drivers/CMSIS/Include/cmsis_gcc.h" 1
 2498 1030 93FAA3F2 		rbit r2, r3
 2499              	@ 0 "" 2
 2500              		.thumb
 2501 1034 07F13003 		add	r3, r7, #48
 2502 1038 1A60     		str	r2, [r3]
 2503              		.loc 2 544 0
 2504 103a 07F13003 		add	r3, r7, #48
 2505 103e 1B68     		ldr	r3, [r3]
 2506              	.LBE281:
 2507              	.LBE280:
 575:Drivers/STM32F3xx_HAL_Driver/Src/stm32f3xx_hal_rcc.c ****           }
 576:Drivers/STM32F3xx_HAL_Driver/Src/stm32f3xx_hal_rcc.c ****         }
 577:Drivers/STM32F3xx_HAL_Driver/Src/stm32f3xx_hal_rcc.c ****       }
 578:Drivers/STM32F3xx_HAL_Driver/Src/stm32f3xx_hal_rcc.c ****       else
 579:Drivers/STM32F3xx_HAL_Driver/Src/stm32f3xx_hal_rcc.c ****       {
ARM GAS  /var/folders/0z/_3zh0q697778kwks4bv8s9bh0000gn/T//ccJVqLQz.s 			page 67


 580:Drivers/STM32F3xx_HAL_Driver/Src/stm32f3xx_hal_rcc.c ****         /* Disable the main PLL. */
 581:Drivers/STM32F3xx_HAL_Driver/Src/stm32f3xx_hal_rcc.c ****         __HAL_RCC_PLL_DISABLE();
 2508              		.loc 1 581 0
 2509 1040 B3FA83F3 		clz	r3, r3
 2510 1044 9B00     		lsls	r3, r3, #2
 2511 1046 03F18443 		add	r3, r3, #1107296256
 2512 104a 03F58403 		add	r3, r3, #4325376
 2513 104e 1A46     		mov	r2, r3
 2514 1050 0023     		movs	r3, #0
 2515 1052 1360     		str	r3, [r2]
 582:Drivers/STM32F3xx_HAL_Driver/Src/stm32f3xx_hal_rcc.c ****  
 583:Drivers/STM32F3xx_HAL_Driver/Src/stm32f3xx_hal_rcc.c ****         /* Get Start Tick */
 584:Drivers/STM32F3xx_HAL_Driver/Src/stm32f3xx_hal_rcc.c ****         tickstart = HAL_GetTick();
 2516              		.loc 1 584 0
 2517 1054 FFF7FEFF 		bl	HAL_GetTick
 2518 1058 C7F8F801 		str	r0, [r7, #504]
 585:Drivers/STM32F3xx_HAL_Driver/Src/stm32f3xx_hal_rcc.c ****         
 586:Drivers/STM32F3xx_HAL_Driver/Src/stm32f3xx_hal_rcc.c ****         /* Wait till PLL is disabled */  
 587:Drivers/STM32F3xx_HAL_Driver/Src/stm32f3xx_hal_rcc.c ****         while(__HAL_RCC_GET_FLAG(RCC_FLAG_PLLRDY)  != RESET)
 2519              		.loc 1 587 0
 2520 105c 09E0     		b	.L185
 2521              	.L196:
 588:Drivers/STM32F3xx_HAL_Driver/Src/stm32f3xx_hal_rcc.c ****         {
 589:Drivers/STM32F3xx_HAL_Driver/Src/stm32f3xx_hal_rcc.c ****           if((HAL_GetTick() - tickstart ) > PLL_TIMEOUT_VALUE)
 2522              		.loc 1 589 0
 2523 105e FFF7FEFF 		bl	HAL_GetTick
 2524 1062 0246     		mov	r2, r0
 2525 1064 D7F8F831 		ldr	r3, [r7, #504]
 2526 1068 D31A     		subs	r3, r2, r3
 2527 106a 022B     		cmp	r3, #2
 2528 106c 01D9     		bls	.L185
 590:Drivers/STM32F3xx_HAL_Driver/Src/stm32f3xx_hal_rcc.c ****           {
 591:Drivers/STM32F3xx_HAL_Driver/Src/stm32f3xx_hal_rcc.c ****             return HAL_TIMEOUT;
 2529              		.loc 1 591 0
 2530 106e 0323     		movs	r3, #3
 2531 1070 81E0     		b	.L19
 2532              	.L185:
 2533 1072 07F12C03 		add	r3, r7, #44
 2534 1076 4FF00072 		mov	r2, #33554432
 2535 107a 1A60     		str	r2, [r3]
 2536              	.LBB282:
 2537              	.LBB283:
 531:Drivers/CMSIS/Include/cmsis_gcc.h **** #else
 2538              		.loc 2 531 0
 2539 107c 07F12C03 		add	r3, r7, #44
 2540 1080 1B68     		ldr	r3, [r3]
 2541              	@ 531 "Drivers/CMSIS/Include/cmsis_gcc.h" 1
 2542 1082 93FAA3F2 		rbit r2, r3
 2543              	@ 0 "" 2
 2544              		.thumb
 2545 1086 07F12803 		add	r3, r7, #40
 2546 108a 1A60     		str	r2, [r3]
 2547              		.loc 2 544 0
 2548 108c 07F12803 		add	r3, r7, #40
 2549 1090 1B68     		ldr	r3, [r3]
 2550              	.LBE283:
 2551              	.LBE282:
ARM GAS  /var/folders/0z/_3zh0q697778kwks4bv8s9bh0000gn/T//ccJVqLQz.s 			page 68


 587:Drivers/STM32F3xx_HAL_Driver/Src/stm32f3xx_hal_rcc.c ****         {
 2552              		.loc 1 587 0
 2553 1092 B3FA83F3 		clz	r3, r3
 2554 1096 DBB2     		uxtb	r3, r3
 2555 1098 43F02003 		orr	r3, r3, #32
 2556 109c DBB2     		uxtb	r3, r3
 2557 109e DBB2     		uxtb	r3, r3
 2558 10a0 5B09     		lsrs	r3, r3, #5
 2559 10a2 DBB2     		uxtb	r3, r3
 2560 10a4 012B     		cmp	r3, #1
 2561 10a6 02D1     		bne	.L187
 587:Drivers/STM32F3xx_HAL_Driver/Src/stm32f3xx_hal_rcc.c ****         {
 2562              		.loc 1 587 0 is_stmt 0 discriminator 1
 2563 10a8 314B     		ldr	r3, .L207
 2564 10aa 1B68     		ldr	r3, [r3]
 2565 10ac 3DE0     		b	.L188
 2566              	.L187:
 2567 10ae 07F12403 		add	r3, r7, #36
 2568 10b2 4FF00072 		mov	r2, #33554432
 2569 10b6 1A60     		str	r2, [r3]
 2570              	.LBB284:
 2571              	.LBB285:
 531:Drivers/CMSIS/Include/cmsis_gcc.h **** #else
 2572              		.loc 2 531 0 is_stmt 1 discriminator 2
 2573 10b8 07F12403 		add	r3, r7, #36
 2574 10bc 1B68     		ldr	r3, [r3]
 2575              	@ 531 "Drivers/CMSIS/Include/cmsis_gcc.h" 1
 2576 10be 93FAA3F2 		rbit r2, r3
 2577              	@ 0 "" 2
 2578              		.thumb
 2579 10c2 07F12003 		add	r3, r7, #32
 2580 10c6 1A60     		str	r2, [r3]
 2581              		.loc 2 544 0 discriminator 2
 2582 10c8 07F12003 		add	r3, r7, #32
 2583 10cc 1B68     		ldr	r3, [r3]
 2584              	.LBE285:
 2585              	.LBE284:
 587:Drivers/STM32F3xx_HAL_Driver/Src/stm32f3xx_hal_rcc.c ****         {
 2586              		.loc 1 587 0 discriminator 2
 2587 10ce B3FA83F3 		clz	r3, r3
 2588 10d2 DBB2     		uxtb	r3, r3
 2589 10d4 43F02003 		orr	r3, r3, #32
 2590 10d8 DBB2     		uxtb	r3, r3
 2591 10da DBB2     		uxtb	r3, r3
 2592 10dc 5B09     		lsrs	r3, r3, #5
 2593 10de DBB2     		uxtb	r3, r3
 2594 10e0 022B     		cmp	r3, #2
 2595 10e2 02D1     		bne	.L190
 587:Drivers/STM32F3xx_HAL_Driver/Src/stm32f3xx_hal_rcc.c ****         {
 2596              		.loc 1 587 0 is_stmt 0 discriminator 4
 2597 10e4 224B     		ldr	r3, .L207
 2598 10e6 1B6A     		ldr	r3, [r3, #32]
 2599 10e8 1FE0     		b	.L188
 2600              	.L190:
 2601 10ea 07F11C03 		add	r3, r7, #28
 2602 10ee 4FF00072 		mov	r2, #33554432
 2603 10f2 1A60     		str	r2, [r3]
ARM GAS  /var/folders/0z/_3zh0q697778kwks4bv8s9bh0000gn/T//ccJVqLQz.s 			page 69


 2604              	.LBB286:
 2605              	.LBB287:
 531:Drivers/CMSIS/Include/cmsis_gcc.h **** #else
 2606              		.loc 2 531 0 is_stmt 1 discriminator 5
 2607 10f4 07F11C03 		add	r3, r7, #28
 2608 10f8 1B68     		ldr	r3, [r3]
 2609              	@ 531 "Drivers/CMSIS/Include/cmsis_gcc.h" 1
 2610 10fa 93FAA3F2 		rbit r2, r3
 2611              	@ 0 "" 2
 2612              		.thumb
 2613 10fe 07F11803 		add	r3, r7, #24
 2614 1102 1A60     		str	r2, [r3]
 2615              		.loc 2 544 0 discriminator 5
 2616 1104 07F11803 		add	r3, r7, #24
 2617 1108 1B68     		ldr	r3, [r3]
 2618              	.LBE287:
 2619              	.LBE286:
 587:Drivers/STM32F3xx_HAL_Driver/Src/stm32f3xx_hal_rcc.c ****         {
 2620              		.loc 1 587 0 discriminator 5
 2621 110a B3FA83F3 		clz	r3, r3
 2622 110e DBB2     		uxtb	r3, r3
 2623 1110 43F02003 		orr	r3, r3, #32
 2624 1114 DBB2     		uxtb	r3, r3
 2625 1116 DBB2     		uxtb	r3, r3
 2626 1118 5B09     		lsrs	r3, r3, #5
 2627 111a DBB2     		uxtb	r3, r3
 2628 111c 042B     		cmp	r3, #4
 2629 111e 02D1     		bne	.L193
 587:Drivers/STM32F3xx_HAL_Driver/Src/stm32f3xx_hal_rcc.c ****         {
 2630              		.loc 1 587 0 is_stmt 0 discriminator 7
 2631 1120 134B     		ldr	r3, .L207
 2632 1122 5B68     		ldr	r3, [r3, #4]
 2633 1124 01E0     		b	.L188
 2634              	.L193:
 587:Drivers/STM32F3xx_HAL_Driver/Src/stm32f3xx_hal_rcc.c ****         {
 2635              		.loc 1 587 0 discriminator 8
 2636 1126 124B     		ldr	r3, .L207
 2637 1128 5B6A     		ldr	r3, [r3, #36]
 2638              	.L188:
 2639 112a 07F11402 		add	r2, r7, #20
 2640 112e 4FF00071 		mov	r1, #33554432
 2641 1132 1160     		str	r1, [r2]
 2642              	.LBB288:
 2643              	.LBB289:
 531:Drivers/CMSIS/Include/cmsis_gcc.h **** #else
 2644              		.loc 2 531 0 is_stmt 1 discriminator 12
 2645 1134 07F11402 		add	r2, r7, #20
 2646 1138 1268     		ldr	r2, [r2]
 2647              	@ 531 "Drivers/CMSIS/Include/cmsis_gcc.h" 1
 2648 113a 92FAA2F1 		rbit r1, r2
 2649              	@ 0 "" 2
 2650              		.thumb
 2651 113e 07F11002 		add	r2, r7, #16
 2652 1142 1160     		str	r1, [r2]
 2653              		.loc 2 544 0 discriminator 12
 2654 1144 07F11002 		add	r2, r7, #16
 2655 1148 1268     		ldr	r2, [r2]
ARM GAS  /var/folders/0z/_3zh0q697778kwks4bv8s9bh0000gn/T//ccJVqLQz.s 			page 70


 2656              	.LBE289:
 2657              	.LBE288:
 587:Drivers/STM32F3xx_HAL_Driver/Src/stm32f3xx_hal_rcc.c ****         {
 2658              		.loc 1 587 0 discriminator 12
 2659 114a B2FA82F2 		clz	r2, r2
 2660 114e D2B2     		uxtb	r2, r2
 2661 1150 42F02002 		orr	r2, r2, #32
 2662 1154 D2B2     		uxtb	r2, r2
 2663 1156 D2B2     		uxtb	r2, r2
 2664 1158 02F01F02 		and	r2, r2, #31
 2665 115c D340     		lsrs	r3, r3, r2
 2666 115e 03F00103 		and	r3, r3, #1
 2667 1162 002B     		cmp	r3, #0
 2668 1164 7FF47BAF 		bne	.L196
 2669 1168 04E0     		b	.L155
 2670              	.L156:
 592:Drivers/STM32F3xx_HAL_Driver/Src/stm32f3xx_hal_rcc.c ****           }
 593:Drivers/STM32F3xx_HAL_Driver/Src/stm32f3xx_hal_rcc.c ****         }
 594:Drivers/STM32F3xx_HAL_Driver/Src/stm32f3xx_hal_rcc.c ****       }
 595:Drivers/STM32F3xx_HAL_Driver/Src/stm32f3xx_hal_rcc.c ****     }
 596:Drivers/STM32F3xx_HAL_Driver/Src/stm32f3xx_hal_rcc.c ****     else
 597:Drivers/STM32F3xx_HAL_Driver/Src/stm32f3xx_hal_rcc.c ****     {
 598:Drivers/STM32F3xx_HAL_Driver/Src/stm32f3xx_hal_rcc.c ****       return HAL_ERROR;
 2671              		.loc 1 598 0
 2672 116a 0123     		movs	r3, #1
 2673 116c 03E0     		b	.L19
 2674              	.L208:
 2675 116e 00BF     		.align	2
 2676              	.L207:
 2677 1170 00100240 		.word	1073876992
 2678              	.L155:
 599:Drivers/STM32F3xx_HAL_Driver/Src/stm32f3xx_hal_rcc.c ****     }
 600:Drivers/STM32F3xx_HAL_Driver/Src/stm32f3xx_hal_rcc.c ****   }
 601:Drivers/STM32F3xx_HAL_Driver/Src/stm32f3xx_hal_rcc.c ****   
 602:Drivers/STM32F3xx_HAL_Driver/Src/stm32f3xx_hal_rcc.c ****   return HAL_OK;
 2679              		.loc 1 602 0
 2680 1174 0023     		movs	r3, #0
 2681              	.L19:
 603:Drivers/STM32F3xx_HAL_Driver/Src/stm32f3xx_hal_rcc.c **** }
 2682              		.loc 1 603 0
 2683 1176 1846     		mov	r0, r3
 2684 1178 07F50077 		add	r7, r7, #512
 2685              	.LCFI7:
 2686              		.cfi_def_cfa_offset 8
 2687 117c BD46     		mov	sp, r7
 2688              	.LCFI8:
 2689              		.cfi_def_cfa_register 13
 2690              		@ sp needed
 2691 117e 80BD     		pop	{r7, pc}
 2692              		.cfi_endproc
 2693              	.LFE124:
 2695              		.section	.text.HAL_RCC_ClockConfig,"ax",%progbits
 2696              		.align	2
 2697              		.global	HAL_RCC_ClockConfig
 2698              		.thumb
 2699              		.thumb_func
 2701              	HAL_RCC_ClockConfig:
ARM GAS  /var/folders/0z/_3zh0q697778kwks4bv8s9bh0000gn/T//ccJVqLQz.s 			page 71


 2702              	.LFB125:
 604:Drivers/STM32F3xx_HAL_Driver/Src/stm32f3xx_hal_rcc.c **** 
 605:Drivers/STM32F3xx_HAL_Driver/Src/stm32f3xx_hal_rcc.c **** /**
 606:Drivers/STM32F3xx_HAL_Driver/Src/stm32f3xx_hal_rcc.c ****   * @brief  Initializes the CPU, AHB and APB buses clocks according to the specified 
 607:Drivers/STM32F3xx_HAL_Driver/Src/stm32f3xx_hal_rcc.c ****   *         parameters in the RCC_ClkInitStruct.
 608:Drivers/STM32F3xx_HAL_Driver/Src/stm32f3xx_hal_rcc.c ****   * @param  RCC_ClkInitStruct pointer to an RCC_OscInitTypeDef structure that
 609:Drivers/STM32F3xx_HAL_Driver/Src/stm32f3xx_hal_rcc.c ****   *         contains the configuration information for the RCC peripheral.
 610:Drivers/STM32F3xx_HAL_Driver/Src/stm32f3xx_hal_rcc.c ****   * @param  FLatency FLASH Latency                   
 611:Drivers/STM32F3xx_HAL_Driver/Src/stm32f3xx_hal_rcc.c ****   *          The value of this parameter depend on device used within the same series
 612:Drivers/STM32F3xx_HAL_Driver/Src/stm32f3xx_hal_rcc.c ****   * @note   The SystemCoreClock CMSIS variable is used to store System Clock Frequency 
 613:Drivers/STM32F3xx_HAL_Driver/Src/stm32f3xx_hal_rcc.c ****   *         and updated by @ref HAL_RCC_GetHCLKFreq() function called within this function
 614:Drivers/STM32F3xx_HAL_Driver/Src/stm32f3xx_hal_rcc.c ****   *
 615:Drivers/STM32F3xx_HAL_Driver/Src/stm32f3xx_hal_rcc.c ****   * @note   The HSI is used (enabled by hardware) as system clock source after
 616:Drivers/STM32F3xx_HAL_Driver/Src/stm32f3xx_hal_rcc.c ****   *         start-up from Reset, wake-up from STOP and STANDBY mode, or in case
 617:Drivers/STM32F3xx_HAL_Driver/Src/stm32f3xx_hal_rcc.c ****   *         of failure of the HSE used directly or indirectly as system clock
 618:Drivers/STM32F3xx_HAL_Driver/Src/stm32f3xx_hal_rcc.c ****   *         (if the Clock Security System CSS is enabled).
 619:Drivers/STM32F3xx_HAL_Driver/Src/stm32f3xx_hal_rcc.c ****   *           
 620:Drivers/STM32F3xx_HAL_Driver/Src/stm32f3xx_hal_rcc.c ****   * @note   A switch from one clock source to another occurs only if the target
 621:Drivers/STM32F3xx_HAL_Driver/Src/stm32f3xx_hal_rcc.c ****   *         clock source is ready (clock stable after start-up delay or PLL locked). 
 622:Drivers/STM32F3xx_HAL_Driver/Src/stm32f3xx_hal_rcc.c ****   *         If a clock source which is not yet ready is selected, the switch will
 623:Drivers/STM32F3xx_HAL_Driver/Src/stm32f3xx_hal_rcc.c ****   *         occur when the clock source will be ready. 
 624:Drivers/STM32F3xx_HAL_Driver/Src/stm32f3xx_hal_rcc.c ****   *         You can use @ref HAL_RCC_GetClockConfig() function to know which clock is
 625:Drivers/STM32F3xx_HAL_Driver/Src/stm32f3xx_hal_rcc.c ****   *         currently used as system clock source.
 626:Drivers/STM32F3xx_HAL_Driver/Src/stm32f3xx_hal_rcc.c ****   * @retval HAL status
 627:Drivers/STM32F3xx_HAL_Driver/Src/stm32f3xx_hal_rcc.c ****   */
 628:Drivers/STM32F3xx_HAL_Driver/Src/stm32f3xx_hal_rcc.c **** HAL_StatusTypeDef HAL_RCC_ClockConfig(RCC_ClkInitTypeDef  *RCC_ClkInitStruct, uint32_t FLatency)
 629:Drivers/STM32F3xx_HAL_Driver/Src/stm32f3xx_hal_rcc.c **** {
 2703              		.loc 1 629 0
 2704              		.cfi_startproc
 2705              		@ args = 0, pretend = 0, frame = 120
 2706              		@ frame_needed = 1, uses_anonymous_args = 0
 2707 0000 80B5     		push	{r7, lr}
 2708              	.LCFI9:
 2709              		.cfi_def_cfa_offset 8
 2710              		.cfi_offset 7, -8
 2711              		.cfi_offset 14, -4
 2712 0002 9EB0     		sub	sp, sp, #120
 2713              	.LCFI10:
 2714              		.cfi_def_cfa_offset 128
 2715 0004 00AF     		add	r7, sp, #0
 2716              	.LCFI11:
 2717              		.cfi_def_cfa_register 7
 2718 0006 7860     		str	r0, [r7, #4]
 2719 0008 3960     		str	r1, [r7]
 630:Drivers/STM32F3xx_HAL_Driver/Src/stm32f3xx_hal_rcc.c ****   uint32_t tickstart = 0U;
 2720              		.loc 1 630 0
 2721 000a 0023     		movs	r3, #0
 2722 000c 7B67     		str	r3, [r7, #116]
 631:Drivers/STM32F3xx_HAL_Driver/Src/stm32f3xx_hal_rcc.c ****   
 632:Drivers/STM32F3xx_HAL_Driver/Src/stm32f3xx_hal_rcc.c ****   /* Check the parameters */
 633:Drivers/STM32F3xx_HAL_Driver/Src/stm32f3xx_hal_rcc.c ****   assert_param(RCC_ClkInitStruct != NULL);
 634:Drivers/STM32F3xx_HAL_Driver/Src/stm32f3xx_hal_rcc.c ****   assert_param(IS_RCC_CLOCKTYPE(RCC_ClkInitStruct->ClockType));
 635:Drivers/STM32F3xx_HAL_Driver/Src/stm32f3xx_hal_rcc.c ****   assert_param(IS_FLASH_LATENCY(FLatency));
 636:Drivers/STM32F3xx_HAL_Driver/Src/stm32f3xx_hal_rcc.c **** 
 637:Drivers/STM32F3xx_HAL_Driver/Src/stm32f3xx_hal_rcc.c ****   /* To correctly read data from FLASH memory, the number of wait states (LATENCY) 
 638:Drivers/STM32F3xx_HAL_Driver/Src/stm32f3xx_hal_rcc.c ****   must be correctly programmed according to the frequency of the CPU clock 
 639:Drivers/STM32F3xx_HAL_Driver/Src/stm32f3xx_hal_rcc.c ****     (HCLK) of the device. */
ARM GAS  /var/folders/0z/_3zh0q697778kwks4bv8s9bh0000gn/T//ccJVqLQz.s 			page 72


 640:Drivers/STM32F3xx_HAL_Driver/Src/stm32f3xx_hal_rcc.c **** 
 641:Drivers/STM32F3xx_HAL_Driver/Src/stm32f3xx_hal_rcc.c ****   /* Increasing the number of wait states because of higher CPU frequency */
 642:Drivers/STM32F3xx_HAL_Driver/Src/stm32f3xx_hal_rcc.c ****   if(FLatency > (FLASH->ACR & FLASH_ACR_LATENCY))
 2723              		.loc 1 642 0
 2724 000e A34B     		ldr	r3, .L259
 2725 0010 1B68     		ldr	r3, [r3]
 2726 0012 03F00702 		and	r2, r3, #7
 2727 0016 3B68     		ldr	r3, [r7]
 2728 0018 9A42     		cmp	r2, r3
 2729 001a 10D2     		bcs	.L210
 643:Drivers/STM32F3xx_HAL_Driver/Src/stm32f3xx_hal_rcc.c ****   {    
 644:Drivers/STM32F3xx_HAL_Driver/Src/stm32f3xx_hal_rcc.c ****     /* Program the new number of wait states to the LATENCY bits in the FLASH_ACR register */
 645:Drivers/STM32F3xx_HAL_Driver/Src/stm32f3xx_hal_rcc.c ****     __HAL_FLASH_SET_LATENCY(FLatency);
 2730              		.loc 1 645 0
 2731 001c 9F49     		ldr	r1, .L259
 2732 001e 9F4B     		ldr	r3, .L259
 2733 0020 1B68     		ldr	r3, [r3]
 2734 0022 23F00702 		bic	r2, r3, #7
 2735 0026 3B68     		ldr	r3, [r7]
 2736 0028 1343     		orrs	r3, r3, r2
 2737 002a 0B60     		str	r3, [r1]
 646:Drivers/STM32F3xx_HAL_Driver/Src/stm32f3xx_hal_rcc.c ****     
 647:Drivers/STM32F3xx_HAL_Driver/Src/stm32f3xx_hal_rcc.c ****     /* Check that the new number of wait states is taken into account to access the Flash
 648:Drivers/STM32F3xx_HAL_Driver/Src/stm32f3xx_hal_rcc.c ****     memory by reading the FLASH_ACR register */
 649:Drivers/STM32F3xx_HAL_Driver/Src/stm32f3xx_hal_rcc.c ****     if((FLASH->ACR & FLASH_ACR_LATENCY) != FLatency)
 2738              		.loc 1 649 0
 2739 002c 9B4B     		ldr	r3, .L259
 2740 002e 1B68     		ldr	r3, [r3]
 2741 0030 03F00702 		and	r2, r3, #7
 2742 0034 3B68     		ldr	r3, [r7]
 2743 0036 9A42     		cmp	r2, r3
 2744 0038 01D0     		beq	.L210
 650:Drivers/STM32F3xx_HAL_Driver/Src/stm32f3xx_hal_rcc.c ****     {
 651:Drivers/STM32F3xx_HAL_Driver/Src/stm32f3xx_hal_rcc.c ****       return HAL_ERROR;
 2745              		.loc 1 651 0
 2746 003a 0123     		movs	r3, #1
 2747 003c D1E1     		b	.L211
 2748              	.L210:
 652:Drivers/STM32F3xx_HAL_Driver/Src/stm32f3xx_hal_rcc.c ****     }
 653:Drivers/STM32F3xx_HAL_Driver/Src/stm32f3xx_hal_rcc.c ****   }
 654:Drivers/STM32F3xx_HAL_Driver/Src/stm32f3xx_hal_rcc.c **** 
 655:Drivers/STM32F3xx_HAL_Driver/Src/stm32f3xx_hal_rcc.c ****   /*-------------------------- HCLK Configuration --------------------------*/
 656:Drivers/STM32F3xx_HAL_Driver/Src/stm32f3xx_hal_rcc.c ****   if(((RCC_ClkInitStruct->ClockType) & RCC_CLOCKTYPE_HCLK) == RCC_CLOCKTYPE_HCLK)
 2749              		.loc 1 656 0
 2750 003e 7B68     		ldr	r3, [r7, #4]
 2751 0040 1B68     		ldr	r3, [r3]
 2752 0042 03F00203 		and	r3, r3, #2
 2753 0046 002B     		cmp	r3, #0
 2754 0048 08D0     		beq	.L212
 657:Drivers/STM32F3xx_HAL_Driver/Src/stm32f3xx_hal_rcc.c ****   {
 658:Drivers/STM32F3xx_HAL_Driver/Src/stm32f3xx_hal_rcc.c ****     assert_param(IS_RCC_HCLK(RCC_ClkInitStruct->AHBCLKDivider));
 659:Drivers/STM32F3xx_HAL_Driver/Src/stm32f3xx_hal_rcc.c ****     MODIFY_REG(RCC->CFGR, RCC_CFGR_HPRE, RCC_ClkInitStruct->AHBCLKDivider);
 2755              		.loc 1 659 0
 2756 004a 9549     		ldr	r1, .L259+4
 2757 004c 944B     		ldr	r3, .L259+4
 2758 004e 5B68     		ldr	r3, [r3, #4]
 2759 0050 23F0F002 		bic	r2, r3, #240
ARM GAS  /var/folders/0z/_3zh0q697778kwks4bv8s9bh0000gn/T//ccJVqLQz.s 			page 73


 2760 0054 7B68     		ldr	r3, [r7, #4]
 2761 0056 9B68     		ldr	r3, [r3, #8]
 2762 0058 1343     		orrs	r3, r3, r2
 2763 005a 4B60     		str	r3, [r1, #4]
 2764              	.L212:
 660:Drivers/STM32F3xx_HAL_Driver/Src/stm32f3xx_hal_rcc.c ****   }
 661:Drivers/STM32F3xx_HAL_Driver/Src/stm32f3xx_hal_rcc.c **** 
 662:Drivers/STM32F3xx_HAL_Driver/Src/stm32f3xx_hal_rcc.c ****   /*------------------------- SYSCLK Configuration ---------------------------*/ 
 663:Drivers/STM32F3xx_HAL_Driver/Src/stm32f3xx_hal_rcc.c ****   if(((RCC_ClkInitStruct->ClockType) & RCC_CLOCKTYPE_SYSCLK) == RCC_CLOCKTYPE_SYSCLK)
 2765              		.loc 1 663 0
 2766 005c 7B68     		ldr	r3, [r7, #4]
 2767 005e 1B68     		ldr	r3, [r3]
 2768 0060 03F00103 		and	r3, r3, #1
 2769 0064 002B     		cmp	r3, #0
 2770 0066 00F06981 		beq	.L213
 664:Drivers/STM32F3xx_HAL_Driver/Src/stm32f3xx_hal_rcc.c ****   {    
 665:Drivers/STM32F3xx_HAL_Driver/Src/stm32f3xx_hal_rcc.c ****     assert_param(IS_RCC_SYSCLKSOURCE(RCC_ClkInitStruct->SYSCLKSource));
 666:Drivers/STM32F3xx_HAL_Driver/Src/stm32f3xx_hal_rcc.c ****     
 667:Drivers/STM32F3xx_HAL_Driver/Src/stm32f3xx_hal_rcc.c ****     /* HSE is selected as System Clock Source */
 668:Drivers/STM32F3xx_HAL_Driver/Src/stm32f3xx_hal_rcc.c ****     if(RCC_ClkInitStruct->SYSCLKSource == RCC_SYSCLKSOURCE_HSE)
 2771              		.loc 1 668 0
 2772 006a 7B68     		ldr	r3, [r7, #4]
 2773 006c 5B68     		ldr	r3, [r3, #4]
 2774 006e 012B     		cmp	r3, #1
 2775 0070 5CD1     		bne	.L214
 2776 0072 4FF40033 		mov	r3, #131072
 2777 0076 3B67     		str	r3, [r7, #112]
 2778              	.LBB290:
 2779              	.LBB291:
 531:Drivers/CMSIS/Include/cmsis_gcc.h **** #else
 2780              		.loc 2 531 0
 2781 0078 3B6F     		ldr	r3, [r7, #112]
 2782              	@ 531 "Drivers/CMSIS/Include/cmsis_gcc.h" 1
 2783 007a 93FAA3F3 		rbit r3, r3
 2784              	@ 0 "" 2
 2785              		.thumb
 2786 007e FB66     		str	r3, [r7, #108]
 2787              		.loc 2 544 0
 2788 0080 FB6E     		ldr	r3, [r7, #108]
 2789              	.LBE291:
 2790              	.LBE290:
 669:Drivers/STM32F3xx_HAL_Driver/Src/stm32f3xx_hal_rcc.c ****     {
 670:Drivers/STM32F3xx_HAL_Driver/Src/stm32f3xx_hal_rcc.c ****       /* Check the HSE ready flag */  
 671:Drivers/STM32F3xx_HAL_Driver/Src/stm32f3xx_hal_rcc.c ****       if(__HAL_RCC_GET_FLAG(RCC_FLAG_HSERDY) == RESET)
 2791              		.loc 1 671 0
 2792 0082 B3FA83F3 		clz	r3, r3
 2793 0086 DBB2     		uxtb	r3, r3
 2794 0088 43F02003 		orr	r3, r3, #32
 2795 008c DBB2     		uxtb	r3, r3
 2796 008e DBB2     		uxtb	r3, r3
 2797 0090 5B09     		lsrs	r3, r3, #5
 2798 0092 DBB2     		uxtb	r3, r3
 2799 0094 012B     		cmp	r3, #1
 2800 0096 02D1     		bne	.L216
 2801              		.loc 1 671 0 is_stmt 0 discriminator 1
 2802 0098 814B     		ldr	r3, .L259+4
 2803 009a 1B68     		ldr	r3, [r3]
ARM GAS  /var/folders/0z/_3zh0q697778kwks4bv8s9bh0000gn/T//ccJVqLQz.s 			page 74


 2804 009c 2DE0     		b	.L217
 2805              	.L216:
 2806 009e 4FF40033 		mov	r3, #131072
 2807 00a2 BB66     		str	r3, [r7, #104]
 2808              	.LBB292:
 2809              	.LBB293:
 531:Drivers/CMSIS/Include/cmsis_gcc.h **** #else
 2810              		.loc 2 531 0 is_stmt 1 discriminator 2
 2811 00a4 BB6E     		ldr	r3, [r7, #104]
 2812              	@ 531 "Drivers/CMSIS/Include/cmsis_gcc.h" 1
 2813 00a6 93FAA3F3 		rbit r3, r3
 2814              	@ 0 "" 2
 2815              		.thumb
 2816 00aa 7B66     		str	r3, [r7, #100]
 2817              		.loc 2 544 0 discriminator 2
 2818 00ac 7B6E     		ldr	r3, [r7, #100]
 2819              	.LBE293:
 2820              	.LBE292:
 2821              		.loc 1 671 0 discriminator 2
 2822 00ae B3FA83F3 		clz	r3, r3
 2823 00b2 DBB2     		uxtb	r3, r3
 2824 00b4 43F02003 		orr	r3, r3, #32
 2825 00b8 DBB2     		uxtb	r3, r3
 2826 00ba DBB2     		uxtb	r3, r3
 2827 00bc 5B09     		lsrs	r3, r3, #5
 2828 00be DBB2     		uxtb	r3, r3
 2829 00c0 022B     		cmp	r3, #2
 2830 00c2 02D1     		bne	.L219
 2831              		.loc 1 671 0 is_stmt 0 discriminator 4
 2832 00c4 764B     		ldr	r3, .L259+4
 2833 00c6 1B6A     		ldr	r3, [r3, #32]
 2834 00c8 17E0     		b	.L217
 2835              	.L219:
 2836 00ca 4FF40033 		mov	r3, #131072
 2837 00ce 3B66     		str	r3, [r7, #96]
 2838              	.LBB294:
 2839              	.LBB295:
 531:Drivers/CMSIS/Include/cmsis_gcc.h **** #else
 2840              		.loc 2 531 0 is_stmt 1 discriminator 5
 2841 00d0 3B6E     		ldr	r3, [r7, #96]
 2842              	@ 531 "Drivers/CMSIS/Include/cmsis_gcc.h" 1
 2843 00d2 93FAA3F3 		rbit r3, r3
 2844              	@ 0 "" 2
 2845              		.thumb
 2846 00d6 FB65     		str	r3, [r7, #92]
 2847              		.loc 2 544 0 discriminator 5
 2848 00d8 FB6D     		ldr	r3, [r7, #92]
 2849              	.LBE295:
 2850              	.LBE294:
 2851              		.loc 1 671 0 discriminator 5
 2852 00da B3FA83F3 		clz	r3, r3
 2853 00de DBB2     		uxtb	r3, r3
 2854 00e0 43F02003 		orr	r3, r3, #32
 2855 00e4 DBB2     		uxtb	r3, r3
 2856 00e6 DBB2     		uxtb	r3, r3
 2857 00e8 5B09     		lsrs	r3, r3, #5
 2858 00ea DBB2     		uxtb	r3, r3
ARM GAS  /var/folders/0z/_3zh0q697778kwks4bv8s9bh0000gn/T//ccJVqLQz.s 			page 75


 2859 00ec 042B     		cmp	r3, #4
 2860 00ee 02D1     		bne	.L222
 2861              		.loc 1 671 0 is_stmt 0 discriminator 7
 2862 00f0 6B4B     		ldr	r3, .L259+4
 2863 00f2 5B68     		ldr	r3, [r3, #4]
 2864 00f4 01E0     		b	.L217
 2865              	.L222:
 2866              		.loc 1 671 0 discriminator 8
 2867 00f6 6A4B     		ldr	r3, .L259+4
 2868 00f8 5B6A     		ldr	r3, [r3, #36]
 2869              	.L217:
 2870 00fa 4FF40032 		mov	r2, #131072
 2871 00fe BA65     		str	r2, [r7, #88]
 2872              	.LBB296:
 2873              	.LBB297:
 531:Drivers/CMSIS/Include/cmsis_gcc.h **** #else
 2874              		.loc 2 531 0 is_stmt 1 discriminator 12
 2875 0100 BA6D     		ldr	r2, [r7, #88]
 2876              	@ 531 "Drivers/CMSIS/Include/cmsis_gcc.h" 1
 2877 0102 92FAA2F2 		rbit r2, r2
 2878              	@ 0 "" 2
 2879              		.thumb
 2880 0106 7A65     		str	r2, [r7, #84]
 2881              		.loc 2 544 0 discriminator 12
 2882 0108 7A6D     		ldr	r2, [r7, #84]
 2883              	.LBE297:
 2884              	.LBE296:
 2885              		.loc 1 671 0 discriminator 12
 2886 010a B2FA82F2 		clz	r2, r2
 2887 010e D2B2     		uxtb	r2, r2
 2888 0110 42F02002 		orr	r2, r2, #32
 2889 0114 D2B2     		uxtb	r2, r2
 2890 0116 D2B2     		uxtb	r2, r2
 2891 0118 02F01F02 		and	r2, r2, #31
 2892 011c D340     		lsrs	r3, r3, r2
 2893 011e 03F00103 		and	r3, r3, #1
 2894 0122 002B     		cmp	r3, #0
 2895 0124 40F0BE80 		bne	.L225
 672:Drivers/STM32F3xx_HAL_Driver/Src/stm32f3xx_hal_rcc.c ****       {
 673:Drivers/STM32F3xx_HAL_Driver/Src/stm32f3xx_hal_rcc.c ****         return HAL_ERROR;
 2896              		.loc 1 673 0
 2897 0128 0123     		movs	r3, #1
 2898 012a 5AE1     		b	.L211
 2899              	.L214:
 674:Drivers/STM32F3xx_HAL_Driver/Src/stm32f3xx_hal_rcc.c ****       }
 675:Drivers/STM32F3xx_HAL_Driver/Src/stm32f3xx_hal_rcc.c ****     }
 676:Drivers/STM32F3xx_HAL_Driver/Src/stm32f3xx_hal_rcc.c ****     /* PLL is selected as System Clock Source */
 677:Drivers/STM32F3xx_HAL_Driver/Src/stm32f3xx_hal_rcc.c ****     else if(RCC_ClkInitStruct->SYSCLKSource == RCC_SYSCLKSOURCE_PLLCLK)
 2900              		.loc 1 677 0
 2901 012c 7B68     		ldr	r3, [r7, #4]
 2902 012e 5B68     		ldr	r3, [r3, #4]
 2903 0130 022B     		cmp	r3, #2
 2904 0132 5BD1     		bne	.L226
 2905 0134 4FF00073 		mov	r3, #33554432
 2906 0138 3B65     		str	r3, [r7, #80]
 2907              	.LBB298:
 2908              	.LBB299:
ARM GAS  /var/folders/0z/_3zh0q697778kwks4bv8s9bh0000gn/T//ccJVqLQz.s 			page 76


 531:Drivers/CMSIS/Include/cmsis_gcc.h **** #else
 2909              		.loc 2 531 0
 2910 013a 3B6D     		ldr	r3, [r7, #80]
 2911              	@ 531 "Drivers/CMSIS/Include/cmsis_gcc.h" 1
 2912 013c 93FAA3F3 		rbit r3, r3
 2913              	@ 0 "" 2
 2914              		.thumb
 2915 0140 FB64     		str	r3, [r7, #76]
 2916              		.loc 2 544 0
 2917 0142 FB6C     		ldr	r3, [r7, #76]
 2918              	.LBE299:
 2919              	.LBE298:
 678:Drivers/STM32F3xx_HAL_Driver/Src/stm32f3xx_hal_rcc.c ****     {
 679:Drivers/STM32F3xx_HAL_Driver/Src/stm32f3xx_hal_rcc.c ****       /* Check the PLL ready flag */  
 680:Drivers/STM32F3xx_HAL_Driver/Src/stm32f3xx_hal_rcc.c ****       if(__HAL_RCC_GET_FLAG(RCC_FLAG_PLLRDY) == RESET)
 2920              		.loc 1 680 0
 2921 0144 B3FA83F3 		clz	r3, r3
 2922 0148 DBB2     		uxtb	r3, r3
 2923 014a 43F02003 		orr	r3, r3, #32
 2924 014e DBB2     		uxtb	r3, r3
 2925 0150 DBB2     		uxtb	r3, r3
 2926 0152 5B09     		lsrs	r3, r3, #5
 2927 0154 DBB2     		uxtb	r3, r3
 2928 0156 012B     		cmp	r3, #1
 2929 0158 02D1     		bne	.L228
 2930              		.loc 1 680 0 is_stmt 0 discriminator 1
 2931 015a 514B     		ldr	r3, .L259+4
 2932 015c 1B68     		ldr	r3, [r3]
 2933 015e 2DE0     		b	.L229
 2934              	.L228:
 2935 0160 4FF00073 		mov	r3, #33554432
 2936 0164 BB64     		str	r3, [r7, #72]
 2937              	.LBB300:
 2938              	.LBB301:
 531:Drivers/CMSIS/Include/cmsis_gcc.h **** #else
 2939              		.loc 2 531 0 is_stmt 1 discriminator 2
 2940 0166 BB6C     		ldr	r3, [r7, #72]
 2941              	@ 531 "Drivers/CMSIS/Include/cmsis_gcc.h" 1
 2942 0168 93FAA3F3 		rbit r3, r3
 2943              	@ 0 "" 2
 2944              		.thumb
 2945 016c 7B64     		str	r3, [r7, #68]
 2946              		.loc 2 544 0 discriminator 2
 2947 016e 7B6C     		ldr	r3, [r7, #68]
 2948              	.LBE301:
 2949              	.LBE300:
 2950              		.loc 1 680 0 discriminator 2
 2951 0170 B3FA83F3 		clz	r3, r3
 2952 0174 DBB2     		uxtb	r3, r3
 2953 0176 43F02003 		orr	r3, r3, #32
 2954 017a DBB2     		uxtb	r3, r3
 2955 017c DBB2     		uxtb	r3, r3
 2956 017e 5B09     		lsrs	r3, r3, #5
 2957 0180 DBB2     		uxtb	r3, r3
 2958 0182 022B     		cmp	r3, #2
 2959 0184 02D1     		bne	.L231
 2960              		.loc 1 680 0 is_stmt 0 discriminator 4
ARM GAS  /var/folders/0z/_3zh0q697778kwks4bv8s9bh0000gn/T//ccJVqLQz.s 			page 77


 2961 0186 464B     		ldr	r3, .L259+4
 2962 0188 1B6A     		ldr	r3, [r3, #32]
 2963 018a 17E0     		b	.L229
 2964              	.L231:
 2965 018c 4FF00073 		mov	r3, #33554432
 2966 0190 3B64     		str	r3, [r7, #64]
 2967              	.LBB302:
 2968              	.LBB303:
 531:Drivers/CMSIS/Include/cmsis_gcc.h **** #else
 2969              		.loc 2 531 0 is_stmt 1 discriminator 5
 2970 0192 3B6C     		ldr	r3, [r7, #64]
 2971              	@ 531 "Drivers/CMSIS/Include/cmsis_gcc.h" 1
 2972 0194 93FAA3F3 		rbit r3, r3
 2973              	@ 0 "" 2
 2974              		.thumb
 2975 0198 FB63     		str	r3, [r7, #60]
 2976              		.loc 2 544 0 discriminator 5
 2977 019a FB6B     		ldr	r3, [r7, #60]
 2978              	.LBE303:
 2979              	.LBE302:
 2980              		.loc 1 680 0 discriminator 5
 2981 019c B3FA83F3 		clz	r3, r3
 2982 01a0 DBB2     		uxtb	r3, r3
 2983 01a2 43F02003 		orr	r3, r3, #32
 2984 01a6 DBB2     		uxtb	r3, r3
 2985 01a8 DBB2     		uxtb	r3, r3
 2986 01aa 5B09     		lsrs	r3, r3, #5
 2987 01ac DBB2     		uxtb	r3, r3
 2988 01ae 042B     		cmp	r3, #4
 2989 01b0 02D1     		bne	.L234
 2990              		.loc 1 680 0 is_stmt 0 discriminator 7
 2991 01b2 3B4B     		ldr	r3, .L259+4
 2992 01b4 5B68     		ldr	r3, [r3, #4]
 2993 01b6 01E0     		b	.L229
 2994              	.L234:
 2995              		.loc 1 680 0 discriminator 8
 2996 01b8 394B     		ldr	r3, .L259+4
 2997 01ba 5B6A     		ldr	r3, [r3, #36]
 2998              	.L229:
 2999 01bc 4FF00072 		mov	r2, #33554432
 3000 01c0 BA63     		str	r2, [r7, #56]
 3001              	.LBB304:
 3002              	.LBB305:
 531:Drivers/CMSIS/Include/cmsis_gcc.h **** #else
 3003              		.loc 2 531 0 is_stmt 1 discriminator 12
 3004 01c2 BA6B     		ldr	r2, [r7, #56]
 3005              	@ 531 "Drivers/CMSIS/Include/cmsis_gcc.h" 1
 3006 01c4 92FAA2F2 		rbit r2, r2
 3007              	@ 0 "" 2
 3008              		.thumb
 3009 01c8 7A63     		str	r2, [r7, #52]
 3010              		.loc 2 544 0 discriminator 12
 3011 01ca 7A6B     		ldr	r2, [r7, #52]
 3012              	.LBE305:
 3013              	.LBE304:
 3014              		.loc 1 680 0 discriminator 12
 3015 01cc B2FA82F2 		clz	r2, r2
ARM GAS  /var/folders/0z/_3zh0q697778kwks4bv8s9bh0000gn/T//ccJVqLQz.s 			page 78


 3016 01d0 D2B2     		uxtb	r2, r2
 3017 01d2 42F02002 		orr	r2, r2, #32
 3018 01d6 D2B2     		uxtb	r2, r2
 3019 01d8 D2B2     		uxtb	r2, r2
 3020 01da 02F01F02 		and	r2, r2, #31
 3021 01de D340     		lsrs	r3, r3, r2
 3022 01e0 03F00103 		and	r3, r3, #1
 3023 01e4 002B     		cmp	r3, #0
 3024 01e6 5DD1     		bne	.L225
 681:Drivers/STM32F3xx_HAL_Driver/Src/stm32f3xx_hal_rcc.c ****       {
 682:Drivers/STM32F3xx_HAL_Driver/Src/stm32f3xx_hal_rcc.c ****         return HAL_ERROR;
 3025              		.loc 1 682 0
 3026 01e8 0123     		movs	r3, #1
 3027 01ea FAE0     		b	.L211
 3028              	.L226:
 3029 01ec 0223     		movs	r3, #2
 3030 01ee 3B63     		str	r3, [r7, #48]
 3031              	.LBB306:
 3032              	.LBB307:
 531:Drivers/CMSIS/Include/cmsis_gcc.h **** #else
 3033              		.loc 2 531 0
 3034 01f0 3B6B     		ldr	r3, [r7, #48]
 3035              	@ 531 "Drivers/CMSIS/Include/cmsis_gcc.h" 1
 3036 01f2 93FAA3F3 		rbit r3, r3
 3037              	@ 0 "" 2
 3038              		.thumb
 3039 01f6 FB62     		str	r3, [r7, #44]
 3040              		.loc 2 544 0
 3041 01f8 FB6A     		ldr	r3, [r7, #44]
 3042              	.LBE307:
 3043              	.LBE306:
 683:Drivers/STM32F3xx_HAL_Driver/Src/stm32f3xx_hal_rcc.c ****       }
 684:Drivers/STM32F3xx_HAL_Driver/Src/stm32f3xx_hal_rcc.c ****     }
 685:Drivers/STM32F3xx_HAL_Driver/Src/stm32f3xx_hal_rcc.c ****     /* HSI is selected as System Clock Source */
 686:Drivers/STM32F3xx_HAL_Driver/Src/stm32f3xx_hal_rcc.c ****     else
 687:Drivers/STM32F3xx_HAL_Driver/Src/stm32f3xx_hal_rcc.c ****     {
 688:Drivers/STM32F3xx_HAL_Driver/Src/stm32f3xx_hal_rcc.c ****       /* Check the HSI ready flag */  
 689:Drivers/STM32F3xx_HAL_Driver/Src/stm32f3xx_hal_rcc.c ****       if(__HAL_RCC_GET_FLAG(RCC_FLAG_HSIRDY) == RESET)
 3044              		.loc 1 689 0
 3045 01fa B3FA83F3 		clz	r3, r3
 3046 01fe DBB2     		uxtb	r3, r3
 3047 0200 43F02003 		orr	r3, r3, #32
 3048 0204 DBB2     		uxtb	r3, r3
 3049 0206 DBB2     		uxtb	r3, r3
 3050 0208 5B09     		lsrs	r3, r3, #5
 3051 020a DBB2     		uxtb	r3, r3
 3052 020c 012B     		cmp	r3, #1
 3053 020e 02D1     		bne	.L238
 3054              		.loc 1 689 0 is_stmt 0 discriminator 1
 3055 0210 234B     		ldr	r3, .L259+4
 3056 0212 1B68     		ldr	r3, [r3]
 3057 0214 2BE0     		b	.L239
 3058              	.L238:
 3059 0216 0223     		movs	r3, #2
 3060 0218 BB62     		str	r3, [r7, #40]
 3061              	.LBB308:
 3062              	.LBB309:
ARM GAS  /var/folders/0z/_3zh0q697778kwks4bv8s9bh0000gn/T//ccJVqLQz.s 			page 79


 531:Drivers/CMSIS/Include/cmsis_gcc.h **** #else
 3063              		.loc 2 531 0 is_stmt 1 discriminator 2
 3064 021a BB6A     		ldr	r3, [r7, #40]
 3065              	@ 531 "Drivers/CMSIS/Include/cmsis_gcc.h" 1
 3066 021c 93FAA3F3 		rbit r3, r3
 3067              	@ 0 "" 2
 3068              		.thumb
 3069 0220 7B62     		str	r3, [r7, #36]
 3070              		.loc 2 544 0 discriminator 2
 3071 0222 7B6A     		ldr	r3, [r7, #36]
 3072              	.LBE309:
 3073              	.LBE308:
 3074              		.loc 1 689 0 discriminator 2
 3075 0224 B3FA83F3 		clz	r3, r3
 3076 0228 DBB2     		uxtb	r3, r3
 3077 022a 43F02003 		orr	r3, r3, #32
 3078 022e DBB2     		uxtb	r3, r3
 3079 0230 DBB2     		uxtb	r3, r3
 3080 0232 5B09     		lsrs	r3, r3, #5
 3081 0234 DBB2     		uxtb	r3, r3
 3082 0236 022B     		cmp	r3, #2
 3083 0238 02D1     		bne	.L241
 3084              		.loc 1 689 0 is_stmt 0 discriminator 4
 3085 023a 194B     		ldr	r3, .L259+4
 3086 023c 1B6A     		ldr	r3, [r3, #32]
 3087 023e 16E0     		b	.L239
 3088              	.L241:
 3089 0240 0223     		movs	r3, #2
 3090 0242 3B62     		str	r3, [r7, #32]
 3091              	.LBB310:
 3092              	.LBB311:
 531:Drivers/CMSIS/Include/cmsis_gcc.h **** #else
 3093              		.loc 2 531 0 is_stmt 1 discriminator 5
 3094 0244 3B6A     		ldr	r3, [r7, #32]
 3095              	@ 531 "Drivers/CMSIS/Include/cmsis_gcc.h" 1
 3096 0246 93FAA3F3 		rbit r3, r3
 3097              	@ 0 "" 2
 3098              		.thumb
 3099 024a FB61     		str	r3, [r7, #28]
 3100              		.loc 2 544 0 discriminator 5
 3101 024c FB69     		ldr	r3, [r7, #28]
 3102              	.LBE311:
 3103              	.LBE310:
 3104              		.loc 1 689 0 discriminator 5
 3105 024e B3FA83F3 		clz	r3, r3
 3106 0252 DBB2     		uxtb	r3, r3
 3107 0254 43F02003 		orr	r3, r3, #32
 3108 0258 DBB2     		uxtb	r3, r3
 3109 025a DBB2     		uxtb	r3, r3
 3110 025c 5B09     		lsrs	r3, r3, #5
 3111 025e DBB2     		uxtb	r3, r3
 3112 0260 042B     		cmp	r3, #4
 3113 0262 02D1     		bne	.L244
 3114              		.loc 1 689 0 is_stmt 0 discriminator 7
 3115 0264 0E4B     		ldr	r3, .L259+4
 3116 0266 5B68     		ldr	r3, [r3, #4]
 3117 0268 01E0     		b	.L239
ARM GAS  /var/folders/0z/_3zh0q697778kwks4bv8s9bh0000gn/T//ccJVqLQz.s 			page 80


 3118              	.L244:
 3119              		.loc 1 689 0 discriminator 8
 3120 026a 0D4B     		ldr	r3, .L259+4
 3121 026c 5B6A     		ldr	r3, [r3, #36]
 3122              	.L239:
 3123 026e 0222     		movs	r2, #2
 3124 0270 BA61     		str	r2, [r7, #24]
 3125              	.LBB312:
 3126              	.LBB313:
 531:Drivers/CMSIS/Include/cmsis_gcc.h **** #else
 3127              		.loc 2 531 0 is_stmt 1 discriminator 12
 3128 0272 BA69     		ldr	r2, [r7, #24]
 3129              	@ 531 "Drivers/CMSIS/Include/cmsis_gcc.h" 1
 3130 0274 92FAA2F2 		rbit r2, r2
 3131              	@ 0 "" 2
 3132              		.thumb
 3133 0278 7A61     		str	r2, [r7, #20]
 3134              		.loc 2 544 0 discriminator 12
 3135 027a 7A69     		ldr	r2, [r7, #20]
 3136              	.LBE313:
 3137              	.LBE312:
 3138              		.loc 1 689 0 discriminator 12
 3139 027c B2FA82F2 		clz	r2, r2
 3140 0280 D2B2     		uxtb	r2, r2
 3141 0282 42F02002 		orr	r2, r2, #32
 3142 0286 D2B2     		uxtb	r2, r2
 3143 0288 D2B2     		uxtb	r2, r2
 3144 028a 02F01F02 		and	r2, r2, #31
 3145 028e D340     		lsrs	r3, r3, r2
 3146 0290 03F00103 		and	r3, r3, #1
 3147 0294 002B     		cmp	r3, #0
 3148 0296 05D1     		bne	.L225
 690:Drivers/STM32F3xx_HAL_Driver/Src/stm32f3xx_hal_rcc.c ****       {
 691:Drivers/STM32F3xx_HAL_Driver/Src/stm32f3xx_hal_rcc.c ****         return HAL_ERROR;
 3149              		.loc 1 691 0
 3150 0298 0123     		movs	r3, #1
 3151 029a A2E0     		b	.L211
 3152              	.L260:
 3153              		.align	2
 3154              	.L259:
 3155 029c 00200240 		.word	1073881088
 3156 02a0 00100240 		.word	1073876992
 3157              	.L225:
 692:Drivers/STM32F3xx_HAL_Driver/Src/stm32f3xx_hal_rcc.c ****       }
 693:Drivers/STM32F3xx_HAL_Driver/Src/stm32f3xx_hal_rcc.c ****     }
 694:Drivers/STM32F3xx_HAL_Driver/Src/stm32f3xx_hal_rcc.c ****     __HAL_RCC_SYSCLK_CONFIG(RCC_ClkInitStruct->SYSCLKSource);
 3158              		.loc 1 694 0
 3159 02a4 5149     		ldr	r1, .L261
 3160 02a6 514B     		ldr	r3, .L261
 3161 02a8 5B68     		ldr	r3, [r3, #4]
 3162 02aa 23F00302 		bic	r2, r3, #3
 3163 02ae 7B68     		ldr	r3, [r7, #4]
 3164 02b0 5B68     		ldr	r3, [r3, #4]
 3165 02b2 1343     		orrs	r3, r3, r2
 3166 02b4 4B60     		str	r3, [r1, #4]
 695:Drivers/STM32F3xx_HAL_Driver/Src/stm32f3xx_hal_rcc.c **** 
 696:Drivers/STM32F3xx_HAL_Driver/Src/stm32f3xx_hal_rcc.c ****     /* Get Start Tick */
ARM GAS  /var/folders/0z/_3zh0q697778kwks4bv8s9bh0000gn/T//ccJVqLQz.s 			page 81


 697:Drivers/STM32F3xx_HAL_Driver/Src/stm32f3xx_hal_rcc.c ****     tickstart = HAL_GetTick();
 3167              		.loc 1 697 0
 3168 02b6 FFF7FEFF 		bl	HAL_GetTick
 3169 02ba 7867     		str	r0, [r7, #116]
 698:Drivers/STM32F3xx_HAL_Driver/Src/stm32f3xx_hal_rcc.c ****     
 699:Drivers/STM32F3xx_HAL_Driver/Src/stm32f3xx_hal_rcc.c ****     if(RCC_ClkInitStruct->SYSCLKSource == RCC_SYSCLKSOURCE_HSE)
 3170              		.loc 1 699 0
 3171 02bc 7B68     		ldr	r3, [r7, #4]
 3172 02be 5B68     		ldr	r3, [r3, #4]
 3173 02c0 012B     		cmp	r3, #1
 3174 02c2 12D1     		bne	.L247
 700:Drivers/STM32F3xx_HAL_Driver/Src/stm32f3xx_hal_rcc.c ****     {
 701:Drivers/STM32F3xx_HAL_Driver/Src/stm32f3xx_hal_rcc.c ****       while (__HAL_RCC_GET_SYSCLK_SOURCE() != RCC_SYSCLKSOURCE_STATUS_HSE)
 3175              		.loc 1 701 0
 3176 02c4 0AE0     		b	.L248
 3177              	.L249:
 702:Drivers/STM32F3xx_HAL_Driver/Src/stm32f3xx_hal_rcc.c ****       {
 703:Drivers/STM32F3xx_HAL_Driver/Src/stm32f3xx_hal_rcc.c ****         if((HAL_GetTick() - tickstart ) > CLOCKSWITCH_TIMEOUT_VALUE)
 3178              		.loc 1 703 0
 3179 02c6 FFF7FEFF 		bl	HAL_GetTick
 3180 02ca 0246     		mov	r2, r0
 3181 02cc 7B6F     		ldr	r3, [r7, #116]
 3182 02ce D31A     		subs	r3, r2, r3
 3183 02d0 41F28832 		movw	r2, #5000
 3184 02d4 9342     		cmp	r3, r2
 3185 02d6 01D9     		bls	.L248
 704:Drivers/STM32F3xx_HAL_Driver/Src/stm32f3xx_hal_rcc.c ****         {
 705:Drivers/STM32F3xx_HAL_Driver/Src/stm32f3xx_hal_rcc.c ****           return HAL_TIMEOUT;
 3186              		.loc 1 705 0
 3187 02d8 0323     		movs	r3, #3
 3188 02da 82E0     		b	.L211
 3189              	.L248:
 701:Drivers/STM32F3xx_HAL_Driver/Src/stm32f3xx_hal_rcc.c ****       {
 3190              		.loc 1 701 0
 3191 02dc 434B     		ldr	r3, .L261
 3192 02de 5B68     		ldr	r3, [r3, #4]
 3193 02e0 03F00C03 		and	r3, r3, #12
 3194 02e4 042B     		cmp	r3, #4
 3195 02e6 EED1     		bne	.L249
 3196 02e8 28E0     		b	.L213
 3197              	.L247:
 706:Drivers/STM32F3xx_HAL_Driver/Src/stm32f3xx_hal_rcc.c ****         }
 707:Drivers/STM32F3xx_HAL_Driver/Src/stm32f3xx_hal_rcc.c ****       }
 708:Drivers/STM32F3xx_HAL_Driver/Src/stm32f3xx_hal_rcc.c ****     }
 709:Drivers/STM32F3xx_HAL_Driver/Src/stm32f3xx_hal_rcc.c ****     else if(RCC_ClkInitStruct->SYSCLKSource == RCC_SYSCLKSOURCE_PLLCLK)
 3198              		.loc 1 709 0
 3199 02ea 7B68     		ldr	r3, [r7, #4]
 3200 02ec 5B68     		ldr	r3, [r3, #4]
 3201 02ee 022B     		cmp	r3, #2
 3202 02f0 12D1     		bne	.L250
 710:Drivers/STM32F3xx_HAL_Driver/Src/stm32f3xx_hal_rcc.c ****     {
 711:Drivers/STM32F3xx_HAL_Driver/Src/stm32f3xx_hal_rcc.c ****       while (__HAL_RCC_GET_SYSCLK_SOURCE() != RCC_SYSCLKSOURCE_STATUS_PLLCLK)
 3203              		.loc 1 711 0
 3204 02f2 0AE0     		b	.L251
 3205              	.L252:
 712:Drivers/STM32F3xx_HAL_Driver/Src/stm32f3xx_hal_rcc.c ****       {
 713:Drivers/STM32F3xx_HAL_Driver/Src/stm32f3xx_hal_rcc.c ****         if((HAL_GetTick() - tickstart ) > CLOCKSWITCH_TIMEOUT_VALUE)
ARM GAS  /var/folders/0z/_3zh0q697778kwks4bv8s9bh0000gn/T//ccJVqLQz.s 			page 82


 3206              		.loc 1 713 0
 3207 02f4 FFF7FEFF 		bl	HAL_GetTick
 3208 02f8 0246     		mov	r2, r0
 3209 02fa 7B6F     		ldr	r3, [r7, #116]
 3210 02fc D31A     		subs	r3, r2, r3
 3211 02fe 41F28832 		movw	r2, #5000
 3212 0302 9342     		cmp	r3, r2
 3213 0304 01D9     		bls	.L251
 714:Drivers/STM32F3xx_HAL_Driver/Src/stm32f3xx_hal_rcc.c ****         {
 715:Drivers/STM32F3xx_HAL_Driver/Src/stm32f3xx_hal_rcc.c ****           return HAL_TIMEOUT;
 3214              		.loc 1 715 0
 3215 0306 0323     		movs	r3, #3
 3216 0308 6BE0     		b	.L211
 3217              	.L251:
 711:Drivers/STM32F3xx_HAL_Driver/Src/stm32f3xx_hal_rcc.c ****       {
 3218              		.loc 1 711 0
 3219 030a 384B     		ldr	r3, .L261
 3220 030c 5B68     		ldr	r3, [r3, #4]
 3221 030e 03F00C03 		and	r3, r3, #12
 3222 0312 082B     		cmp	r3, #8
 3223 0314 EED1     		bne	.L252
 3224 0316 11E0     		b	.L213
 3225              	.L250:
 716:Drivers/STM32F3xx_HAL_Driver/Src/stm32f3xx_hal_rcc.c ****         }
 717:Drivers/STM32F3xx_HAL_Driver/Src/stm32f3xx_hal_rcc.c ****       }
 718:Drivers/STM32F3xx_HAL_Driver/Src/stm32f3xx_hal_rcc.c ****     }
 719:Drivers/STM32F3xx_HAL_Driver/Src/stm32f3xx_hal_rcc.c ****     else
 720:Drivers/STM32F3xx_HAL_Driver/Src/stm32f3xx_hal_rcc.c ****     {
 721:Drivers/STM32F3xx_HAL_Driver/Src/stm32f3xx_hal_rcc.c ****       while (__HAL_RCC_GET_SYSCLK_SOURCE() != RCC_SYSCLKSOURCE_STATUS_HSI)
 3226              		.loc 1 721 0
 3227 0318 0AE0     		b	.L253
 3228              	.L254:
 722:Drivers/STM32F3xx_HAL_Driver/Src/stm32f3xx_hal_rcc.c ****       {
 723:Drivers/STM32F3xx_HAL_Driver/Src/stm32f3xx_hal_rcc.c ****         if((HAL_GetTick() - tickstart ) > CLOCKSWITCH_TIMEOUT_VALUE)
 3229              		.loc 1 723 0
 3230 031a FFF7FEFF 		bl	HAL_GetTick
 3231 031e 0246     		mov	r2, r0
 3232 0320 7B6F     		ldr	r3, [r7, #116]
 3233 0322 D31A     		subs	r3, r2, r3
 3234 0324 41F28832 		movw	r2, #5000
 3235 0328 9342     		cmp	r3, r2
 3236 032a 01D9     		bls	.L253
 724:Drivers/STM32F3xx_HAL_Driver/Src/stm32f3xx_hal_rcc.c ****         {
 725:Drivers/STM32F3xx_HAL_Driver/Src/stm32f3xx_hal_rcc.c ****           return HAL_TIMEOUT;
 3237              		.loc 1 725 0
 3238 032c 0323     		movs	r3, #3
 3239 032e 58E0     		b	.L211
 3240              	.L253:
 721:Drivers/STM32F3xx_HAL_Driver/Src/stm32f3xx_hal_rcc.c ****       {
 3241              		.loc 1 721 0
 3242 0330 2E4B     		ldr	r3, .L261
 3243 0332 5B68     		ldr	r3, [r3, #4]
 3244 0334 03F00C03 		and	r3, r3, #12
 3245 0338 002B     		cmp	r3, #0
 3246 033a EED1     		bne	.L254
 3247              	.L213:
 726:Drivers/STM32F3xx_HAL_Driver/Src/stm32f3xx_hal_rcc.c ****         }
ARM GAS  /var/folders/0z/_3zh0q697778kwks4bv8s9bh0000gn/T//ccJVqLQz.s 			page 83


 727:Drivers/STM32F3xx_HAL_Driver/Src/stm32f3xx_hal_rcc.c ****       }
 728:Drivers/STM32F3xx_HAL_Driver/Src/stm32f3xx_hal_rcc.c ****     }      
 729:Drivers/STM32F3xx_HAL_Driver/Src/stm32f3xx_hal_rcc.c ****   }    
 730:Drivers/STM32F3xx_HAL_Driver/Src/stm32f3xx_hal_rcc.c ****   /* Decreasing the number of wait states because of lower CPU frequency */
 731:Drivers/STM32F3xx_HAL_Driver/Src/stm32f3xx_hal_rcc.c ****   if(FLatency < (FLASH->ACR & FLASH_ACR_LATENCY))
 3248              		.loc 1 731 0
 3249 033c 2C4B     		ldr	r3, .L261+4
 3250 033e 1B68     		ldr	r3, [r3]
 3251 0340 03F00702 		and	r2, r3, #7
 3252 0344 3B68     		ldr	r3, [r7]
 3253 0346 9A42     		cmp	r2, r3
 3254 0348 10D9     		bls	.L255
 732:Drivers/STM32F3xx_HAL_Driver/Src/stm32f3xx_hal_rcc.c ****   {    
 733:Drivers/STM32F3xx_HAL_Driver/Src/stm32f3xx_hal_rcc.c ****     /* Program the new number of wait states to the LATENCY bits in the FLASH_ACR register */
 734:Drivers/STM32F3xx_HAL_Driver/Src/stm32f3xx_hal_rcc.c ****     __HAL_FLASH_SET_LATENCY(FLatency);
 3255              		.loc 1 734 0
 3256 034a 2949     		ldr	r1, .L261+4
 3257 034c 284B     		ldr	r3, .L261+4
 3258 034e 1B68     		ldr	r3, [r3]
 3259 0350 23F00702 		bic	r2, r3, #7
 3260 0354 3B68     		ldr	r3, [r7]
 3261 0356 1343     		orrs	r3, r3, r2
 3262 0358 0B60     		str	r3, [r1]
 735:Drivers/STM32F3xx_HAL_Driver/Src/stm32f3xx_hal_rcc.c ****     
 736:Drivers/STM32F3xx_HAL_Driver/Src/stm32f3xx_hal_rcc.c ****     /* Check that the new number of wait states is taken into account to access the Flash
 737:Drivers/STM32F3xx_HAL_Driver/Src/stm32f3xx_hal_rcc.c ****     memory by reading the FLASH_ACR register */
 738:Drivers/STM32F3xx_HAL_Driver/Src/stm32f3xx_hal_rcc.c ****     if((FLASH->ACR & FLASH_ACR_LATENCY) != FLatency)
 3263              		.loc 1 738 0
 3264 035a 254B     		ldr	r3, .L261+4
 3265 035c 1B68     		ldr	r3, [r3]
 3266 035e 03F00702 		and	r2, r3, #7
 3267 0362 3B68     		ldr	r3, [r7]
 3268 0364 9A42     		cmp	r2, r3
 3269 0366 01D0     		beq	.L255
 739:Drivers/STM32F3xx_HAL_Driver/Src/stm32f3xx_hal_rcc.c ****     {
 740:Drivers/STM32F3xx_HAL_Driver/Src/stm32f3xx_hal_rcc.c ****       return HAL_ERROR;
 3270              		.loc 1 740 0
 3271 0368 0123     		movs	r3, #1
 3272 036a 3AE0     		b	.L211
 3273              	.L255:
 741:Drivers/STM32F3xx_HAL_Driver/Src/stm32f3xx_hal_rcc.c ****     }
 742:Drivers/STM32F3xx_HAL_Driver/Src/stm32f3xx_hal_rcc.c ****   }    
 743:Drivers/STM32F3xx_HAL_Driver/Src/stm32f3xx_hal_rcc.c **** 
