ARM GAS  /var/folders/0z/_3zh0q697778kwks4bv8s9bh0000gn/T//ccRluF2A.s 			page 1


   1              		.syntax unified
   2              		.cpu cortex-m4
   3              		.eabi_attribute 27, 1
   4              		.eabi_attribute 28, 1
   5              		.fpu fpv4-sp-d16
   6              		.eabi_attribute 20, 1
   7              		.eabi_attribute 21, 1
   8              		.eabi_attribute 23, 3
   9              		.eabi_attribute 24, 1
  10              		.eabi_attribute 25, 1
  11              		.eabi_attribute 26, 1
  12              		.eabi_attribute 30, 6
  13              		.eabi_attribute 34, 1
  14              		.eabi_attribute 18, 4
  15              		.thumb
  16              		.file	"stm32f3xx_it.c"
  17              		.text
  18              	.Ltext0:
  19              		.cfi_sections	.debug_frame
  20              		.section	.text.SysTick_Handler,"ax",%progbits
  21              		.align	2
  22              		.global	SysTick_Handler
  23              		.thumb
  24              		.thumb_func
  26              	SysTick_Handler:
  27              	.LFB123:
  28              		.file 1 "Src/stm32f3xx_it.c"
   1:Src/stm32f3xx_it.c **** /**
   2:Src/stm32f3xx_it.c ****   ******************************************************************************
   3:Src/stm32f3xx_it.c ****   * @file    stm32f3xx_it.c
   4:Src/stm32f3xx_it.c ****   * @brief   Interrupt Service Routines.
   5:Src/stm32f3xx_it.c ****   ******************************************************************************
   6:Src/stm32f3xx_it.c ****   *
   7:Src/stm32f3xx_it.c ****   * COPYRIGHT(c) 2017 STMicroelectronics
   8:Src/stm32f3xx_it.c ****   *
   9:Src/stm32f3xx_it.c ****   * Redistribution and use in source and binary forms, with or without modification,
  10:Src/stm32f3xx_it.c ****   * are permitted provided that the following conditions are met:
  11:Src/stm32f3xx_it.c ****   *   1. Redistributions of source code must retain the above copyright notice,
  12:Src/stm32f3xx_it.c ****   *      this list of conditions and the following disclaimer.
  13:Src/stm32f3xx_it.c ****   *   2. Redistributions in binary form must reproduce the above copyright notice,
  14:Src/stm32f3xx_it.c ****   *      this list of conditions and the following disclaimer in the documentation
  15:Src/stm32f3xx_it.c ****   *      and/or other materials provided with the distribution.
  16:Src/stm32f3xx_it.c ****   *   3. Neither the name of STMicroelectronics nor the names of its contributors
  17:Src/stm32f3xx_it.c ****   *      may be used to endorse or promote products derived from this software
  18:Src/stm32f3xx_it.c ****   *      without specific prior written permission.
  19:Src/stm32f3xx_it.c ****   *
  20:Src/stm32f3xx_it.c ****   * THIS SOFTWARE IS PROVIDED BY THE COPYRIGHT HOLDERS AND CONTRIBUTORS "AS IS"
  21:Src/stm32f3xx_it.c ****   * AND ANY EXPRESS OR IMPLIED WARRANTIES, INCLUDING, BUT NOT LIMITED TO, THE
  22:Src/stm32f3xx_it.c ****   * IMPLIED WARRANTIES OF MERCHANTABILITY AND FITNESS FOR A PARTICULAR PURPOSE ARE
  23:Src/stm32f3xx_it.c ****   * DISCLAIMED. IN NO EVENT SHALL THE COPYRIGHT HOLDER OR CONTRIBUTORS BE LIABLE
  24:Src/stm32f3xx_it.c ****   * FOR ANY DIRECT, INDIRECT, INCIDENTAL, SPECIAL, EXEMPLARY, OR CONSEQUENTIAL
  25:Src/stm32f3xx_it.c ****   * DAMAGES (INCLUDING, BUT NOT LIMITED TO, PROCUREMENT OF SUBSTITUTE GOODS OR
  26:Src/stm32f3xx_it.c ****   * SERVICES; LOSS OF USE, DATA, OR PROFITS; OR BUSINESS INTERRUPTION) HOWEVER
  27:Src/stm32f3xx_it.c ****   * CAUSED AND ON ANY THEORY OF LIABILITY, WHETHER IN CONTRACT, STRICT LIABILITY,
  28:Src/stm32f3xx_it.c ****   * OR TORT (INCLUDING NEGLIGENCE OR OTHERWISE) ARISING IN ANY WAY OUT OF THE USE
  29:Src/stm32f3xx_it.c ****   * OF THIS SOFTWARE, EVEN IF ADVISED OF THE POSSIBILITY OF SUCH DAMAGE.
  30:Src/stm32f3xx_it.c ****   *
ARM GAS  /var/folders/0z/_3zh0q697778kwks4bv8s9bh0000gn/T//ccRluF2A.s 			page 2


  31:Src/stm32f3xx_it.c ****   ******************************************************************************
  32:Src/stm32f3xx_it.c ****   */
  33:Src/stm32f3xx_it.c **** /* Includes ------------------------------------------------------------------*/
  34:Src/stm32f3xx_it.c **** #include "stm32f3xx_hal.h"
  35:Src/stm32f3xx_it.c **** #include "stm32f3xx.h"
  36:Src/stm32f3xx_it.c **** #include "stm32f3xx_it.h"
  37:Src/stm32f3xx_it.c **** 
  38:Src/stm32f3xx_it.c **** /* USER CODE BEGIN 0 */
  39:Src/stm32f3xx_it.c **** 
  40:Src/stm32f3xx_it.c **** /* USER CODE END 0 */
  41:Src/stm32f3xx_it.c **** 
  42:Src/stm32f3xx_it.c **** /* External variables --------------------------------------------------------*/
  43:Src/stm32f3xx_it.c **** extern UART_HandleTypeDef huart2;
  44:Src/stm32f3xx_it.c **** 
  45:Src/stm32f3xx_it.c **** /******************************************************************************/
  46:Src/stm32f3xx_it.c **** /*            Cortex-M4 Processor Interruption and Exception Handlers         */ 
  47:Src/stm32f3xx_it.c **** /******************************************************************************/
  48:Src/stm32f3xx_it.c **** 
  49:Src/stm32f3xx_it.c **** /**
  50:Src/stm32f3xx_it.c **** * @brief This function handles System tick timer.
  51:Src/stm32f3xx_it.c **** */
  52:Src/stm32f3xx_it.c **** void SysTick_Handler(void)
  53:Src/stm32f3xx_it.c **** {
  29              		.loc 1 53 0
  30              		.cfi_startproc
  31              		@ args = 0, pretend = 0, frame = 0
  32              		@ frame_needed = 1, uses_anonymous_args = 0
  33 0000 80B5     		push	{r7, lr}
  34              	.LCFI0:
  35              		.cfi_def_cfa_offset 8
  36              		.cfi_offset 7, -8
  37              		.cfi_offset 14, -4
  38 0002 00AF     		add	r7, sp, #0
  39              	.LCFI1:
  40              		.cfi_def_cfa_register 7
  54:Src/stm32f3xx_it.c ****   /* USER CODE BEGIN SysTick_IRQn 0 */
  55:Src/stm32f3xx_it.c **** 
  56:Src/stm32f3xx_it.c ****   /* USER CODE END SysTick_IRQn 0 */
  57:Src/stm32f3xx_it.c ****   HAL_IncTick();
  41              		.loc 1 57 0
  42 0004 FFF7FEFF 		bl	HAL_IncTick
  58:Src/stm32f3xx_it.c ****   HAL_SYSTICK_IRQHandler();
  43              		.loc 1 58 0
  44 0008 FFF7FEFF 		bl	HAL_SYSTICK_IRQHandler
  59:Src/stm32f3xx_it.c ****   /* USER CODE BEGIN SysTick_IRQn 1 */
  60:Src/stm32f3xx_it.c **** 
  61:Src/stm32f3xx_it.c ****   /* USER CODE END SysTick_IRQn 1 */
  62:Src/stm32f3xx_it.c **** }
  45              		.loc 1 62 0
  46 000c 80BD     		pop	{r7, pc}
  47              		.cfi_endproc
  48              	.LFE123:
  50 000e 00BF     		.section	.text.USART2_IRQHandler,"ax",%progbits
  51              		.align	2
  52              		.global	USART2_IRQHandler
  53              		.thumb
  54              		.thumb_func
ARM GAS  /var/folders/0z/_3zh0q697778kwks4bv8s9bh0000gn/T//ccRluF2A.s 			page 3


  56              	USART2_IRQHandler:
  57              	.LFB124:
  63:Src/stm32f3xx_it.c **** 
  64:Src/stm32f3xx_it.c **** /******************************************************************************/
  65:Src/stm32f3xx_it.c **** /* STM32F3xx Peripheral Interrupt Handlers                                    */
  66:Src/stm32f3xx_it.c **** /* Add here the Interrupt Handlers for the used peripherals.                  */
  67:Src/stm32f3xx_it.c **** /* For the available peripheral interrupt handler names,                      */
  68:Src/stm32f3xx_it.c **** /* please refer to the startup file (startup_stm32f3xx.s).                    */
  69:Src/stm32f3xx_it.c **** /******************************************************************************/
  70:Src/stm32f3xx_it.c **** 
  71:Src/stm32f3xx_it.c **** /**
  72:Src/stm32f3xx_it.c **** * @brief This function handles USART2 global interrupt / USART2 wake-up interrupt through EXT line 
  73:Src/stm32f3xx_it.c **** */
  74:Src/stm32f3xx_it.c **** void USART2_IRQHandler(void)
  75:Src/stm32f3xx_it.c **** {
  58              		.loc 1 75 0
  59              		.cfi_startproc
  60              		@ args = 0, pretend = 0, frame = 0
  61              		@ frame_needed = 1, uses_anonymous_args = 0
  62 0000 80B5     		push	{r7, lr}
  63              	.LCFI2:
  64              		.cfi_def_cfa_offset 8
  65              		.cfi_offset 7, -8
  66              		.cfi_offset 14, -4
  67 0002 00AF     		add	r7, sp, #0
  68              	.LCFI3:
  69              		.cfi_def_cfa_register 7
  76:Src/stm32f3xx_it.c ****   /* USER CODE BEGIN USART2_IRQn 0 */
  77:Src/stm32f3xx_it.c **** 
  78:Src/stm32f3xx_it.c ****   /* USER CODE END USART2_IRQn 0 */
  79:Src/stm32f3xx_it.c ****   HAL_UART_IRQHandler(&huart2);
  70              		.loc 1 79 0
  71 0004 0148     		ldr	r0, .L3
  72 0006 FFF7FEFF 		bl	HAL_UART_IRQHandler
  80:Src/stm32f3xx_it.c ****   /* USER CODE BEGIN USART2_IRQn 1 */
  81:Src/stm32f3xx_it.c **** 
  82:Src/stm32f3xx_it.c ****   /* USER CODE END USART2_IRQn 1 */
  83:Src/stm32f3xx_it.c **** }
  73              		.loc 1 83 0
  74 000a 80BD     		pop	{r7, pc}
  75              	.L4:
  76              		.align	2
  77              	.L3:
  78 000c 00000000 		.word	huart2
  79              		.cfi_endproc
  80              	.LFE124:
  82              		.text
  83              	.Letext0:
  84              		.file 2 "/usr/local/Cellar/arm-none-eabi-gcc/20150921/arm-none-eabi/include/machine/_default_types
  85              		.file 3 "/usr/local/Cellar/arm-none-eabi-gcc/20150921/arm-none-eabi/include/sys/_stdint.h"
  86              		.file 4 "Drivers/CMSIS/Device/ST/STM32F3xx/Include/stm32f303x8.h"
  87              		.file 5 "Drivers/STM32F3xx_HAL_Driver/Inc/stm32f3xx_hal_def.h"
  88              		.file 6 "Drivers/STM32F3xx_HAL_Driver/Inc/stm32f3xx_hal_dma.h"
  89              		.file 7 "Drivers/STM32F3xx_HAL_Driver/Inc/stm32f3xx_hal_uart.h"
  90              		.file 8 "Drivers/CMSIS/Include/core_cm4.h"
ARM GAS  /var/folders/0z/_3zh0q697778kwks4bv8s9bh0000gn/T//ccRluF2A.s 			page 4

